
test_steric2.elf:     file format elf32-littlenios2
test_steric2.elf
architecture: nios2:r1, flags 0x00000112:
EXEC_P, HAS_SYMS, D_PAGED
start address 0x008001bc

Program Header:
    LOAD off    0x00001020 vaddr 0x00800020 paddr 0x00800020 align 2**12
         filesz 0x00013a00 memsz 0x00016df4 flags rwx
    LOAD off    0x00015800 vaddr 0x01001800 paddr 0x01001800 align 2**12
         filesz 0x00000000 memsz 0x00000000 flags r-x

Sections:
Idx Name          Size      VMA       LMA       File off  Algn
  0 .entry        00000000  01001800  01001800  00015800  2**5
                  CONTENTS, ALLOC, LOAD, READONLY, CODE
  1 .exceptions   0000019c  00800020  00800020  00001020  2**2
                  CONTENTS, ALLOC, LOAD, READONLY, CODE
  2 .text         0001182c  008001bc  008001bc  000011bc  2**2
                  CONTENTS, ALLOC, LOAD, READONLY, CODE
  3 .rodata       00000878  008119e8  008119e8  000129e8  2**2
                  CONTENTS, ALLOC, LOAD, READONLY, DATA
  4 .rwdata       000017c0  00812260  00812260  00013260  2**2
                  CONTENTS, ALLOC, LOAD, DATA, SMALL_DATA
  5 .bss          000033f4  00813a20  00813a20  00014a20  2**2
                  ALLOC, SMALL_DATA
  6 .sdram        00000000  00816e14  00816e14  00015800  2**0
                  CONTENTS
  7 .flash        00000000  01001820  01001820  00015800  2**0
                  CONTENTS
  8 .comment      00000023  00000000  00000000  00015800  2**0
                  CONTENTS, READONLY
  9 .debug_aranges 000009c0  00000000  00000000  00015828  2**3
                  CONTENTS, READONLY, DEBUGGING
 10 .debug_info   000160e4  00000000  00000000  000161e8  2**0
                  CONTENTS, READONLY, DEBUGGING
 11 .debug_abbrev 00005cc3  00000000  00000000  0002c2cc  2**0
                  CONTENTS, READONLY, DEBUGGING
 12 .debug_line   00007099  00000000  00000000  00031f8f  2**0
                  CONTENTS, READONLY, DEBUGGING
 13 .debug_frame  000027e0  00000000  00000000  00039028  2**2
                  CONTENTS, READONLY, DEBUGGING
 14 .debug_str    00003581  00000000  00000000  0003b808  2**0
                  CONTENTS, READONLY, DEBUGGING
 15 .debug_loc    00006ed7  00000000  00000000  0003ed89  2**0
                  CONTENTS, READONLY, DEBUGGING
 16 .debug_alt_sim_info 00000040  00000000  00000000  00045c60  2**2
                  CONTENTS, READONLY, DEBUGGING
 17 .debug_ranges 00000a18  00000000  00000000  00045ca0  2**3
                  CONTENTS, READONLY, DEBUGGING
 18 .thread_model 00000006  00000000  00000000  0004a5d8  2**0
                  CONTENTS, READONLY
 19 .cpu          00000003  00000000  00000000  0004a5de  2**0
                  CONTENTS, READONLY
 20 .qsys         00000001  00000000  00000000  0004a5e1  2**0
                  CONTENTS, READONLY
 21 .simulation_enabled 00000001  00000000  00000000  0004a5e2  2**0
                  CONTENTS, READONLY
 22 .sysid_hash   00000004  00000000  00000000  0004a5e3  2**0
                  CONTENTS, READONLY
 23 .sysid_base   00000004  00000000  00000000  0004a5e7  2**0
                  CONTENTS, READONLY
 24 .sysid_time   00000004  00000000  00000000  0004a5eb  2**0
                  CONTENTS, READONLY
 25 .stderr_dev   00000004  00000000  00000000  0004a5ef  2**0
                  CONTENTS, READONLY
 26 .stdin_dev    00000004  00000000  00000000  0004a5f3  2**0
                  CONTENTS, READONLY
 27 .stdout_dev   00000004  00000000  00000000  0004a5f7  2**0
                  CONTENTS, READONLY
 28 .sopc_system_name 00000007  00000000  00000000  0004a5fb  2**0
                  CONTENTS, READONLY
 29 .quartus_project_dir 00000014  00000000  00000000  0004a602  2**0
                  CONTENTS, READONLY
 30 .jdi          000035c3  00000000  00000000  0004a616  2**0
                  CONTENTS, READONLY
 31 .sopcinfo     00096a95  00000000  00000000  0004dbd9  2**0
                  CONTENTS, READONLY
SYMBOL TABLE:
01001800 l    d  .entry	00000000 .entry
00800020 l    d  .exceptions	00000000 .exceptions
008001bc l    d  .text	00000000 .text
008119e8 l    d  .rodata	00000000 .rodata
00812260 l    d  .rwdata	00000000 .rwdata
00813a20 l    d  .bss	00000000 .bss
00816e14 l    d  .sdram	00000000 .sdram
01001820 l    d  .flash	00000000 .flash
00000000 l    d  .comment	00000000 .comment
00000000 l    d  .debug_aranges	00000000 .debug_aranges
00000000 l    d  .debug_info	00000000 .debug_info
00000000 l    d  .debug_abbrev	00000000 .debug_abbrev
00000000 l    d  .debug_line	00000000 .debug_line
00000000 l    d  .debug_frame	00000000 .debug_frame
00000000 l    d  .debug_str	00000000 .debug_str
00000000 l    d  .debug_loc	00000000 .debug_loc
00000000 l    d  .debug_alt_sim_info	00000000 .debug_alt_sim_info
00000000 l    d  .debug_ranges	00000000 .debug_ranges
00000000 l    df *ABS*	00000000 ../test_steric2_bsp//obj/HAL/src/crt0.o
008001f0 l       .text	00000000 alt_after_alt_main
00000000 l    df *ABS*	00000000 alt_exception_entry.o
00800094 l       .exceptions	00000000 alt_exception_unknown
00000000 l    df *ABS*	00000000 alt_irq_handler.c
00000000 l    df *ABS*	00000000 AsciiLib.c
008119e8 l     O .rodata	000005f0 AsciiLib
00000000 l    df *ABS*	00000000 LCD32.c
00813a20 l     O .bss	00000001 LCD_Code
00000000 l    df *ABS*	00000000 main.c
00000000 l    df *ABS*	00000000 touch.c
00813a22 l     O .bss	00000004 screen.1887
00000000 l    df *ABS*	00000000 libgcc2.c
00000000 l    df *ABS*	00000000 lib2-divmod.c
008030a4 l     F .text	0000006c udivmodsi4
00000000 l    df *ABS*	00000000 lib2-mul.c
00000000 l    df *ABS*	00000000 adddf3.c
00000000 l    df *ABS*	00000000 divdf3.c
00000000 l    df *ABS*	00000000 eqdf2.c
00000000 l    df *ABS*	00000000 gedf2.c
00000000 l    df *ABS*	00000000 muldf3.c
00000000 l    df *ABS*	00000000 subdf3.c
00000000 l    df *ABS*	00000000 fixdfsi.c
00000000 l    df *ABS*	00000000 floatsidf.c
00000000 l    df *ABS*	00000000 libgcc2.c
00000000 l    df *ABS*	00000000 libgcc2.c
00000000 l    df *ABS*	00000000 memcpy.c
00000000 l    df *ABS*	00000000 rand.c
00000000 l    df *ABS*	00000000 impure.c
0081226c l     O .rwdata	00000424 impure_data
00000000 l    df *ABS*	00000000 libgcc2.c
00000000 l    df *ABS*	00000000 alt_main.c
00000000 l    df *ABS*	00000000 alt_usleep.c
00000000 l    df *ABS*	00000000 alt_env_lock.c
00813978 l     O .rwdata	00000004 lockid
00813a38 l     O .bss	00000004 locks
00000000 l    df *ABS*	00000000 alt_malloc_lock.c
0081397c l     O .rwdata	00000004 lockid
00813a40 l     O .bss	00000004 locks
00000000 l    df *ABS*	00000000 os_core.c
00807618 l     F .text	00000044 OS_InitMisc
0080765c l     F .text	00000068 OS_InitRdyList
008077bc l     F .text	000000e0 OS_InitTCBList
0080753c l     F .text	000000dc OS_InitEventList
008076c4 l     F .text	0000007c OS_InitTaskIdle
00807740 l     F .text	0000007c OS_InitTaskStat
00807a1c l     F .text	00000070 OS_SchedNew
00000000 l    df *ABS*	00000000 os_dbg.c
00000000 l    df *ABS*	00000000 os_flag.c
00809810 l     F .text	00000110 OS_FlagTaskRdy
00809568 l     F .text	000001c4 OS_FlagBlock
00000000 l    df *ABS*	00000000 os_mem.c
00000000 l    df *ABS*	00000000 os_q.c
00000000 l    df *ABS*	00000000 os_sem.c
00000000 l    df *ABS*	00000000 os_task.c
00000000 l    df *ABS*	00000000 os_time.c
00000000 l    df *ABS*	00000000 alt_sys_init.c
0080dce0 l     F .text	00000038 alt_dev_reg
00812690 l     O .rwdata	0000106c jtag
008136fc l     O .rwdata	000000cc flash
00000000 l    df *ABS*	00000000 altera_avalon_epcs_flash_controller.c
0080ddbc l     F .text	00000038 alt_flash_device_register
0080de48 l     F .text	00000290 alt_epcs_flash_query
0080e0d8 l     F .text	000000e8 alt_epcs_flash_memcmp
0080e4ac l     F .text	00000094 alt_epcs_test_address
00000000 l    df *ABS*	00000000 altera_avalon_jtag_uart_fd.c
00000000 l    df *ABS*	00000000 altera_avalon_jtag_uart_init.c
0080e9fc l     F .text	000002a4 altera_avalon_jtag_uart_irq
0080eca0 l     F .text	00000110 altera_avalon_jtag_uart_timeout
00000000 l    df *ABS*	00000000 altera_avalon_jtag_uart_ioctl.c
00000000 l    df *ABS*	00000000 altera_avalon_jtag_uart_read.c
00000000 l    df *ABS*	00000000 altera_avalon_jtag_uart_write.c
00000000 l    df *ABS*	00000000 altera_avalon_spi.c
00000000 l    df *ABS*	00000000 altera_avalon_timer_sc.c
0080f67c l     F .text	00000074 alt_avalon_timer_sc_irq
00000000 l    df *ABS*	00000000 epcs_commands.c
0080f7d4 l     F .text	00000038 epcs_test_wip
0080f80c l     F .text	00000038 epcs_await_wip_released
00000000 l    df *ABS*	00000000 alt_alarm_start.c
00000000 l    df *ABS*	00000000 alt_busy_sleep.c
00000000 l    df *ABS*	00000000 alt_close.c
0081003c l     F .text	00000050 alt_get_errno
00000000 l    df *ABS*	00000000 alt_dev.c
00810164 l     F .text	0000002c alt_dev_null_write
00000000 l    df *ABS*	00000000 alt_dev_llist_insert.c
00810190 l     F .text	00000050 alt_get_errno
00000000 l    df *ABS*	00000000 alt_do_ctors.c
00000000 l    df *ABS*	00000000 alt_do_dtors.c
00000000 l    df *ABS*	00000000 alt_errno.c
00000000 l    df *ABS*	00000000 alt_flash_dev.c
00000000 l    df *ABS*	00000000 alt_iic.c
00000000 l    df *ABS*	00000000 alt_iic_isr_register.c
00000000 l    df *ABS*	00000000 alt_io_redirect.c
008106c4 l     F .text	000000e0 alt_open_fd
00000000 l    df *ABS*	00000000 alt_irq_vars.c
00000000 l    df *ABS*	00000000 alt_open.c
0081081c l     F .text	00000050 alt_get_errno
0081086c l     F .text	000000f4 alt_file_locked
00000000 l    df *ABS*	00000000 alt_release_fd.c
00000000 l    df *ABS*	00000000 alt_tick.c
00000000 l    df *ABS*	00000000 altera_nios2_qsys_irq.c
00000000 l    df *ABS*	00000000 os_cpu_a.o
00000040 l       *ABS*	00000000 OSCtxSw_SWITCH_PC
00000000 l    df *ABS*	00000000 os_cpu_c.c
00000014 l       *ABS*	00000000 OSTCBNext_OFFSET
00000032 l       *ABS*	00000000 OSTCBPrio_OFFSET
00000000 l       *ABS*	00000000 OSTCBStkPtr_OFFSET
00000000 l    df *ABS*	00000000 alt_find_dev.c
00000000 l    df *ABS*	00000000 alt_find_file.c
00000000 l    df *ABS*	00000000 alt_get_fd.c
00000000 l    df *ABS*	00000000 atexit.c
00000000 l    df *ABS*	00000000 exit.c
00000000 l    df *ABS*	00000000 int_errno.c
00000000 l    df *ABS*	00000000 memcmp.c
00000000 l    df *ABS*	00000000 memset.c
00000000 l    df *ABS*	00000000 strlen.c
00000000 l    df *ABS*	00000000 __atexit.c
00000000 l    df *ABS*	00000000 __call_atexit.c
00000000 l    df *ABS*	00000000 alt_exit.c
00801700 g     F .text	00000074 vid_draw_horiz_line
008139ca g     O .rwdata	00000002 OSTaskNameSize
0080e420 g     F .text	0000008c alt_epcs_flash_get_info
00805b30 g     F .text	000000d4 alt_main
00816d14 g     O .bss	00000100 alt_irq
0080a074 g     F .text	000000dc OS_MemInit
0080dc7c g     F .text	00000064 OSTimeSet
00804414 g     F .text	00000084 .hidden __eqdf2
00806294 g     F .text	00000610 OSEventPendMulti
008110c0 g     F .text	00000020 OSTaskCreateHook
008139a2 g     O .rwdata	00000002 OSMboxEn
008068f8 g     F .text	0000007c OSIntEnter
008139b2 g     O .rwdata	00000002 OSQEn
01001800 g       *ABS*	00000000 __alt_mem_flash
00800350 g     F .text	000000a0 LCD_ReadData
00805f68 g     F .text	000000d0 __malloc_unlock
0081111c g     F .text	0000001c OSTaskStatHook
00813a48 g     O .bss	00000001 OSLockNesting
008139f0 g     O .rwdata	00000002 OSDataSize
00813a49 g     O .bss	00000001 OSRunning
00801524 g     F .text	000000d0 GUI_Text
00811154 g     F .text	0000001c OSInitHookBegin
008139e8 g     O .rwdata	00000002 OSTmrSize
00813a4c g     O .bss	00000004 OSIdleCtr
00804498 g     F .text	000000e0 .hidden __gtdf2
00810da8 g       .text	00000000 OSStartTsk
00000000  w      *UND*	00000000 __errno
00807d44 g     F .text	000002d4 OS_TCBInit
0080f844 g     F .text	000000f8 epcs_sector_erase
01001800 g     F .entry	00000000 __reset
008139ee g     O .rwdata	00000002 OSTmrWheelTblSize
00800c94 g     F .text	00000118 LCD_Clear
0081398e g     O .rwdata	00000002 OSEventSize
00813a50 g     O .bss	00000001 OSPrioHighRdy
00801b2c g     F .text	0000003c TP_Init
008110e0 g     F .text	00000020 OSTaskDelHook
00813aa8 g     O .bss	00000004 errno
00810d88 g       .text	00000000 OSStartHighRdy
0080c564 g     F .text	000001ec OSTaskCreateExt
008090b4 g     F .text	00000068 OSFlagPendGetFlagsRdy
008139ce g     O .rwdata	00000002 OSTaskStatStkSize
008081a4 g     F .text	00000308 OSFlagAccept
0080a754 g     F .text	000000b8 OSQFlush
0080a150 g     F .text	00000140 OSQAccept
00813a30 g     O .bss	00000004 alt_argv
0081b970 g       *ABS*	00000000 _gp
00805c04 g     F .text	00000128 usleep
0080c3a8 g     F .text	000001bc OSTaskCreate
0080be68 g     F .text	00000540 OSTaskChangePrio
00813a44 g     O .bss	00000004 alt_heapsem
00808018 g     F .text	0000018c OSDebugInit
0080c750 g     F .text	000003e0 OSTaskDel
008137f0 g     O .rwdata	00000180 alt_fd_list
00813af0 g     O .bss	00000370 OSFlagTbl
00800608 g     F .text	0000068c LCD_Initializtion
00807328 g     F .text	000000b4 OS_EventTaskRemove
0080fa80 g     F .text	00000068 epcs_write_status_register
008111c8 g     F .text	00000090 alt_find_dev
00805870 g     F .text	00000138 memcpy
008139b8 g     O .rwdata	00000002 OSRdyTblSize
0080573c g     F .text	000000d0 .hidden __floatsidf
008107a4 g     F .text	00000078 alt_io_redirect
008119e8 g       *ABS*	00000000 __DTOR_END__
00806038 g     F .text	00000120 OSEventNameGet
0081399c g     O .rwdata	00000002 OSFlagMax
0080e5b4 g     F .text	00000100 alt_epcs_flash_write_block
00806974 g     F .text	000000f4 OSIntExit
008001f4 g     F .text	00000064 GetASCIICode
008139d6 g     O .rwdata	00000002 OSTCBSize
00813a51 g     O .bss	00000001 OSPrioCur
0080ef04 g     F .text	000002b4 altera_avalon_jtag_uart_read
00801154 g     F .text	000002a0 LCD_DrawLine
00000000  w      *UND*	00000000 malloc
008031c0 g     F .text	00000008 .hidden __udivsi3
008139bc g     O .rwdata	00000002 OSStkWidth
008139b0 g     O .rwdata	00000002 OSPtrSize
00813990 g     O .rwdata	00000002 OSEventTblSize
00803030 g     F .text	00000074 .hidden __fixunsdfsi
00810cfc g       .text	00000000 OSCtxSw
00813a54 g     O .bss	00000004 OSTCBList
00813a98 g     O .bss	00000004 alt_fd_list_lock
00813e60 g     O .bss	00000c30 OSMemTbl
00813a58 g     O .bss	00000001 OSTickStepState
008139b4 g     O .rwdata	00000002 OSQMax
00814a90 g     O .bss	00000800 OSTaskStatStk
00809ca4 g     F .text	000000f8 OSMemNameGet
00813994 g     O .rwdata	00000002 OSFlagEn
008139da g     O .rwdata	00000002 OSTimeTickHookEn
0080ac74 g     F .text	00000168 OSQPost
00809920 g     F .text	000000a0 OS_FlagUnlink
00813a04 g     O .rwdata	00000004 alt_max_fd
008078ec g     F .text	00000064 OS_MemCopy
00807950 g     F .text	000000cc OS_Sched
00809bb4 g     F .text	000000f0 OSMemGet
0080ce30 g     F .text	000001c0 OSTaskNameSet
00813a5c g     O .bss	00000004 OSCtxSwCtr
00811138 g     F .text	0000001c OSTimeTickHook
0081399e g     O .rwdata	00000002 OSFlagNameSize
008073dc g     F .text	000000fc OS_EventTaskRemoveMulti
008031f8 g     F .text	0000089c .hidden __adddf3
008071dc g     F .text	0000014c OS_EventTaskWaitMulti
0080e540 g     F .text	00000074 alt_epcs_flash_erase_block
008139b6 g     O .rwdata	00000002 OSQSize
0080b778 g     F .text	00000268 OSSemPend
00813970 g     O .rwdata	00000004 _global_impure_ptr
0080fd48 g     F .text	0000005c epcs_exit_4_bytes_mode
008139a0 g     O .rwdata	00000002 OSLowestPrio
00816e14 g       *ABS*	00000000 __bss_end
008105d4 g     F .text	000000f0 alt_iic_isr_register
00813a26 g     O .bss	00000004 display
008111a8 g     F .text	00000020 OSTCBInitHook
008139e6 g     O .rwdata	00000002 OSTmrCfgTicksPerSec
00810bd8 g     F .text	00000104 alt_tick
00801b68 g     F .text	00000030 DelayUS
00813988 g     O .rwdata	00000002 OSEventEn
008139e2 g     O .rwdata	00000002 OSTmrCfgNameSize
00801774 g     F .text	00000268 vid_draw_sloped_line
00801ea0 g     F .text	0000030c DrawCross
00810588 g     F .text	0000004c alt_ic_irq_enabled
008010dc g     F .text	00000078 LCD_SetPoint
0080972c g     F .text	000000e4 OS_FlagInit
00810b40 g     F .text	00000098 alt_alarm_stop
008139c4 g     O .rwdata	00000002 OSTaskIdleStkSize
00813a9c g     O .bss	00000004 alt_irq_active
0080b360 g     F .text	000000b0 OSSemAccept
00809eb4 g     F .text	000000d8 OSMemPut
008099c0 g     F .text	000001f4 OSMemCreate
00813a60 g     O .bss	00000004 OSIdleCtrMax
008000ec g     F .exceptions	000000d0 alt_irq_handler
008137c8 g     O .rwdata	00000028 alt_dev_null
008139d8 g     O .rwdata	00000002 OSTicksPerSec
00810cfc g       .text	00000000 OSIntCtxSw
008056b4 g     F .text	00000088 .hidden __fixdfsi
00802c08 g     F .text	000002f0 getDisplayPoint
00800dac g     F .text	00000144 LCD_show_test
00813a64 g     O .bss	00000004 OSTCBFreeList
0080b9e0 g     F .text	0000016c OSSemPendAbort
008139fc g     O .rwdata	00000008 alt_dev_list
008139dc g     O .rwdata	00000002 OSVersionNbr
00813984 g     O .rwdata	00000004 OSEndiannessTest
008031c8 g     F .text	00000008 .hidden __umodsi3
00801d20 g     F .text	00000068 Read_Y
0080fc04 g     F .text	00000068 epcs_read_electronic_signature
00813996 g     O .rwdata	00000002 OSFlagGrpSize
00816e14 g       *ABS*	00000000 end
0080e8b0 g     F .text	0000014c altera_avalon_jtag_uart_init
00807bb0 g     F .text	000000cc OS_TaskStat
008119e8 g       *ABS*	00000000 __CTOR_LIST__
01000000 g       *ABS*	00000000 __alt_stack_pointer
0080f6f0 g     F .text	00000088 alt_avalon_timer_sc_init
0080580c g     F .text	00000064 .hidden __clzsi2
0080f1b8 g     F .text	000002c0 altera_avalon_jtag_uart_write
008015f4 g     F .text	000000b8 vid_draw_line
0080789c g     F .text	00000050 OS_MemClr
00810dcc g     F .text	000002f4 OSTaskStkInit
00801d88 g     F .text	0000005c TP_GetAdXY
00801b98 g     F .text	00000054 WR_CMD
008004c0 g     F .text	00000148 LCD_SetCursor
00806f38 g     F .text	00000198 OS_EventTaskRdy
00811818 g     F .text	00000194 __call_exitprocs
00813a68 g     O .bss	00000001 OSCPUUsage
008001bc g     F .text	00000038 _start
00813aa0 g     O .bss	00000004 _alt_tick_rate
0080a80c g     F .text	000002fc OSQPend
0080d75c g     F .text	00000148 OSTimeDly
008059c0 g     F .text	00000064 rand
0080f478 g     F .text	00000204 alt_avalon_spi_command
00813aa4 g     O .bss	00000004 _alt_nticks
0080dd4c g     F .text	00000070 alt_sys_init
00802ef8 g     F .text	00000138 TouchPanel_Calibrate
00811704 g     F .text	00000114 __register_exitproc
00813a69 g     O .bss	00000001 OSTaskCtr
0080d8a4 g     F .text	00000184 OSTimeDlyHMSM
0080edb0 g     F .text	00000068 altera_avalon_jtag_uart_close
008031d0 g     F .text	00000028 .hidden __mulsi3
0081398a g     O .rwdata	00000002 OSEventMax
0080bb4c g     F .text	00000110 OSSemPost
0080f778 g     F .text	0000005c epcs_read_status_register
00806af0 g     F .text	000000d8 OSSchedUnlock
0080e74c g     F .text	00000060 altera_avalon_jtag_uart_read_fd
0081136c g     F .text	00000114 alt_get_fd
00813a6c g     O .bss	00000004 OSMemFreeList
00806c34 g     F .text	000000ac OSStatInit
0080fee4 g     F .text	00000158 alt_busy_sleep
008094a4 g     F .text	000000c4 OSFlagQuery
00800258 g     F .text	00000084 LCD_WriteIndex
008139c0 g     O .rwdata	00000002 OSTaskCreateExtEn
0080fc6c g     F .text	00000080 epcs_read_device_id
008114cc g     F .text	0000007c memcmp
00806f1c g     F .text	0000001c OS_Dummy
0080e80c g     F .text	00000050 altera_avalon_jtag_uart_close_fd
00816e14 g       *ABS*	00000000 __alt_stack_base
0080e85c g     F .text	00000054 altera_avalon_jtag_uart_ioctl_fd
00815290 g     O .bss	000001e0 OSQTbl
00803a94 g     F .text	00000980 .hidden __divdf3
00813a70 g     O .bss	00000004 OSTCBHighRdy
00804578 g     F .text	0000086c .hidden __muldf3
00813aac g     O .bss	0000000c ScreenSample
00813a74 g     O .bss	00000004 OSQFreeList
00811258 g     F .text	00000114 alt_find_file
008101e0 g     F .text	000000a4 alt_dev_llist_insert
00805e48 g     F .text	00000120 __malloc_lock
00806158 g     F .text	0000013c OSEventNameSet
00813a78 g     O .bss	00000001 OSRdyGrp
00813a0c g     O .rwdata	00000008 alt_flash_dev_list
00813a20 g       *ABS*	00000000 __bss_start
00811548 g     F .text	00000124 memset
00801a3c g     F .text	000000f0 main
008019dc g     F .text	00000060 delay_ms
00813a34 g     O .bss	00000004 alt_envp
0080e7ac g     F .text	00000060 altera_avalon_jtag_uart_write_fd
008059a8 g     F .text	00000018 srand
00812118 g     O .rodata	00000100 OSUnMapTbl
008139ba g     O .rwdata	00000002 OSSemEn
0080911c g     F .text	00000388 OSFlagPost
008070d0 g     F .text	0000010c OS_EventTaskWait
00807c7c g     F .text	000000c8 OS_TaskStatStkChk
0080cb30 g     F .text	00000158 OSTaskDelReq
00813a08 g     O .rwdata	00000004 alt_errno
00806bc8 g     F .text	0000006c OSStart
00805dec g     F .text	0000005c __env_unlock
0080cff0 g     F .text	000001f8 OSTaskResume
00809f8c g     F .text	000000e8 OSMemQuery
00813ab8 g     O .bss	00000038 matrix
008139cc g     O .rwdata	00000002 OSTaskStatEn
00812260 g     O .rwdata	0000000c DisplaySample
008139a6 g     O .rwdata	00000002 OSMemMax
0080addc g     F .text	00000170 OSQPostFront
00803110 g     F .text	00000054 .hidden __divsi3
00813a79 g     O .bss	00000003 OSRdyTbl
00813980 g     O .rwdata	00000002 OSDebugEn
008119e8 g       *ABS*	00000000 __CTOR_END__
00813998 g     O .rwdata	00000002 OSFlagNodeSize
008139e0 g     O .rwdata	00000002 OSTmrCfgMax
0080e1c0 g     F .text	00000260 alt_epcs_flash_write
0080a290 g     F .text	000001fc OSQCreate
0080cc88 g     F .text	000001a8 OSTaskNameGet
0080af4c g     F .text	0000020c OSQPostOpt
00806ce0 g     F .text	0000021c OSTimeTick
008139c8 g     O .rwdata	00000002 OSTaskMax
008119e8 g       *ABS*	00000000 __DTOR_LIST__
0080b410 g     F .text	00000100 OSSemCreate
008139ec g     O .rwdata	00000002 OSTmrWheelSize
00804414 g     F .text	00000084 .hidden __nedf2
008139c2 g     O .rwdata	00000002 OSTaskDelEn
0080bc5c g     F .text	00000110 OSSemQuery
0080a48c g     F .text	000002c8 OSQDel
0080ab08 g     F .text	0000016c OSQPendAbort
0080dd18 g     F .text	00000034 alt_irq_init
00810ac0 g     F .text	00000080 alt_release_fd
00812008 g     O .rodata	00000100 .hidden __clz_tab
00811480 g     F .text	00000014 atexit
00806a68 g     F .text	00000088 OSSchedLock
008003f0 g     F .text	0000006c LCD_WriteReg
008084ac g     F .text	00000128 OSFlagCreate
008013f4 g     F .text	00000130 PutChar
00813974 g     O .rwdata	00000004 _impure_ptr
00813a2c g     O .bss	00000004 alt_argc
008102e0 g     F .text	0000005c _do_dtors
00813992 g     O .rwdata	00000002 OSEventMultiEn
008085d4 g     F .text	00000270 OSFlagDel
00813a7c g     O .bss	00000004 OSEventFreeList
00800020 g       .exceptions	00000000 alt_irq_entry
00808ac4 g     F .text	000005f0 OSFlagPend
008139de g     O .rwdata	00000002 OSTmrEn
008002dc g     F .text	00000074 LCD_WriteData
008139f4 g     O .rwdata	00000008 alt_fs_list
00807a8c g     F .text	00000074 OS_StrCopy
00801de4 g     F .text	000000bc TP_DrawPoint
008139a8 g     O .rwdata	00000002 OSMemNameSize
00811170 g     F .text	0000001c OSInitHookEnd
008139d4 g     O .rwdata	00000002 OSTCBPrioTblMax
0080f93c g     F .text	000000f4 epcs_read_buffer
008139d0 g     O .rwdata	00000002 OSTaskStatStkChkEn
0080ddf4 g     F .text	00000054 alt_epcs_flash_init
008103f4 g     F .text	00000050 alt_ic_isr_register
008139a4 g     O .rwdata	00000002 OSMemEn
00801cb8 g     F .text	00000068 Read_X
008139ae g     O .rwdata	00000002 OSMutexEn
00813a20 g       *ABS*	00000000 _edata
00816e14 g       *ABS*	00000000 _end
0081033c g     F .text	00000068 alt_flash_open_dev
00813a80 g     O .bss	00000001 OSIntNesting
0080ee18 g     F .text	000000ec altera_avalon_jtag_uart_ioctl
0080da28 g     F .text	000001f0 OSTimeDlyResume
00808974 g     F .text	00000150 OSFlagNameSet
008024d4 g     F .text	00000734 setCalibrationMatrix
0080d1e8 g     F .text	000001c8 OSTaskStkChk
008104e4 g     F .text	000000a4 alt_ic_irq_disable
0080fcec g     F .text	0000005c epcs_enter_4_bytes_mode
008139aa g     O .rwdata	00000002 OSMemSize
00810cdc g     F .text	00000020 altera_nios2_qsys_irq_init
00813a84 g     O .bss	00000004 OSTCBCur
00811fd8 g     O .rodata	00000010 colorfol1
00811494 g     F .text	00000038 exit
008139ac g     O .rwdata	00000002 OSMemTblSize
008103a4 g     F .text	00000050 alt_flash_close_dev
00803164 g     F .text	0000005c .hidden __modsi3
00801bec g     F .text	000000cc RD_AD
01000000 g       *ABS*	00000000 __alt_data_end
00800020 g     F .exceptions	00000000 alt_exception
008068a4 g     F .text	00000054 OSInit
00800f68 g     F .text	00000174 LCD_GetPoint
00800000 g       *ABS*	00000000 __alt_mem_sdram
0080d5c4 g     F .text	0000012c OSTaskQuery
0080b2b4 g     F .text	000000ac OS_QInit
00807b00 g     F .text	00000054 OS_StrLen
00809d9c g     F .text	00000118 OSMemNameSet
008016ac g     F .text	00000054 vid_set_pixel
008139c6 g     O .rwdata	00000002 OSTaskProfileEn
00813a88 g     O .bss	00000004 OSTime
00815470 g     O .bss	00000800 OSTaskIdleStk
008119ac g     F .text	0000003c _exit
0080fda4 g     F .text	00000140 alt_alarm_start
00808844 g     F .text	00000130 OSFlagNameGet
0080dc18 g     F .text	00000064 OSTimeGet
00805a24 g     F .text	0000010c .hidden __muldi3
0081166c g     F .text	00000098 strlen
0080fa30 g     F .text	00000050 epcs_write_enable
00811100 g     F .text	0000001c OSTaskSwHook
00810960 g     F .text	00000160 open
00815c70 g     O .bss	00000b40 OSEventTbl
00804498 g     F .text	000000e0 .hidden __gedf2
008167b0 g     O .bss	00000510 OSTCBTbl
0080bd6c g     F .text	000000fc OSSemSet
008021ac g     F .text	00000328 Read_Ads7846
00813a14 g     O .rwdata	00000004 alt_priority_mask
0080b510 g     F .text	00000268 OSSemDel
00813a8c g     O .bss	00000004 OSFlagFreeList
00810444 g     F .text	000000a0 alt_ic_irq_enable
0081398c g     O .rwdata	00000002 OSEventNameSize
00813a90 g     O .bss	00000001 OSStatRdy
00816cc0 g     O .bss	00000054 OSTCBPrioTbl
00805d2c g     F .text	000000c0 __env_lock
008139d2 g     O .rwdata	00000002 OSTaskSwHookEn
00804de4 g     F .text	000008d0 .hidden __subdf3
0080e6b4 g     F .text	00000098 alt_epcs_flash_read
00813a18 g     O .rwdata	00000008 alt_alarm_list
0081399a g     O .rwdata	00000002 OSFlagWidth
00810284 g     F .text	0000005c _do_ctors
0081008c g     F .text	000000d8 close
00813a3c g     O .bss	00000004 alt_envsem
00813a94 g     O .bss	00000004 OSIdleCtrRun
0080045c g     F .text	00000064 LCD_ReadReg
00806efc g     F .text	00000020 OSVersion
008139e4 g     O .rwdata	00000002 OSTmrCfgWheelSize
0080d6f0 g     F .text	0000006c OS_TaskStkClr
008139be g     O .rwdata	00000002 OSTaskCreateEn
008074d8 g     F .text	00000064 OS_EventWaitListInit
00800ef0 g     F .text	00000078 LCD_BGR2RGB
0081118c g     F .text	0000001c OSTaskIdleHook
00000000  w      *UND*	00000000 free
0080fae8 g     F .text	0000011c epcs_write_buffer
0080d3b0 g     F .text	00000214 OSTaskSuspend
00807b54 g     F .text	0000005c OS_TaskIdle
008139ea g     O .rwdata	00000002 OSTmrTblSize
0080b158 g     F .text	0000015c OSQQuery



Disassembly of section .exceptions:

00800020 <alt_exception>:

#else /* ALT_EXCEPTION_STACK disabled */
        /* 
         * Reserve space on normal stack for registers about to be pushed.
         */
        addi  sp, sp, -76
  800020:	deffed04 	addi	sp,sp,-76
         * documentation for details).
         *
         * Leave a gap in the stack frame at 4(sp) for the muldiv handler to
         * store zero into.
         */
        stw   ra,  0(sp)
  800024:	dfc00015 	stw	ra,0(sp)
        stw   r1,   8(sp)
  800028:	d8400215 	stw	at,8(sp)
        stw   r2,  12(sp)
  80002c:	d8800315 	stw	r2,12(sp)
        stw   r3,  16(sp)
  800030:	d8c00415 	stw	r3,16(sp)
        stw   r4,  20(sp)
  800034:	d9000515 	stw	r4,20(sp)
        stw   r5,  24(sp)
  800038:	d9400615 	stw	r5,24(sp)
        stw   r6,  28(sp)
  80003c:	d9800715 	stw	r6,28(sp)
        stw   r7,  32(sp)
  800040:	d9c00815 	stw	r7,32(sp)
        rdctl r5, estatus   /* Read early to avoid usage stall */
  800044:	000b307a 	rdctl	r5,estatus
        stw   r8,  36(sp)
  800048:	da000915 	stw	r8,36(sp)
        stw   r9,  40(sp)
  80004c:	da400a15 	stw	r9,40(sp)
        stw   r10, 44(sp)
  800050:	da800b15 	stw	r10,44(sp)
        stw   r11, 48(sp)
  800054:	dac00c15 	stw	r11,48(sp)
        stw   r12, 52(sp)
  800058:	db000d15 	stw	r12,52(sp)
        stw   r13, 56(sp)
  80005c:	db400e15 	stw	r13,56(sp)
        stw   r14, 60(sp)
  800060:	db800f15 	stw	r14,60(sp)
        stw   r15, 64(sp)
  800064:	dbc01015 	stw	r15,64(sp)
        /*
         * ea-4 contains the address of the instruction being executed
         * when the exception occured. For interrupt exceptions, we will
         * will be re-issue the isntruction. Store it in 72(sp)
         */
        stw   r5,  68(sp)  /* estatus */
  800068:	d9401115 	stw	r5,68(sp)
        addi  r15, ea, -4  /* instruction that caused exception */
  80006c:	ebffff04 	addi	r15,ea,-4
        stw   r15,  72(sp)
  800070:	dbc01215 	stw	r15,72(sp)
#else
        /*
         * Test to see if the exception was a software exception or caused 
         * by an external interrupt, and vector accordingly.
         */
        rdctl r4, ipending
  800074:	0009313a 	rdctl	r4,ipending
        andi  r2, r5, 1
  800078:	2880004c 	andi	r2,r5,1
        beq   r2, zero, .Lnot_irq
  80007c:	10000326 	beq	r2,zero,80008c <alt_exception+0x6c>
        beq   r4, zero, .Lnot_irq
  800080:	20000226 	beq	r4,zero,80008c <alt_exception+0x6c>
        /*
         * Now that all necessary registers have been preserved, call 
         * alt_irq_handler() to process the interrupts.
         */

        call alt_irq_handler
  800084:	08000ec0 	call	8000ec <alt_irq_handler>

        .section .exceptions.irqreturn, "xa"

        br    .Lexception_exit
  800088:	00000306 	br	800098 <alt_exception_unknown+0x4>
         * upon completion, so we write ea (address of instruction *after*
         * the one where the exception occured) into 72(sp). The actual
         * instruction that caused the exception is written in r2, which these
         * handlers will utilize.
         */
        stw   ea,  72(sp)  /* Don't re-issue */
  80008c:	df401215 	stw	ea,72(sp)
        ldw   r2, -4(ea)   /* Instruction that caused exception */
  800090:	e8bfff17 	ldw	r2,-4(ea)

00800094 <alt_exception_unknown>:
#ifdef NIOS2_HAS_DEBUG_STUB
       /*
        *  Either tell the user now (if there is a debugger attached) or go into
        *  the debug monitor which will loop until a debugger is attached.
        */
        break
  800094:	003da03a 	break	0
        /* 
         * Restore the saved registers, so that all general purpose registers 
         * have been restored to their state at the time the interrupt occured.
         */

        ldw   r5,  68(sp)
  800098:	d9401117 	ldw	r5,68(sp)
        ldw   ea,  72(sp)  /* This becomes the PC once eret is executed */
  80009c:	df401217 	ldw	ea,72(sp)
        ldw   ra,   0(sp)
  8000a0:	dfc00017 	ldw	ra,0(sp)

        wrctl estatus, r5
  8000a4:	2801707a 	wrctl	estatus,r5

        ldw   r1,   8(sp)
  8000a8:	d8400217 	ldw	at,8(sp)
        ldw   r2,  12(sp)
  8000ac:	d8800317 	ldw	r2,12(sp)
        ldw   r3,  16(sp)
  8000b0:	d8c00417 	ldw	r3,16(sp)
        ldw   r4,  20(sp)
  8000b4:	d9000517 	ldw	r4,20(sp)
        ldw   r5,  24(sp)
  8000b8:	d9400617 	ldw	r5,24(sp)
        ldw   r6,  28(sp)
  8000bc:	d9800717 	ldw	r6,28(sp)
        ldw   r7,  32(sp)
  8000c0:	d9c00817 	ldw	r7,32(sp)

#if defined(ALT_EXCEPTION_STACK) && defined(ALT_STACK_CHECK)
        ldw   et, %gprel(alt_exception_old_stack_limit)(gp)
#endif

        ldw   r8,  36(sp)
  8000c4:	da000917 	ldw	r8,36(sp)
        ldw   r9,  40(sp)
  8000c8:	da400a17 	ldw	r9,40(sp)
        ldw   r10, 44(sp)
  8000cc:	da800b17 	ldw	r10,44(sp)
        ldw   r11, 48(sp)
  8000d0:	dac00c17 	ldw	r11,48(sp)
        ldw   r12, 52(sp)
  8000d4:	db000d17 	ldw	r12,52(sp)
        ldw   r13, 56(sp)
  8000d8:	db400e17 	ldw	r13,56(sp)
        ldw   r14, 60(sp)
  8000dc:	db800f17 	ldw	r14,60(sp)
        ldw   r15, 64(sp)
  8000e0:	dbc01017 	ldw	r15,64(sp)
        stw   et, %gprel(alt_stack_limit_value)(gp)
        stw   zero, %gprel(alt_exception_old_stack_limit)(gp)
#endif /* ALT_STACK_CHECK */
        ldw   sp,  76(sp)
#else /* ALT_EXCEPTION_STACK disabled */
        addi  sp, sp, 76
  8000e4:	dec01304 	addi	sp,sp,76

        /*
         * Return to the interrupted instruction.
         */

        eret
  8000e8:	ef80083a 	eret

008000ec <alt_irq_handler>:
 * instruction is present if the macro ALT_CI_INTERRUPT_VECTOR defined.
 */

void alt_irq_handler (void) __attribute__ ((section (".exceptions")));
void alt_irq_handler (void)
{
  8000ec:	defff904 	addi	sp,sp,-28
  8000f0:	dfc00615 	stw	ra,24(sp)
  8000f4:	df000515 	stw	fp,20(sp)
  8000f8:	df000504 	addi	fp,sp,20
  
  /*
   * Notify the operating system that we are at interrupt level.
   */ 
  
  ALT_OS_INT_ENTER();
  8000fc:	08068f80 	call	8068f8 <OSIntEnter>
#ifndef NIOS2_EIC_PRESENT
static ALT_INLINE alt_u32 ALT_ALWAYS_INLINE alt_irq_pending (void)
{
  alt_u32 active;

  NIOS2_READ_IPENDING (active);
  800100:	0005313a 	rdctl	r2,ipending
  800104:	e0bffe15 	stw	r2,-8(fp)

  return active;
  800108:	e0bffe17 	ldw	r2,-8(fp)
   * Consider the case where the high priority interupt is asserted during
   * the interrupt entry sequence for a lower priority interrupt to see why
   * this is the case.
   */

  active = alt_irq_pending ();
  80010c:	e0bffb15 	stw	r2,-20(fp)

  do
  {
    i = 0;
  800110:	e03ffd15 	stw	zero,-12(fp)
    mask = 1;
  800114:	00800044 	movi	r2,1
  800118:	e0bffc15 	stw	r2,-16(fp)
     * called to clear the interrupt condition.
     */

    do
    {
      if (active & mask)
  80011c:	e0fffb17 	ldw	r3,-20(fp)
  800120:	e0bffc17 	ldw	r2,-16(fp)
  800124:	1884703a 	and	r2,r3,r2
  800128:	10001426 	beq	r2,zero,80017c <alt_irq_handler+0x90>
      { 
#ifdef ALT_ENHANCED_INTERRUPT_API_PRESENT
        alt_irq[i].handler(alt_irq[i].context); 
  80012c:	00802074 	movhi	r2,129
  800130:	109b4504 	addi	r2,r2,27924
  800134:	e0fffd17 	ldw	r3,-12(fp)
  800138:	180690fa 	slli	r3,r3,3
  80013c:	10c5883a 	add	r2,r2,r3
  800140:	10c00017 	ldw	r3,0(r2)
  800144:	00802074 	movhi	r2,129
  800148:	109b4504 	addi	r2,r2,27924
  80014c:	e13ffd17 	ldw	r4,-12(fp)
  800150:	200890fa 	slli	r4,r4,3
  800154:	1105883a 	add	r2,r2,r4
  800158:	10800104 	addi	r2,r2,4
  80015c:	10800017 	ldw	r2,0(r2)
  800160:	1009883a 	mov	r4,r2
  800164:	183ee83a 	callr	r3
#else
        alt_irq[i].handler(alt_irq[i].context, i); 
#endif
        break;
  800168:	0001883a 	nop
#ifndef NIOS2_EIC_PRESENT
static ALT_INLINE alt_u32 ALT_ALWAYS_INLINE alt_irq_pending (void)
{
  alt_u32 active;

  NIOS2_READ_IPENDING (active);
  80016c:	0005313a 	rdctl	r2,ipending
  800170:	e0bfff15 	stw	r2,-4(fp)

  return active;
  800174:	e0bfff17 	ldw	r2,-4(fp)
  800178:	00000706 	br	800198 <alt_irq_handler+0xac>
      }
      mask <<= 1;
  80017c:	e0bffc17 	ldw	r2,-16(fp)
  800180:	1085883a 	add	r2,r2,r2
  800184:	e0bffc15 	stw	r2,-16(fp)
      i++;
  800188:	e0bffd17 	ldw	r2,-12(fp)
  80018c:	10800044 	addi	r2,r2,1
  800190:	e0bffd15 	stw	r2,-12(fp)

    } while (1);
  800194:	003fe106 	br	80011c <__reset+0xff7fe91c>

    active = alt_irq_pending ();
  800198:	e0bffb15 	stw	r2,-20(fp)
    
  } while (active);
  80019c:	e0bffb17 	ldw	r2,-20(fp)
  8001a0:	103fdb1e 	bne	r2,zero,800110 <__reset+0xff7fe910>

  /*
   * Notify the operating system that interrupt processing is complete.
   */ 

  ALT_OS_INT_EXIT();
  8001a4:	08069740 	call	806974 <OSIntExit>
}
  8001a8:	e037883a 	mov	sp,fp
  8001ac:	dfc00117 	ldw	ra,4(sp)
  8001b0:	df000017 	ldw	fp,0(sp)
  8001b4:	dec00204 	addi	sp,sp,8
  8001b8:	f800283a 	ret

Disassembly of section .text:

008001bc <_start>:

    /*
     * Now that the caches are initialized, set up the stack pointer and global pointer.
     * The values provided by the linker are assumed to be correctly aligned.
     */
    movhi sp, %hi(__alt_stack_pointer)
  8001bc:	06c04034 	movhi	sp,256
    ori sp, sp, %lo(__alt_stack_pointer)
  8001c0:	dec00014 	ori	sp,sp,0
    movhi gp, %hi(_gp)
  8001c4:	06802074 	movhi	gp,129
    ori gp, gp, %lo(_gp)
  8001c8:	d6ae5c14 	ori	gp,gp,47472
 */
#ifndef ALT_SIM_OPTIMIZE
    /* Log that the BSS is about to be cleared. */
    ALT_LOG_PUTS(alt_log_msg_bss)

    movhi r2, %hi(__bss_start)
  8001cc:	00802074 	movhi	r2,129
    ori r2, r2, %lo(__bss_start)
  8001d0:	108e8814 	ori	r2,r2,14880

    movhi r3, %hi(__bss_end)
  8001d4:	00c02074 	movhi	r3,129
    ori r3, r3, %lo(__bss_end)
  8001d8:	18db8514 	ori	r3,r3,28180

    beq r2, r3, 1f
  8001dc:	10c00326 	beq	r2,r3,8001ec <_start+0x30>

0:
    stw zero, (r2)
  8001e0:	10000015 	stw	zero,0(r2)
    addi r2, r2, 4
  8001e4:	10800104 	addi	r2,r2,4
    bltu r2, r3, 0b
  8001e8:	10fffd36 	bltu	r2,r3,8001e0 <__reset+0xff7fe9e0>

    /* Log that alt_main is about to be called. */
    ALT_LOG_PUTS(alt_log_msg_alt_main)

    /* Call the C entry point. It should never return. */
    call alt_main
  8001ec:	0805b300 	call	805b30 <alt_main>

008001f0 <alt_after_alt_main>:

    /* Wait in infinite loop in case alt_main does return. */
alt_after_alt_main:
    br alt_after_alt_main
  8001f0:	003fff06 	br	8001f0 <__reset+0xff7fe9f0>

008001f4 <GetASCIICode>:
* Output         : 
* Return         : None
* Attention      : None
*******************************************************************************/
void GetASCIICode(unsigned char* pBuffer,unsigned char ASCII)
{  
  8001f4:	defffc04 	addi	sp,sp,-16
  8001f8:	dfc00315 	stw	ra,12(sp)
  8001fc:	df000215 	stw	fp,8(sp)
  800200:	df000204 	addi	fp,sp,8
  800204:	e13ffe15 	stw	r4,-8(fp)
  800208:	2805883a 	mov	r2,r5
  80020c:	e0bfff05 	stb	r2,-4(fp)
   memcpy(pBuffer,AsciiLib[(ASCII - 32)] ,16);
  800210:	e0bfff03 	ldbu	r2,-4(fp)
  800214:	10bff804 	addi	r2,r2,-32
  800218:	1006913a 	slli	r3,r2,4
  80021c:	00802074 	movhi	r2,129
  800220:	10867a04 	addi	r2,r2,6632
  800224:	1885883a 	add	r2,r3,r2
  800228:	e0fffe17 	ldw	r3,-8(fp)
  80022c:	1809883a 	mov	r4,r3
  800230:	1007883a 	mov	r3,r2
  800234:	00800404 	movi	r2,16
  800238:	180b883a 	mov	r5,r3
  80023c:	100d883a 	mov	r6,r2
  800240:	08058700 	call	805870 <memcpy>
}
  800244:	e037883a 	mov	sp,fp
  800248:	dfc00117 	ldw	ra,4(sp)
  80024c:	df000017 	ldw	fp,0(sp)
  800250:	dec00204 	addi	sp,sp,8
  800254:	f800283a 	ret

00800258 <LCD_WriteIndex>:
* Output         : None
* Return         : None
* Attention      : None
*******************************************************************************/
__inline void LCD_WriteIndex(alt_u16 index)
{
  800258:	defffe04 	addi	sp,sp,-8
  80025c:	df000115 	stw	fp,4(sp)
  800260:	df000104 	addi	fp,sp,4
  800264:	2005883a 	mov	r2,r4
  800268:	e0bfff0d 	sth	r2,-4(fp)
    Clr_Rs;
  80026c:	0007883a 	mov	r3,zero
  800270:	00804034 	movhi	r2,256
  800274:	10882c04 	addi	r2,r2,8368
  800278:	10c00035 	stwio	r3,0(r2)
    Set_nRd;
  80027c:	00c00044 	movi	r3,1
  800280:	00804034 	movhi	r2,256
  800284:	10881804 	addi	r2,r2,8288
  800288:	10c00035 	stwio	r3,0(r2)
    
    IOWR_ALTERA_AVALON_PIO_DIRECTION(LCD32_DATA_BASE, 0XFFFF) ;  /* GPIO_Write(GPIOE,index); */
  80028c:	00ffffd4 	movui	r3,65535
  800290:	00804034 	movhi	r2,256
  800294:	10881d04 	addi	r2,r2,8308
  800298:	10c00035 	stwio	r3,0(r2)
    IOWR_ALTERA_AVALON_PIO_DATA(LCD32_DATA_BASE, index);
  80029c:	e0ffff0b 	ldhu	r3,-4(fp)
  8002a0:	00804034 	movhi	r2,256
  8002a4:	10881c04 	addi	r2,r2,8304
  8002a8:	10c00035 	stwio	r3,0(r2)
    
    Clr_nWr;
  8002ac:	0007883a 	mov	r3,zero
  8002b0:	00804034 	movhi	r2,256
  8002b4:	10882004 	addi	r2,r2,8320
  8002b8:	10c00035 	stwio	r3,0(r2)
    Set_nWr;
  8002bc:	00c00044 	movi	r3,1
  8002c0:	00804034 	movhi	r2,256
  8002c4:	10882004 	addi	r2,r2,8320
  8002c8:	10c00035 	stwio	r3,0(r2)
}
  8002cc:	e037883a 	mov	sp,fp
  8002d0:	df000017 	ldw	fp,0(sp)
  8002d4:	dec00104 	addi	sp,sp,4
  8002d8:	f800283a 	ret

008002dc <LCD_WriteData>:
* Output         : None
* Return         : None
* Attention      : None
*******************************************************************************/
__inline void LCD_WriteData(alt_u16 data)
{
  8002dc:	defffe04 	addi	sp,sp,-8
  8002e0:	df000115 	stw	fp,4(sp)
  8002e4:	df000104 	addi	fp,sp,4
  8002e8:	2005883a 	mov	r2,r4
  8002ec:	e0bfff0d 	sth	r2,-4(fp)
    Set_Rs;
  8002f0:	00c00044 	movi	r3,1
  8002f4:	00804034 	movhi	r2,256
  8002f8:	10882c04 	addi	r2,r2,8368
  8002fc:	10c00035 	stwio	r3,0(r2)
    
    IOWR_ALTERA_AVALON_PIO_DIRECTION(LCD32_DATA_BASE, 0XFFFF) ;  /* GPIO_Write(GPIOE,index); */
  800300:	00ffffd4 	movui	r3,65535
  800304:	00804034 	movhi	r2,256
  800308:	10881d04 	addi	r2,r2,8308
  80030c:	10c00035 	stwio	r3,0(r2)
    IOWR_ALTERA_AVALON_PIO_DATA(LCD32_DATA_BASE, data);
  800310:	e0ffff0b 	ldhu	r3,-4(fp)
  800314:	00804034 	movhi	r2,256
  800318:	10881c04 	addi	r2,r2,8304
  80031c:	10c00035 	stwio	r3,0(r2)
    
    Clr_nWr;
  800320:	0007883a 	mov	r3,zero
  800324:	00804034 	movhi	r2,256
  800328:	10882004 	addi	r2,r2,8320
  80032c:	10c00035 	stwio	r3,0(r2)
    Set_nWr;
  800330:	00c00044 	movi	r3,1
  800334:	00804034 	movhi	r2,256
  800338:	10882004 	addi	r2,r2,8320
  80033c:	10c00035 	stwio	r3,0(r2)
}
  800340:	e037883a 	mov	sp,fp
  800344:	df000017 	ldw	fp,0(sp)
  800348:	dec00104 	addi	sp,sp,4
  80034c:	f800283a 	ret

00800350 <LCD_ReadData>:
* Output         : None
* Return         : 
* Attention      : None
*******************************************************************************/
__inline alt_u16 LCD_ReadData(void)
{
  800350:	defffe04 	addi	sp,sp,-8
  800354:	df000115 	stw	fp,4(sp)
  800358:	df000104 	addi	fp,sp,4
    alt_u16 value;

    Set_Rs;
  80035c:	00c00044 	movi	r3,1
  800360:	00804034 	movhi	r2,256
  800364:	10882c04 	addi	r2,r2,8368
  800368:	10c00035 	stwio	r3,0(r2)
    Set_nWr;
  80036c:	00c00044 	movi	r3,1
  800370:	00804034 	movhi	r2,256
  800374:	10882004 	addi	r2,r2,8320
  800378:	10c00035 	stwio	r3,0(r2)
    Clr_nRd;
  80037c:	0007883a 	mov	r3,zero
  800380:	00804034 	movhi	r2,256
  800384:	10881804 	addi	r2,r2,8288
  800388:	10c00035 	stwio	r3,0(r2)
    GPIO_InitStructure.GPIO_Pin = GPIO_Pin_All;
    GPIO_InitStructure.GPIO_Speed = GPIO_Speed_50MHz;
    GPIO_InitStructure.GPIO_Mode = GPIO_Mode_IN_FLOATING;
    GPIO_Init(GPIOE, &GPIO_InitStructure);
*/
    IOWR_ALTERA_AVALON_PIO_DIRECTION(LCD32_DATA_BASE, 0X0000) ;  /* GPIO_Write(GPIOE,index); */
  80038c:	0007883a 	mov	r3,zero
  800390:	00804034 	movhi	r2,256
  800394:	10881d04 	addi	r2,r2,8308
  800398:	10c00035 	stwio	r3,0(r2)
    value=IORD_ALTERA_AVALON_PIO_DATA(LCD32_DATA_BASE);
  80039c:	00804034 	movhi	r2,256
  8003a0:	10881c04 	addi	r2,r2,8304
  8003a4:	10800037 	ldwio	r2,0(r2)
  8003a8:	e0bfff0d 	sth	r2,-4(fp)
     value=IORD_ALTERA_AVALON_PIO_DATA(LCD32_DATA_BASE);
  8003ac:	00804034 	movhi	r2,256
  8003b0:	10881c04 	addi	r2,r2,8304
  8003b4:	10800037 	ldwio	r2,0(r2)
  8003b8:	e0bfff0d 	sth	r2,-4(fp)
    
    IOWR_ALTERA_AVALON_PIO_DIRECTION(LCD32_DATA_BASE, 0XFFFF) ;
  8003bc:	00ffffd4 	movui	r3,65535
  8003c0:	00804034 	movhi	r2,256
  8003c4:	10881d04 	addi	r2,r2,8308
  8003c8:	10c00035 	stwio	r3,0(r2)

    Set_nRd;
  8003cc:	00c00044 	movi	r3,1
  8003d0:	00804034 	movhi	r2,256
  8003d4:	10881804 	addi	r2,r2,8288
  8003d8:	10c00035 	stwio	r3,0(r2)

    return value;
  8003dc:	e0bfff0b 	ldhu	r2,-4(fp)
}
  8003e0:	e037883a 	mov	sp,fp
  8003e4:	df000017 	ldw	fp,0(sp)
  8003e8:	dec00104 	addi	sp,sp,4
  8003ec:	f800283a 	ret

008003f0 <LCD_WriteReg>:
* Output         : None
* Return         : None
* Attention      : None
*******************************************************************************/
__inline void LCD_WriteReg(alt_u16 LCD_Reg,alt_u16 LCD_RegValue)
{ 
  8003f0:	defffc04 	addi	sp,sp,-16
  8003f4:	dfc00315 	stw	ra,12(sp)
  8003f8:	df000215 	stw	fp,8(sp)
  8003fc:	df000204 	addi	fp,sp,8
  800400:	2007883a 	mov	r3,r4
  800404:	2805883a 	mov	r2,r5
  800408:	e0fffe0d 	sth	r3,-8(fp)
  80040c:	e0bfff0d 	sth	r2,-4(fp)
    /* Write 16-bit Index, then Write Reg */  
    Clr_Cs;
  800410:	0007883a 	mov	r3,zero
  800414:	00804034 	movhi	r2,256
  800418:	10883404 	addi	r2,r2,8400
  80041c:	10c00035 	stwio	r3,0(r2)
    LCD_WriteIndex(LCD_Reg);         
  800420:	e0bffe0b 	ldhu	r2,-8(fp)
  800424:	1009883a 	mov	r4,r2
  800428:	08002580 	call	800258 <LCD_WriteIndex>
    /* Write 16-bit Reg */
    LCD_WriteData(LCD_RegValue);  
  80042c:	e0bfff0b 	ldhu	r2,-4(fp)
  800430:	1009883a 	mov	r4,r2
  800434:	08002dc0 	call	8002dc <LCD_WriteData>
    Set_Cs; 
  800438:	00c00044 	movi	r3,1
  80043c:	00804034 	movhi	r2,256
  800440:	10883404 	addi	r2,r2,8400
  800444:	10c00035 	stwio	r3,0(r2)
}
  800448:	e037883a 	mov	sp,fp
  80044c:	dfc00117 	ldw	ra,4(sp)
  800450:	df000017 	ldw	fp,0(sp)
  800454:	dec00204 	addi	sp,sp,8
  800458:	f800283a 	ret

0080045c <LCD_ReadReg>:
* Output         : None
* Return         : LCD Register Value.
* Attention      : None
*******************************************************************************/
__inline alt_u16 LCD_ReadReg(alt_u16 LCD_Reg)
{
  80045c:	defffc04 	addi	sp,sp,-16
  800460:	dfc00315 	stw	ra,12(sp)
  800464:	df000215 	stw	fp,8(sp)
  800468:	df000204 	addi	fp,sp,8
  80046c:	2005883a 	mov	r2,r4
  800470:	e0bfff0d 	sth	r2,-4(fp)
    alt_u16 LCD_RAM;
    
    /* Write 16-bit Index (then Read Reg) */
    Clr_Cs;
  800474:	0007883a 	mov	r3,zero
  800478:	00804034 	movhi	r2,256
  80047c:	10883404 	addi	r2,r2,8400
  800480:	10c00035 	stwio	r3,0(r2)
    LCD_WriteIndex(LCD_Reg);
  800484:	e0bfff0b 	ldhu	r2,-4(fp)
  800488:	1009883a 	mov	r4,r2
  80048c:	08002580 	call	800258 <LCD_WriteIndex>
    /* Read 16-bit Reg */
    LCD_RAM = LCD_ReadData();       
  800490:	08003500 	call	800350 <LCD_ReadData>
  800494:	e0bffe0d 	sth	r2,-8(fp)
    Set_Cs;
  800498:	00c00044 	movi	r3,1
  80049c:	00804034 	movhi	r2,256
  8004a0:	10883404 	addi	r2,r2,8400
  8004a4:	10c00035 	stwio	r3,0(r2)
    return LCD_RAM;
  8004a8:	e0bffe0b 	ldhu	r2,-8(fp)
}
  8004ac:	e037883a 	mov	sp,fp
  8004b0:	dfc00117 	ldw	ra,4(sp)
  8004b4:	df000017 	ldw	fp,0(sp)
  8004b8:	dec00204 	addi	sp,sp,8
  8004bc:	f800283a 	ret

008004c0 <LCD_SetCursor>:

      

void LCD_SetCursor( alt_u16 Xpos, alt_u16 Ypos )
{
  8004c0:	defffb04 	addi	sp,sp,-20
  8004c4:	dfc00415 	stw	ra,16(sp)
  8004c8:	df000315 	stw	fp,12(sp)
  8004cc:	df000304 	addi	fp,sp,12
  8004d0:	2007883a 	mov	r3,r4
  8004d4:	2805883a 	mov	r2,r5
  8004d8:	e0fffe0d 	sth	r3,-8(fp)
  8004dc:	e0bfff0d 	sth	r2,-4(fp)
    #if  ( DISP_ORIENTATION == 90 ) || ( DISP_ORIENTATION == 270 )
    
    alt_u16 temp = Xpos;
  8004e0:	e0bffe0b 	ldhu	r2,-8(fp)
  8004e4:	e0bffd0d 	sth	r2,-12(fp)

             Xpos = Ypos;
  8004e8:	e0bfff0b 	ldhu	r2,-4(fp)
  8004ec:	e0bffe0d 	sth	r2,-8(fp)
             Ypos = ( MAX_X - 1 ) - temp;  
  8004f0:	e0bffd0b 	ldhu	r2,-12(fp)
  8004f4:	00c04fc4 	movi	r3,319
  8004f8:	1885c83a 	sub	r2,r3,r2
  8004fc:	e0bfff0d 	sth	r2,-4(fp)

    #elif  ( DISP_ORIENTATION == 0 ) || ( DISP_ORIENTATION == 180 )
        
    #endif

  switch( LCD_Code )
  800500:	d0a02c03 	ldbu	r2,-32592(gp)
  800504:	10803fcc 	andi	r2,r2,255
  800508:	10bfff04 	addi	r2,r2,-4
  80050c:	10c002a8 	cmpgeui	r3,r2,10
  800510:	1800101e 	bne	r3,zero,800554 <LCD_SetCursor+0x94>
  800514:	100690ba 	slli	r3,r2,2
  800518:	00802034 	movhi	r2,128
  80051c:	10814b04 	addi	r2,r2,1324
  800520:	1885883a 	add	r2,r3,r2
  800524:	10800017 	ldw	r2,0(r2)
  800528:	1000683a 	jmp	r2
  80052c:	00800578 	rdprs	r2,zero,21
  800530:	00800578 	rdprs	r2,zero,21
  800534:	00800554 	movui	r2,21
  800538:	00800554 	movui	r2,21
  80053c:	00800554 	movui	r2,21
  800540:	00800554 	movui	r2,21
  800544:	0080059c 	xori	r2,zero,22
  800548:	0080059c 	xori	r2,zero,22
  80054c:	00800554 	movui	r2,21
  800550:	008005f0 	cmpltui	r2,zero,23
  {
     default:        /* 0x9320 0x9325 0x9328 0x9331 0x5408 0x1505 0x0505 0x7783 0x4531 0x4535 */
          LCD_WriteReg(0x0020, Xpos );     
  800554:	e0bffe0b 	ldhu	r2,-8(fp)
  800558:	01000804 	movi	r4,32
  80055c:	100b883a 	mov	r5,r2
  800560:	08003f00 	call	8003f0 <LCD_WriteReg>
          LCD_WriteReg(0x0021, Ypos );     
  800564:	e0bfff0b 	ldhu	r2,-4(fp)
  800568:	01000844 	movi	r4,33
  80056c:	100b883a 	mov	r5,r2
  800570:	08003f00 	call	8003f0 <LCD_WriteReg>
          break; 
  800574:	00001f06 	br	8005f4 <LCD_SetCursor+0x134>

     case SSD1298:   /* 0x8999 */
     case SSD1289:   /* 0x8989 */
          LCD_WriteReg(0x004e, Xpos );      
  800578:	e0bffe0b 	ldhu	r2,-8(fp)
  80057c:	01001384 	movi	r4,78
  800580:	100b883a 	mov	r5,r2
  800584:	08003f00 	call	8003f0 <LCD_WriteReg>
        LCD_WriteReg(0x004f, Ypos );          
  800588:	e0bfff0b 	ldhu	r2,-4(fp)
  80058c:	010013c4 	movi	r4,79
  800590:	100b883a 	mov	r5,r2
  800594:	08003f00 	call	8003f0 <LCD_WriteReg>
          break;  
  800598:	00001606 	br	8005f4 <LCD_SetCursor+0x134>

     case HX8347A:   /* 0x0047 */
     case HX8347D:   /* 0x0047 */
          LCD_WriteReg(0x02, Xpos>>8 );                                                  
  80059c:	e0bffe0b 	ldhu	r2,-8(fp)
  8005a0:	1004d23a 	srli	r2,r2,8
  8005a4:	10bfffcc 	andi	r2,r2,65535
  8005a8:	01000084 	movi	r4,2
  8005ac:	100b883a 	mov	r5,r2
  8005b0:	08003f00 	call	8003f0 <LCD_WriteReg>
          LCD_WriteReg(0x03, Xpos );  
  8005b4:	e0bffe0b 	ldhu	r2,-8(fp)
  8005b8:	010000c4 	movi	r4,3
  8005bc:	100b883a 	mov	r5,r2
  8005c0:	08003f00 	call	8003f0 <LCD_WriteReg>

          LCD_WriteReg(0x06, Ypos>>8 );                           
  8005c4:	e0bfff0b 	ldhu	r2,-4(fp)
  8005c8:	1004d23a 	srli	r2,r2,8
  8005cc:	10bfffcc 	andi	r2,r2,65535
  8005d0:	01000184 	movi	r4,6
  8005d4:	100b883a 	mov	r5,r2
  8005d8:	08003f00 	call	8003f0 <LCD_WriteReg>
          LCD_WriteReg(0x07, Ypos );    
  8005dc:	e0bfff0b 	ldhu	r2,-4(fp)
  8005e0:	010001c4 	movi	r4,7
  8005e4:	100b883a 	mov	r5,r2
  8005e8:	08003f00 	call	8003f0 <LCD_WriteReg>
    
          break;     
  8005ec:	00000106 	br	8005f4 <LCD_SetCursor+0x134>
     case SSD2119:   /* 3.5 LCD 0x9919 */
          break; 
  8005f0:	0001883a 	nop
  }
}
  8005f4:	e037883a 	mov	sp,fp
  8005f8:	dfc00117 	ldw	ra,4(sp)
  8005fc:	df000017 	ldw	fp,0(sp)
  800600:	dec00204 	addi	sp,sp,8
  800604:	f800283a 	ret

00800608 <LCD_Initializtion>:
* Output         : None
* Return         : None
* Attention      : None
*******************************************************************************/
void LCD_Initializtion(void)
{
  800608:	defffd04 	addi	sp,sp,-12
  80060c:	dfc00215 	stw	ra,8(sp)
  800610:	df000115 	stw	fp,4(sp)
  800614:	df000104 	addi	fp,sp,4
    alt_u16 DeviceCode;

   // LCD_Configuration();
     Clr_RST ;      /* LCD_RESET *////0
  800618:	0007883a 	mov	r3,zero
  80061c:	00804034 	movhi	r2,256
  800620:	10882404 	addi	r2,r2,8336
  800624:	10c00035 	stwio	r3,0(r2)
    delay_ms(100);
  800628:	01001904 	movi	r4,100
  80062c:	08019dc0 	call	8019dc <delay_ms>
     Set_RST;    /////////1
  800630:	00c00044 	movi	r3,1
  800634:	00804034 	movhi	r2,256
  800638:	10882404 	addi	r2,r2,8336
  80063c:	10c00035 	stwio	r3,0(r2)

    /* Set MN(multipliers) of PLL, VCO = crystal freq * (N+1) */
    /* PLL freq = VCO/M with 250MHz < VCO < 800MHz */
    /* The max PLL freq is around 120MHz. To obtain 120MHz as the PLL freq */

    DeviceCode = LCD_ReadReg(0x0000);       /* Read LCD ID  */                 
  800640:	0009883a 	mov	r4,zero
  800644:	080045c0 	call	80045c <LCD_ReadReg>
  800648:	e0bfff0d 	sth	r2,-4(fp)
    
    /*For ILI9325*/ 
    if( DeviceCode == 0x9325 || DeviceCode == 0x9328 )  
  80064c:	e0ffff0b 	ldhu	r3,-4(fp)
  800650:	00a4c954 	movui	r2,37669
  800654:	18800326 	beq	r3,r2,800664 <LCD_Initializtion+0x5c>
  800658:	e0ffff0b 	ldhu	r3,-4(fp)
  80065c:	00a4ca14 	movui	r2,37672
  800660:	1880b71e 	bne	r3,r2,800940 <LCD_Initializtion+0x338>
    {
        LCD_Code = ILI9325;
  800664:	00800044 	movi	r2,1
  800668:	d0a02c05 	stb	r2,-32592(gp)
        LCD_WriteReg(0x00e7,0x0010);      
  80066c:	010039c4 	movi	r4,231
  800670:	01400404 	movi	r5,16
  800674:	08003f00 	call	8003f0 <LCD_WriteReg>
        LCD_WriteReg(0x0000,0x0001);    /* start internal osc */
  800678:	0009883a 	mov	r4,zero
  80067c:	01400044 	movi	r5,1
  800680:	08003f00 	call	8003f0 <LCD_WriteReg>
        LCD_WriteReg(0x0001,0x0100);     
  800684:	01000044 	movi	r4,1
  800688:	01404004 	movi	r5,256
  80068c:	08003f00 	call	8003f0 <LCD_WriteReg>
        LCD_WriteReg(0x0002,0x0700);    /* power on sequence */
  800690:	01000084 	movi	r4,2
  800694:	0141c004 	movi	r5,1792
  800698:	08003f00 	call	8003f0 <LCD_WriteReg>
        LCD_WriteReg(0x0003,(1<<12)|(1<<5)|(1<<4)|(0<<3) );     /* importance */
  80069c:	010000c4 	movi	r4,3
  8006a0:	01440c04 	movi	r5,4144
  8006a4:	08003f00 	call	8003f0 <LCD_WriteReg>
        LCD_WriteReg(0x0004,0x0000);                                   
  8006a8:	01000104 	movi	r4,4
  8006ac:	000b883a 	mov	r5,zero
  8006b0:	08003f00 	call	8003f0 <LCD_WriteReg>
        LCD_WriteReg(0x0008,0x0207);               
  8006b4:	01000204 	movi	r4,8
  8006b8:	014081c4 	movi	r5,519
  8006bc:	08003f00 	call	8003f0 <LCD_WriteReg>
        LCD_WriteReg(0x0009,0x0000);         
  8006c0:	01000244 	movi	r4,9
  8006c4:	000b883a 	mov	r5,zero
  8006c8:	08003f00 	call	8003f0 <LCD_WriteReg>
        LCD_WriteReg(0x000a,0x0000);    /* display setting */        
  8006cc:	01000284 	movi	r4,10
  8006d0:	000b883a 	mov	r5,zero
  8006d4:	08003f00 	call	8003f0 <LCD_WriteReg>
        LCD_WriteReg(0x000c,0x0001);    /* display setting */        
  8006d8:	01000304 	movi	r4,12
  8006dc:	01400044 	movi	r5,1
  8006e0:	08003f00 	call	8003f0 <LCD_WriteReg>
        LCD_WriteReg(0x000d,0x0000);                    
  8006e4:	01000344 	movi	r4,13
  8006e8:	000b883a 	mov	r5,zero
  8006ec:	08003f00 	call	8003f0 <LCD_WriteReg>
        LCD_WriteReg(0x000f,0x0000);
  8006f0:	010003c4 	movi	r4,15
  8006f4:	000b883a 	mov	r5,zero
  8006f8:	08003f00 	call	8003f0 <LCD_WriteReg>
        /* Power On sequence */
        LCD_WriteReg(0x0010,0x0000);   
  8006fc:	01000404 	movi	r4,16
  800700:	000b883a 	mov	r5,zero
  800704:	08003f00 	call	8003f0 <LCD_WriteReg>
        LCD_WriteReg(0x0011,0x0007);
  800708:	01000444 	movi	r4,17
  80070c:	014001c4 	movi	r5,7
  800710:	08003f00 	call	8003f0 <LCD_WriteReg>
        LCD_WriteReg(0x0012,0x0000);                                                                 
  800714:	01000484 	movi	r4,18
  800718:	000b883a 	mov	r5,zero
  80071c:	08003f00 	call	8003f0 <LCD_WriteReg>
        LCD_WriteReg(0x0013,0x0000);                 
  800720:	010004c4 	movi	r4,19
  800724:	000b883a 	mov	r5,zero
  800728:	08003f00 	call	8003f0 <LCD_WriteReg>
        delay_ms(50);  /* delay 50 ms */        
  80072c:	01000c84 	movi	r4,50
  800730:	08019dc0 	call	8019dc <delay_ms>
        LCD_WriteReg(0x0010,0x1590);   
  800734:	01000404 	movi	r4,16
  800738:	01456404 	movi	r5,5520
  80073c:	08003f00 	call	8003f0 <LCD_WriteReg>
        LCD_WriteReg(0x0011,0x0227);
  800740:	01000444 	movi	r4,17
  800744:	014089c4 	movi	r5,551
  800748:	08003f00 	call	8003f0 <LCD_WriteReg>
        delay_ms(50);  /* delay 50 ms */        
  80074c:	01000c84 	movi	r4,50
  800750:	08019dc0 	call	8019dc <delay_ms>
        LCD_WriteReg(0x0012,0x009c);                  
  800754:	01000484 	movi	r4,18
  800758:	01402704 	movi	r5,156
  80075c:	08003f00 	call	8003f0 <LCD_WriteReg>
        delay_ms(50);  /* delay 50 ms */        
  800760:	01000c84 	movi	r4,50
  800764:	08019dc0 	call	8019dc <delay_ms>
        LCD_WriteReg(0x0013,0x1900);   
  800768:	010004c4 	movi	r4,19
  80076c:	01464004 	movi	r5,6400
  800770:	08003f00 	call	8003f0 <LCD_WriteReg>
        LCD_WriteReg(0x0029,0x0023);
  800774:	01000a44 	movi	r4,41
  800778:	014008c4 	movi	r5,35
  80077c:	08003f00 	call	8003f0 <LCD_WriteReg>
        LCD_WriteReg(0x002b,0x000e);
  800780:	01000ac4 	movi	r4,43
  800784:	01400384 	movi	r5,14
  800788:	08003f00 	call	8003f0 <LCD_WriteReg>
        delay_ms(50);  /* delay 50 ms */        
  80078c:	01000c84 	movi	r4,50
  800790:	08019dc0 	call	8019dc <delay_ms>
        LCD_WriteReg(0x0020,0x0000);                                                            
  800794:	01000804 	movi	r4,32
  800798:	000b883a 	mov	r5,zero
  80079c:	08003f00 	call	8003f0 <LCD_WriteReg>
        LCD_WriteReg(0x0021,0x0000);           
  8007a0:	01000844 	movi	r4,33
  8007a4:	000b883a 	mov	r5,zero
  8007a8:	08003f00 	call	8003f0 <LCD_WriteReg>
        delay_ms(50);  /* delay 50 ms */        
  8007ac:	01000c84 	movi	r4,50
  8007b0:	08019dc0 	call	8019dc <delay_ms>
        LCD_WriteReg(0x0030,0x0007); 
  8007b4:	01000c04 	movi	r4,48
  8007b8:	014001c4 	movi	r5,7
  8007bc:	08003f00 	call	8003f0 <LCD_WriteReg>
        LCD_WriteReg(0x0031,0x0707);   
  8007c0:	01000c44 	movi	r4,49
  8007c4:	0141c1c4 	movi	r5,1799
  8007c8:	08003f00 	call	8003f0 <LCD_WriteReg>
        LCD_WriteReg(0x0032,0x0006);
  8007cc:	01000c84 	movi	r4,50
  8007d0:	01400184 	movi	r5,6
  8007d4:	08003f00 	call	8003f0 <LCD_WriteReg>
        LCD_WriteReg(0x0035,0x0704);
  8007d8:	01000d44 	movi	r4,53
  8007dc:	0141c104 	movi	r5,1796
  8007e0:	08003f00 	call	8003f0 <LCD_WriteReg>
        LCD_WriteReg(0x0036,0x1f04); 
  8007e4:	01000d84 	movi	r4,54
  8007e8:	0147c104 	movi	r5,7940
  8007ec:	08003f00 	call	8003f0 <LCD_WriteReg>
        LCD_WriteReg(0x0037,0x0004);
  8007f0:	01000dc4 	movi	r4,55
  8007f4:	01400104 	movi	r5,4
  8007f8:	08003f00 	call	8003f0 <LCD_WriteReg>
        LCD_WriteReg(0x0038,0x0000);        
  8007fc:	01000e04 	movi	r4,56
  800800:	000b883a 	mov	r5,zero
  800804:	08003f00 	call	8003f0 <LCD_WriteReg>
        LCD_WriteReg(0x0039,0x0706);     
  800808:	01000e44 	movi	r4,57
  80080c:	0141c184 	movi	r5,1798
  800810:	08003f00 	call	8003f0 <LCD_WriteReg>
        LCD_WriteReg(0x003c,0x0701);
  800814:	01000f04 	movi	r4,60
  800818:	0141c044 	movi	r5,1793
  80081c:	08003f00 	call	8003f0 <LCD_WriteReg>
        LCD_WriteReg(0x003d,0x000f);
  800820:	01000f44 	movi	r4,61
  800824:	014003c4 	movi	r5,15
  800828:	08003f00 	call	8003f0 <LCD_WriteReg>
        delay_ms(50);  /* delay 50 ms */        
  80082c:	01000c84 	movi	r4,50
  800830:	08019dc0 	call	8019dc <delay_ms>
        LCD_WriteReg(0x0050,0x0000);        
  800834:	01001404 	movi	r4,80
  800838:	000b883a 	mov	r5,zero
  80083c:	08003f00 	call	8003f0 <LCD_WriteReg>
        LCD_WriteReg(0x0051,0x00ef);   
  800840:	01001444 	movi	r4,81
  800844:	01403bc4 	movi	r5,239
  800848:	08003f00 	call	8003f0 <LCD_WriteReg>
        LCD_WriteReg(0x0052,0x0000);     
  80084c:	01001484 	movi	r4,82
  800850:	000b883a 	mov	r5,zero
  800854:	08003f00 	call	8003f0 <LCD_WriteReg>
        LCD_WriteReg(0x0053,0x013f);
  800858:	010014c4 	movi	r4,83
  80085c:	01404fc4 	movi	r5,319
  800860:	08003f00 	call	8003f0 <LCD_WriteReg>
        LCD_WriteReg(0x0060,0xa700);        
  800864:	01001804 	movi	r4,96
  800868:	0169c014 	movui	r5,42752
  80086c:	08003f00 	call	8003f0 <LCD_WriteReg>
        LCD_WriteReg(0x0061,0x0001); 
  800870:	01001844 	movi	r4,97
  800874:	01400044 	movi	r5,1
  800878:	08003f00 	call	8003f0 <LCD_WriteReg>
        LCD_WriteReg(0x006a,0x0000);
  80087c:	01001a84 	movi	r4,106
  800880:	000b883a 	mov	r5,zero
  800884:	08003f00 	call	8003f0 <LCD_WriteReg>
        LCD_WriteReg(0x0080,0x0000);
  800888:	01002004 	movi	r4,128
  80088c:	000b883a 	mov	r5,zero
  800890:	08003f00 	call	8003f0 <LCD_WriteReg>
        LCD_WriteReg(0x0081,0x0000);
  800894:	01002044 	movi	r4,129
  800898:	000b883a 	mov	r5,zero
  80089c:	08003f00 	call	8003f0 <LCD_WriteReg>
        LCD_WriteReg(0x0082,0x0000);
  8008a0:	01002084 	movi	r4,130
  8008a4:	000b883a 	mov	r5,zero
  8008a8:	08003f00 	call	8003f0 <LCD_WriteReg>
        LCD_WriteReg(0x0083,0x0000);
  8008ac:	010020c4 	movi	r4,131
  8008b0:	000b883a 	mov	r5,zero
  8008b4:	08003f00 	call	8003f0 <LCD_WriteReg>
        LCD_WriteReg(0x0084,0x0000);
  8008b8:	01002104 	movi	r4,132
  8008bc:	000b883a 	mov	r5,zero
  8008c0:	08003f00 	call	8003f0 <LCD_WriteReg>
        LCD_WriteReg(0x0085,0x0000);
  8008c4:	01002144 	movi	r4,133
  8008c8:	000b883a 	mov	r5,zero
  8008cc:	08003f00 	call	8003f0 <LCD_WriteReg>
          
        LCD_WriteReg(0x0090,0x0010);     
  8008d0:	01002404 	movi	r4,144
  8008d4:	01400404 	movi	r5,16
  8008d8:	08003f00 	call	8003f0 <LCD_WriteReg>
        LCD_WriteReg(0x0092,0x0000);  
  8008dc:	01002484 	movi	r4,146
  8008e0:	000b883a 	mov	r5,zero
  8008e4:	08003f00 	call	8003f0 <LCD_WriteReg>
        LCD_WriteReg(0x0093,0x0003);
  8008e8:	010024c4 	movi	r4,147
  8008ec:	014000c4 	movi	r5,3
  8008f0:	08003f00 	call	8003f0 <LCD_WriteReg>
        LCD_WriteReg(0x0095,0x0110);
  8008f4:	01002544 	movi	r4,149
  8008f8:	01404404 	movi	r5,272
  8008fc:	08003f00 	call	8003f0 <LCD_WriteReg>
        LCD_WriteReg(0x0097,0x0000);        
  800900:	010025c4 	movi	r4,151
  800904:	000b883a 	mov	r5,zero
  800908:	08003f00 	call	8003f0 <LCD_WriteReg>
        LCD_WriteReg(0x0098,0x0000);  
  80090c:	01002604 	movi	r4,152
  800910:	000b883a 	mov	r5,zero
  800914:	08003f00 	call	8003f0 <LCD_WriteReg>
        /* display on sequence */    
        LCD_WriteReg(0x0007,0x0133);
  800918:	010001c4 	movi	r4,7
  80091c:	01404cc4 	movi	r5,307
  800920:	08003f00 	call	8003f0 <LCD_WriteReg>
        
        LCD_WriteReg(0x0020,0x0000);
  800924:	01000804 	movi	r4,32
  800928:	000b883a 	mov	r5,zero
  80092c:	08003f00 	call	8003f0 <LCD_WriteReg>
        LCD_WriteReg(0x0021,0x0000);
  800930:	01000844 	movi	r4,33
  800934:	000b883a 	mov	r5,zero
  800938:	08003f00 	call	8003f0 <LCD_WriteReg>
  80093c:	0000ce06 	br	800c78 <LCD_Initializtion+0x670>
    }
    else if( DeviceCode == 0x8989 )  /*For SSD1289*/
  800940:	e0ffff0b 	ldhu	r3,-4(fp)
  800944:	00a26254 	movui	r2,35209
  800948:	1880cb1e 	bne	r3,r2,800c78 <LCD_Initializtion+0x670>
    {
        LCD_Code = SSD1289;
  80094c:	00800144 	movi	r2,5
  800950:	d0a02c05 	stb	r2,-32592(gp)
        LCD_WriteReg(0x0000,0x0001);    delay_ms(50);   /* Enable LCD Oscillator */
  800954:	0009883a 	mov	r4,zero
  800958:	01400044 	movi	r5,1
  80095c:	08003f00 	call	8003f0 <LCD_WriteReg>
  800960:	01000c84 	movi	r4,50
  800964:	08019dc0 	call	8019dc <delay_ms>
        LCD_WriteReg(0x0003,0xA8A4);    delay_ms(50);   
  800968:	010000c4 	movi	r4,3
  80096c:	016a2914 	movui	r5,43172
  800970:	08003f00 	call	8003f0 <LCD_WriteReg>
  800974:	01000c84 	movi	r4,50
  800978:	08019dc0 	call	8019dc <delay_ms>
        LCD_WriteReg(0x000C,0x0000);    delay_ms(50);   
  80097c:	01000304 	movi	r4,12
  800980:	000b883a 	mov	r5,zero
  800984:	08003f00 	call	8003f0 <LCD_WriteReg>
  800988:	01000c84 	movi	r4,50
  80098c:	08019dc0 	call	8019dc <delay_ms>
        LCD_WriteReg(0x000D,0x080C);    delay_ms(50);   
  800990:	01000344 	movi	r4,13
  800994:	01420304 	movi	r5,2060
  800998:	08003f00 	call	8003f0 <LCD_WriteReg>
  80099c:	01000c84 	movi	r4,50
  8009a0:	08019dc0 	call	8019dc <delay_ms>
        LCD_WriteReg(0x000E,0x2B00);    delay_ms(50);   
  8009a4:	01000384 	movi	r4,14
  8009a8:	014ac004 	movi	r5,11008
  8009ac:	08003f00 	call	8003f0 <LCD_WriteReg>
  8009b0:	01000c84 	movi	r4,50
  8009b4:	08019dc0 	call	8019dc <delay_ms>
        LCD_WriteReg(0x001E,0x00B0);    delay_ms(50);   
  8009b8:	01000784 	movi	r4,30
  8009bc:	01402c04 	movi	r5,176
  8009c0:	08003f00 	call	8003f0 <LCD_WriteReg>
  8009c4:	01000c84 	movi	r4,50
  8009c8:	08019dc0 	call	8019dc <delay_ms>
        LCD_WriteReg(0x0001,0x2B3F);    delay_ms(50);   /* 320*240 0x2B3F */
  8009cc:	01000044 	movi	r4,1
  8009d0:	014acfc4 	movi	r5,11071
  8009d4:	08003f00 	call	8003f0 <LCD_WriteReg>
  8009d8:	01000c84 	movi	r4,50
  8009dc:	08019dc0 	call	8019dc <delay_ms>
        LCD_WriteReg(0x0002,0x0600);    delay_ms(50);
  8009e0:	01000084 	movi	r4,2
  8009e4:	01418004 	movi	r5,1536
  8009e8:	08003f00 	call	8003f0 <LCD_WriteReg>
  8009ec:	01000c84 	movi	r4,50
  8009f0:	08019dc0 	call	8019dc <delay_ms>
        LCD_WriteReg(0x0010,0x0000);    delay_ms(50);
  8009f4:	01000404 	movi	r4,16
  8009f8:	000b883a 	mov	r5,zero
  8009fc:	08003f00 	call	8003f0 <LCD_WriteReg>
  800a00:	01000c84 	movi	r4,50
  800a04:	08019dc0 	call	8019dc <delay_ms>
        LCD_WriteReg(0x0011,0x6070);    delay_ms(50);
  800a08:	01000444 	movi	r4,17
  800a0c:	01581c04 	movi	r5,24688
  800a10:	08003f00 	call	8003f0 <LCD_WriteReg>
  800a14:	01000c84 	movi	r4,50
  800a18:	08019dc0 	call	8019dc <delay_ms>
        LCD_WriteReg(0x0005,0x0000);    delay_ms(50);
  800a1c:	01000144 	movi	r4,5
  800a20:	000b883a 	mov	r5,zero
  800a24:	08003f00 	call	8003f0 <LCD_WriteReg>
  800a28:	01000c84 	movi	r4,50
  800a2c:	08019dc0 	call	8019dc <delay_ms>
        LCD_WriteReg(0x0006,0x0000);    delay_ms(50);
  800a30:	01000184 	movi	r4,6
  800a34:	000b883a 	mov	r5,zero
  800a38:	08003f00 	call	8003f0 <LCD_WriteReg>
  800a3c:	01000c84 	movi	r4,50
  800a40:	08019dc0 	call	8019dc <delay_ms>
        LCD_WriteReg(0x0016,0xEF1C);    delay_ms(50);
  800a44:	01000584 	movi	r4,22
  800a48:	017bc714 	movui	r5,61212
  800a4c:	08003f00 	call	8003f0 <LCD_WriteReg>
  800a50:	01000c84 	movi	r4,50
  800a54:	08019dc0 	call	8019dc <delay_ms>
        LCD_WriteReg(0x0017,0x0003);    delay_ms(50);
  800a58:	010005c4 	movi	r4,23
  800a5c:	014000c4 	movi	r5,3
  800a60:	08003f00 	call	8003f0 <LCD_WriteReg>
  800a64:	01000c84 	movi	r4,50
  800a68:	08019dc0 	call	8019dc <delay_ms>
        LCD_WriteReg(0x0007,0x0133);    delay_ms(50);         
  800a6c:	010001c4 	movi	r4,7
  800a70:	01404cc4 	movi	r5,307
  800a74:	08003f00 	call	8003f0 <LCD_WriteReg>
  800a78:	01000c84 	movi	r4,50
  800a7c:	08019dc0 	call	8019dc <delay_ms>
        LCD_WriteReg(0x000B,0x0000);    delay_ms(50);
  800a80:	010002c4 	movi	r4,11
  800a84:	000b883a 	mov	r5,zero
  800a88:	08003f00 	call	8003f0 <LCD_WriteReg>
  800a8c:	01000c84 	movi	r4,50
  800a90:	08019dc0 	call	8019dc <delay_ms>
        LCD_WriteReg(0x000F,0x0000);    delay_ms(50);
  800a94:	010003c4 	movi	r4,15
  800a98:	000b883a 	mov	r5,zero
  800a9c:	08003f00 	call	8003f0 <LCD_WriteReg>
  800aa0:	01000c84 	movi	r4,50
  800aa4:	08019dc0 	call	8019dc <delay_ms>
        LCD_WriteReg(0x0041,0x0000);    delay_ms(50);
  800aa8:	01001044 	movi	r4,65
  800aac:	000b883a 	mov	r5,zero
  800ab0:	08003f00 	call	8003f0 <LCD_WriteReg>
  800ab4:	01000c84 	movi	r4,50
  800ab8:	08019dc0 	call	8019dc <delay_ms>
        LCD_WriteReg(0x0042,0x0000);    delay_ms(50);
  800abc:	01001084 	movi	r4,66
  800ac0:	000b883a 	mov	r5,zero
  800ac4:	08003f00 	call	8003f0 <LCD_WriteReg>
  800ac8:	01000c84 	movi	r4,50
  800acc:	08019dc0 	call	8019dc <delay_ms>
        LCD_WriteReg(0x0048,0x0000);    delay_ms(50);
  800ad0:	01001204 	movi	r4,72
  800ad4:	000b883a 	mov	r5,zero
  800ad8:	08003f00 	call	8003f0 <LCD_WriteReg>
  800adc:	01000c84 	movi	r4,50
  800ae0:	08019dc0 	call	8019dc <delay_ms>
        LCD_WriteReg(0x0049,0x013F);    delay_ms(50);
  800ae4:	01001244 	movi	r4,73
  800ae8:	01404fc4 	movi	r5,319
  800aec:	08003f00 	call	8003f0 <LCD_WriteReg>
  800af0:	01000c84 	movi	r4,50
  800af4:	08019dc0 	call	8019dc <delay_ms>
        LCD_WriteReg(0x004A,0x0000);    delay_ms(50);
  800af8:	01001284 	movi	r4,74
  800afc:	000b883a 	mov	r5,zero
  800b00:	08003f00 	call	8003f0 <LCD_WriteReg>
  800b04:	01000c84 	movi	r4,50
  800b08:	08019dc0 	call	8019dc <delay_ms>
        LCD_WriteReg(0x004B,0x0000);    delay_ms(50);
  800b0c:	010012c4 	movi	r4,75
  800b10:	000b883a 	mov	r5,zero
  800b14:	08003f00 	call	8003f0 <LCD_WriteReg>
  800b18:	01000c84 	movi	r4,50
  800b1c:	08019dc0 	call	8019dc <delay_ms>
        LCD_WriteReg(0x0044,0xEF00);    delay_ms(50);
  800b20:	01001104 	movi	r4,68
  800b24:	017bc014 	movui	r5,61184
  800b28:	08003f00 	call	8003f0 <LCD_WriteReg>
  800b2c:	01000c84 	movi	r4,50
  800b30:	08019dc0 	call	8019dc <delay_ms>
        LCD_WriteReg(0x0045,0x0000);    delay_ms(50);
  800b34:	01001144 	movi	r4,69
  800b38:	000b883a 	mov	r5,zero
  800b3c:	08003f00 	call	8003f0 <LCD_WriteReg>
  800b40:	01000c84 	movi	r4,50
  800b44:	08019dc0 	call	8019dc <delay_ms>
        LCD_WriteReg(0x0046,0x013F);    delay_ms(50);
  800b48:	01001184 	movi	r4,70
  800b4c:	01404fc4 	movi	r5,319
  800b50:	08003f00 	call	8003f0 <LCD_WriteReg>
  800b54:	01000c84 	movi	r4,50
  800b58:	08019dc0 	call	8019dc <delay_ms>
        LCD_WriteReg(0x0030,0x0707);    delay_ms(50);
  800b5c:	01000c04 	movi	r4,48
  800b60:	0141c1c4 	movi	r5,1799
  800b64:	08003f00 	call	8003f0 <LCD_WriteReg>
  800b68:	01000c84 	movi	r4,50
  800b6c:	08019dc0 	call	8019dc <delay_ms>
        LCD_WriteReg(0x0031,0x0204);    delay_ms(50);
  800b70:	01000c44 	movi	r4,49
  800b74:	01408104 	movi	r5,516
  800b78:	08003f00 	call	8003f0 <LCD_WriteReg>
  800b7c:	01000c84 	movi	r4,50
  800b80:	08019dc0 	call	8019dc <delay_ms>
        LCD_WriteReg(0x0032,0x0204);    delay_ms(50);
  800b84:	01000c84 	movi	r4,50
  800b88:	01408104 	movi	r5,516
  800b8c:	08003f00 	call	8003f0 <LCD_WriteReg>
  800b90:	01000c84 	movi	r4,50
  800b94:	08019dc0 	call	8019dc <delay_ms>
        LCD_WriteReg(0x0033,0x0502);    delay_ms(50);
  800b98:	01000cc4 	movi	r4,51
  800b9c:	01414084 	movi	r5,1282
  800ba0:	08003f00 	call	8003f0 <LCD_WriteReg>
  800ba4:	01000c84 	movi	r4,50
  800ba8:	08019dc0 	call	8019dc <delay_ms>
        LCD_WriteReg(0x0034,0x0507);    delay_ms(50);
  800bac:	01000d04 	movi	r4,52
  800bb0:	014141c4 	movi	r5,1287
  800bb4:	08003f00 	call	8003f0 <LCD_WriteReg>
  800bb8:	01000c84 	movi	r4,50
  800bbc:	08019dc0 	call	8019dc <delay_ms>
        LCD_WriteReg(0x0035,0x0204);    delay_ms(50);
  800bc0:	01000d44 	movi	r4,53
  800bc4:	01408104 	movi	r5,516
  800bc8:	08003f00 	call	8003f0 <LCD_WriteReg>
  800bcc:	01000c84 	movi	r4,50
  800bd0:	08019dc0 	call	8019dc <delay_ms>
        LCD_WriteReg(0x0036,0x0204);    delay_ms(50);
  800bd4:	01000d84 	movi	r4,54
  800bd8:	01408104 	movi	r5,516
  800bdc:	08003f00 	call	8003f0 <LCD_WriteReg>
  800be0:	01000c84 	movi	r4,50
  800be4:	08019dc0 	call	8019dc <delay_ms>
        LCD_WriteReg(0x0037,0x0502);    delay_ms(50);
  800be8:	01000dc4 	movi	r4,55
  800bec:	01414084 	movi	r5,1282
  800bf0:	08003f00 	call	8003f0 <LCD_WriteReg>
  800bf4:	01000c84 	movi	r4,50
  800bf8:	08019dc0 	call	8019dc <delay_ms>
        LCD_WriteReg(0x003A,0x0302);    delay_ms(50);
  800bfc:	01000e84 	movi	r4,58
  800c00:	0140c084 	movi	r5,770
  800c04:	08003f00 	call	8003f0 <LCD_WriteReg>
  800c08:	01000c84 	movi	r4,50
  800c0c:	08019dc0 	call	8019dc <delay_ms>
        LCD_WriteReg(0x003B,0x0302);    delay_ms(50);
  800c10:	01000ec4 	movi	r4,59
  800c14:	0140c084 	movi	r5,770
  800c18:	08003f00 	call	8003f0 <LCD_WriteReg>
  800c1c:	01000c84 	movi	r4,50
  800c20:	08019dc0 	call	8019dc <delay_ms>
        LCD_WriteReg(0x0023,0x0000);    delay_ms(50);
  800c24:	010008c4 	movi	r4,35
  800c28:	000b883a 	mov	r5,zero
  800c2c:	08003f00 	call	8003f0 <LCD_WriteReg>
  800c30:	01000c84 	movi	r4,50
  800c34:	08019dc0 	call	8019dc <delay_ms>
        LCD_WriteReg(0x0024,0x0000);    delay_ms(50);
  800c38:	01000904 	movi	r4,36
  800c3c:	000b883a 	mov	r5,zero
  800c40:	08003f00 	call	8003f0 <LCD_WriteReg>
  800c44:	01000c84 	movi	r4,50
  800c48:	08019dc0 	call	8019dc <delay_ms>
        LCD_WriteReg(0x0025,0x8000);    delay_ms(50);
  800c4c:	01000944 	movi	r4,37
  800c50:	01600014 	movui	r5,32768
  800c54:	08003f00 	call	8003f0 <LCD_WriteReg>
  800c58:	01000c84 	movi	r4,50
  800c5c:	08019dc0 	call	8019dc <delay_ms>
        LCD_WriteReg(0x004f,0);
  800c60:	010013c4 	movi	r4,79
  800c64:	000b883a 	mov	r5,zero
  800c68:	08003f00 	call	8003f0 <LCD_WriteReg>
        LCD_WriteReg(0x004e,0);
  800c6c:	01001384 	movi	r4,78
  800c70:	000b883a 	mov	r5,zero
  800c74:	08003f00 	call	8003f0 <LCD_WriteReg>
    }
     
    delay_ms(50);   /* delay 50 ms */       
  800c78:	01000c84 	movi	r4,50
  800c7c:	08019dc0 	call	8019dc <delay_ms>
}
  800c80:	e037883a 	mov	sp,fp
  800c84:	dfc00117 	ldw	ra,4(sp)
  800c88:	df000017 	ldw	fp,0(sp)
  800c8c:	dec00204 	addi	sp,sp,8
  800c90:	f800283a 	ret

00800c94 <LCD_Clear>:
* Output         : None
* Return         : None
* Attention      : None
*******************************************************************************/
void LCD_Clear(alt_u16 Color)
{
  800c94:	defffc04 	addi	sp,sp,-16
  800c98:	dfc00315 	stw	ra,12(sp)
  800c9c:	df000215 	stw	fp,8(sp)
  800ca0:	df000204 	addi	fp,sp,8
  800ca4:	2005883a 	mov	r2,r4
  800ca8:	e0bfff0d 	sth	r2,-4(fp)
    alt_u32 index=0;
  800cac:	e03ffe15 	stw	zero,-8(fp)
    
    if( LCD_Code == HX8347D || LCD_Code == HX8347A )
  800cb0:	d0a02c03 	ldbu	r2,-32592(gp)
  800cb4:	10803fcc 	andi	r2,r2,255
  800cb8:	108002a0 	cmpeqi	r2,r2,10
  800cbc:	1000041e 	bne	r2,zero,800cd0 <LCD_Clear+0x3c>
  800cc0:	d0a02c03 	ldbu	r2,-32592(gp)
  800cc4:	10803fcc 	andi	r2,r2,255
  800cc8:	108002d8 	cmpnei	r2,r2,11
  800ccc:	1000191e 	bne	r2,zero,800d34 <LCD_Clear+0xa0>
    {
        LCD_WriteReg(0x02,0x00);                                                  
  800cd0:	01000084 	movi	r4,2
  800cd4:	000b883a 	mov	r5,zero
  800cd8:	08003f00 	call	8003f0 <LCD_WriteReg>
        LCD_WriteReg(0x03,0x00);  
  800cdc:	010000c4 	movi	r4,3
  800ce0:	000b883a 	mov	r5,zero
  800ce4:	08003f00 	call	8003f0 <LCD_WriteReg>
                        
        LCD_WriteReg(0x04,0x00);                           
  800ce8:	01000104 	movi	r4,4
  800cec:	000b883a 	mov	r5,zero
  800cf0:	08003f00 	call	8003f0 <LCD_WriteReg>
        LCD_WriteReg(0x05,0xEF);  
  800cf4:	01000144 	movi	r4,5
  800cf8:	01403bc4 	movi	r5,239
  800cfc:	08003f00 	call	8003f0 <LCD_WriteReg>
                         
        LCD_WriteReg(0x06,0x00);                           
  800d00:	01000184 	movi	r4,6
  800d04:	000b883a 	mov	r5,zero
  800d08:	08003f00 	call	8003f0 <LCD_WriteReg>
        LCD_WriteReg(0x07,0x00);    
  800d0c:	010001c4 	movi	r4,7
  800d10:	000b883a 	mov	r5,zero
  800d14:	08003f00 	call	8003f0 <LCD_WriteReg>
                       
        LCD_WriteReg(0x08,0x01);                           
  800d18:	01000204 	movi	r4,8
  800d1c:	01400044 	movi	r5,1
  800d20:	08003f00 	call	8003f0 <LCD_WriteReg>
        LCD_WriteReg(0x09,0x3F);     
  800d24:	01000244 	movi	r4,9
  800d28:	01400fc4 	movi	r5,63
  800d2c:	08003f00 	call	8003f0 <LCD_WriteReg>
  800d30:	00000306 	br	800d40 <LCD_Clear+0xac>
    }
    else
    {   
        LCD_SetCursor(0,0); 
  800d34:	0009883a 	mov	r4,zero
  800d38:	000b883a 	mov	r5,zero
  800d3c:	08004c00 	call	8004c0 <LCD_SetCursor>
    }   
    Clr_Cs; 
  800d40:	0007883a 	mov	r3,zero
  800d44:	00804034 	movhi	r2,256
  800d48:	10883404 	addi	r2,r2,8400
  800d4c:	10c00035 	stwio	r3,0(r2)
    LCD_WriteIndex(0x0022);
  800d50:	01000884 	movi	r4,34
  800d54:	08002580 	call	800258 <LCD_WriteIndex>
    for( index = 0; index < MAX_X * MAX_Y; index++ )
  800d58:	e03ffe15 	stw	zero,-8(fp)
  800d5c:	00000606 	br	800d78 <LCD_Clear+0xe4>
    {
        LCD_WriteData(Color);
  800d60:	e0bfff0b 	ldhu	r2,-4(fp)
  800d64:	1009883a 	mov	r4,r2
  800d68:	08002dc0 	call	8002dc <LCD_WriteData>
    {   
        LCD_SetCursor(0,0); 
    }   
    Clr_Cs; 
    LCD_WriteIndex(0x0022);
    for( index = 0; index < MAX_X * MAX_Y; index++ )
  800d6c:	e0bffe17 	ldw	r2,-8(fp)
  800d70:	10800044 	addi	r2,r2,1
  800d74:	e0bffe15 	stw	r2,-8(fp)
  800d78:	e0fffe17 	ldw	r3,-8(fp)
  800d7c:	00800074 	movhi	r2,1
  800d80:	108affc4 	addi	r2,r2,11263
  800d84:	10fff62e 	bgeu	r2,r3,800d60 <__reset+0xff7ff560>
    {
        LCD_WriteData(Color);
    }
    Set_Cs;
  800d88:	00c00044 	movi	r3,1
  800d8c:	00804034 	movhi	r2,256
  800d90:	10883404 	addi	r2,r2,8400
  800d94:	10c00035 	stwio	r3,0(r2)
}
  800d98:	e037883a 	mov	sp,fp
  800d9c:	dfc00117 	ldw	ra,4(sp)
  800da0:	df000017 	ldw	fp,0(sp)
  800da4:	dec00204 	addi	sp,sp,8
  800da8:	f800283a 	ret

00800dac <LCD_show_test>:
void LCD_show_test()
{ alt_u32 index=0,i;
  800dac:	defffc04 	addi	sp,sp,-16
  800db0:	dfc00315 	stw	ra,12(sp)
  800db4:	df000215 	stw	fp,8(sp)
  800db8:	df000204 	addi	fp,sp,8
  800dbc:	e03ffe15 	stw	zero,-8(fp)
    if( LCD_Code == HX8347D || LCD_Code == HX8347A )
  800dc0:	d0a02c03 	ldbu	r2,-32592(gp)
  800dc4:	10803fcc 	andi	r2,r2,255
  800dc8:	108002a0 	cmpeqi	r2,r2,10
  800dcc:	1000041e 	bne	r2,zero,800de0 <LCD_show_test+0x34>
  800dd0:	d0a02c03 	ldbu	r2,-32592(gp)
  800dd4:	10803fcc 	andi	r2,r2,255
  800dd8:	108002d8 	cmpnei	r2,r2,11
  800ddc:	1000191e 	bne	r2,zero,800e44 <LCD_show_test+0x98>
    {
        LCD_WriteReg(0x02,0x00);                                                  
  800de0:	01000084 	movi	r4,2
  800de4:	000b883a 	mov	r5,zero
  800de8:	08003f00 	call	8003f0 <LCD_WriteReg>
        LCD_WriteReg(0x03,0x00);  
  800dec:	010000c4 	movi	r4,3
  800df0:	000b883a 	mov	r5,zero
  800df4:	08003f00 	call	8003f0 <LCD_WriteReg>
                        
        LCD_WriteReg(0x04,0x00);                           
  800df8:	01000104 	movi	r4,4
  800dfc:	000b883a 	mov	r5,zero
  800e00:	08003f00 	call	8003f0 <LCD_WriteReg>
        LCD_WriteReg(0x05,0xEF);  
  800e04:	01000144 	movi	r4,5
  800e08:	01403bc4 	movi	r5,239
  800e0c:	08003f00 	call	8003f0 <LCD_WriteReg>
                         
        LCD_WriteReg(0x06,0x00);                           
  800e10:	01000184 	movi	r4,6
  800e14:	000b883a 	mov	r5,zero
  800e18:	08003f00 	call	8003f0 <LCD_WriteReg>
        LCD_WriteReg(0x07,0x00);    
  800e1c:	010001c4 	movi	r4,7
  800e20:	000b883a 	mov	r5,zero
  800e24:	08003f00 	call	8003f0 <LCD_WriteReg>
                       
        LCD_WriteReg(0x08,0x01);                           
  800e28:	01000204 	movi	r4,8
  800e2c:	01400044 	movi	r5,1
  800e30:	08003f00 	call	8003f0 <LCD_WriteReg>
        LCD_WriteReg(0x09,0x3F);     
  800e34:	01000244 	movi	r4,9
  800e38:	01400fc4 	movi	r5,63
  800e3c:	08003f00 	call	8003f0 <LCD_WriteReg>
  800e40:	00000306 	br	800e50 <LCD_show_test+0xa4>
    }
    else
    {   
        LCD_SetCursor(0,0); 
  800e44:	0009883a 	mov	r4,zero
  800e48:	000b883a 	mov	r5,zero
  800e4c:	08004c00 	call	8004c0 <LCD_SetCursor>
    }   
    Clr_Cs; 
  800e50:	0007883a 	mov	r3,zero
  800e54:	00804034 	movhi	r2,256
  800e58:	10883404 	addi	r2,r2,8400
  800e5c:	10c00035 	stwio	r3,0(r2)
    LCD_WriteIndex(0x0022);
  800e60:	01000884 	movi	r4,34
  800e64:	08002580 	call	800258 <LCD_WriteIndex>
  for( i = 0; i< 8; i++ )
  800e68:	e03fff15 	stw	zero,-4(fp)
  800e6c:	00001c06 	br	800ee0 <LCD_show_test+0x134>
    for( index = i*40 * 240; index < (i+1)*40 * 240; index++ )
  800e70:	e13fff17 	ldw	r4,-4(fp)
  800e74:	01496004 	movi	r5,9600
  800e78:	08031d00 	call	8031d0 <__mulsi3>
  800e7c:	e0bffe15 	stw	r2,-8(fp)
  800e80:	00000c06 	br	800eb4 <LCD_show_test+0x108>
    {
        LCD_WriteData(colorfol1[i]);
  800e84:	00802074 	movhi	r2,129
  800e88:	1087f604 	addi	r2,r2,8152
  800e8c:	e0ffff17 	ldw	r3,-4(fp)
  800e90:	18c7883a 	add	r3,r3,r3
  800e94:	10c5883a 	add	r2,r2,r3
  800e98:	1080000b 	ldhu	r2,0(r2)
  800e9c:	10bfffcc 	andi	r2,r2,65535
  800ea0:	1009883a 	mov	r4,r2
  800ea4:	08002dc0 	call	8002dc <LCD_WriteData>
        LCD_SetCursor(0,0); 
    }   
    Clr_Cs; 
    LCD_WriteIndex(0x0022);
  for( i = 0; i< 8; i++ )
    for( index = i*40 * 240; index < (i+1)*40 * 240; index++ )
  800ea8:	e0bffe17 	ldw	r2,-8(fp)
  800eac:	10800044 	addi	r2,r2,1
  800eb0:	e0bffe15 	stw	r2,-8(fp)
  800eb4:	e0bfff17 	ldw	r2,-4(fp)
  800eb8:	10800044 	addi	r2,r2,1
  800ebc:	1009883a 	mov	r4,r2
  800ec0:	01496004 	movi	r5,9600
  800ec4:	08031d00 	call	8031d0 <__mulsi3>
  800ec8:	1007883a 	mov	r3,r2
  800ecc:	e0bffe17 	ldw	r2,-8(fp)
  800ed0:	10ffec36 	bltu	r2,r3,800e84 <__reset+0xff7ff684>
    {   
        LCD_SetCursor(0,0); 
    }   
    Clr_Cs; 
    LCD_WriteIndex(0x0022);
  for( i = 0; i< 8; i++ )
  800ed4:	e0bfff17 	ldw	r2,-4(fp)
  800ed8:	10800044 	addi	r2,r2,1
  800edc:	e0bfff15 	stw	r2,-4(fp)
  800ee0:	e0bfff17 	ldw	r2,-4(fp)
  800ee4:	10800230 	cmpltui	r2,r2,8
  800ee8:	103fe11e 	bne	r2,zero,800e70 <__reset+0xff7ff670>
    for( index = i*40 * 240; index < (i+1)*40 * 240; index++ )
    {
        LCD_WriteData(colorfol1[i]);
    }
    while(1);
  800eec:	003fff06 	br	800eec <__reset+0xff7ff6ec>

00800ef0 <LCD_BGR2RGB>:
* Output         : None
* Return         : RGB color
* Attention      :
*******************************************************************************/
alt_u16 LCD_BGR2RGB(alt_u16 color)
{
  800ef0:	defffc04 	addi	sp,sp,-16
  800ef4:	df000315 	stw	fp,12(sp)
  800ef8:	df000304 	addi	fp,sp,12
  800efc:	2005883a 	mov	r2,r4
  800f00:	e0bfff0d 	sth	r2,-4(fp)
    alt_u16  r, g, b, rgb;
    
    b = ( color>>0 )  & 0x1f;
  800f04:	e0bfff0b 	ldhu	r2,-4(fp)
  800f08:	108007cc 	andi	r2,r2,31
  800f0c:	e0bffd0d 	sth	r2,-12(fp)
    g = ( color>>5 )  & 0x3f;
  800f10:	e0bfff0b 	ldhu	r2,-4(fp)
  800f14:	1004d17a 	srli	r2,r2,5
  800f18:	10800fcc 	andi	r2,r2,63
  800f1c:	e0bffd8d 	sth	r2,-10(fp)
    r = ( color>>11 ) & 0x1f;
  800f20:	e0bfff0b 	ldhu	r2,-4(fp)
  800f24:	1004d2fa 	srli	r2,r2,11
  800f28:	e0bffe0d 	sth	r2,-8(fp)
    
    rgb =  (b<<11) + (g<<5) + (r<<0);
  800f2c:	e0bffd0b 	ldhu	r2,-12(fp)
  800f30:	100492fa 	slli	r2,r2,11
  800f34:	1007883a 	mov	r3,r2
  800f38:	e0bffd8b 	ldhu	r2,-10(fp)
  800f3c:	1004917a 	slli	r2,r2,5
  800f40:	1885883a 	add	r2,r3,r2
  800f44:	1007883a 	mov	r3,r2
  800f48:	e0bffe0b 	ldhu	r2,-8(fp)
  800f4c:	1885883a 	add	r2,r3,r2
  800f50:	e0bffe8d 	sth	r2,-6(fp)
    
    return( rgb );
  800f54:	e0bffe8b 	ldhu	r2,-6(fp)
}
  800f58:	e037883a 	mov	sp,fp
  800f5c:	df000017 	ldw	fp,0(sp)
  800f60:	dec00104 	addi	sp,sp,4
  800f64:	f800283a 	ret

00800f68 <LCD_GetPoint>:
* Output         : None
* Return         : Screen Color
* Attention      : None
*******************************************************************************/
alt_u16 LCD_GetPoint(alt_u16 Xpos,alt_u16 Ypos)
{
  800f68:	defffa04 	addi	sp,sp,-24
  800f6c:	dfc00515 	stw	ra,20(sp)
  800f70:	df000415 	stw	fp,16(sp)
  800f74:	df000404 	addi	fp,sp,16
  800f78:	2007883a 	mov	r3,r4
  800f7c:	2805883a 	mov	r2,r5
  800f80:	e0fffe0d 	sth	r3,-8(fp)
  800f84:	e0bfff0d 	sth	r2,-4(fp)
    alt_u16 dummy;
    
    LCD_SetCursor(Xpos,Ypos);
  800f88:	e0fffe0b 	ldhu	r3,-8(fp)
  800f8c:	e0bfff0b 	ldhu	r2,-4(fp)
  800f90:	1809883a 	mov	r4,r3
  800f94:	100b883a 	mov	r5,r2
  800f98:	08004c00 	call	8004c0 <LCD_SetCursor>
    Clr_Cs;
  800f9c:	0007883a 	mov	r3,zero
  800fa0:	00804034 	movhi	r2,256
  800fa4:	10883404 	addi	r2,r2,8400
  800fa8:	10c00035 	stwio	r3,0(r2)
    LCD_WriteIndex(0x0022);  
  800fac:	01000884 	movi	r4,34
  800fb0:	08002580 	call	800258 <LCD_WriteIndex>
    
    switch( LCD_Code )
  800fb4:	d0a02c03 	ldbu	r2,-32592(gp)
  800fb8:	10803fcc 	andi	r2,r2,255
  800fbc:	10bfff04 	addi	r2,r2,-4
  800fc0:	10c00268 	cmpgeui	r3,r2,9
  800fc4:	1800351e 	bne	r3,zero,80109c <LCD_GetPoint+0x134>
  800fc8:	100690ba 	slli	r3,r2,2
  800fcc:	00802034 	movhi	r2,128
  800fd0:	1083f804 	addi	r2,r2,4064
  800fd4:	1885883a 	add	r2,r3,r2
  800fd8:	10800017 	ldw	r2,0(r2)
  800fdc:	1000683a 	jmp	r2
  800fe0:	00801004 	movi	r2,64
  800fe4:	00801004 	movi	r2,64
  800fe8:	00801004 	movi	r2,64
  800fec:	00801004 	movi	r2,64
  800ff0:	0080109c 	xori	r2,zero,66
  800ff4:	0080109c 	xori	r2,zero,66
  800ff8:	0080102c 	andhi	r2,zero,64
  800ffc:	0080102c 	andhi	r2,zero,64
  801000:	00801004 	movi	r2,64
        case ST7781:
        case LGDP4531:
        case LGDP4535:
        case SSD1289:
        case SSD1298:
      dummy = LCD_ReadData();
  801004:	08003500 	call	800350 <LCD_ReadData>
  801008:	e0bffc0d 	sth	r2,-16(fp)
      dummy = LCD_ReadData(); 
  80100c:	08003500 	call	800350 <LCD_ReadData>
  801010:	e0bffc0d 	sth	r2,-16(fp)
      Set_Cs;   
  801014:	00c00044 	movi	r3,1
  801018:	00804034 	movhi	r2,256
  80101c:	10883404 	addi	r2,r2,8400
  801020:	10c00035 	stwio	r3,0(r2)
          return  dummy;          
  801024:	e0bffc0b 	ldhu	r2,-16(fp)
  801028:	00002706 	br	8010c8 <LCD_GetPoint+0x160>
    case HX8347A:
      case HX8347D:
    {
      alt_u8 red,green,blue;
      red = LCD_ReadData()>>3;
  80102c:	08003500 	call	800350 <LCD_ReadData>
  801030:	10bfffcc 	andi	r2,r2,65535
  801034:	1004d0fa 	srli	r2,r2,3
  801038:	e0bffc85 	stb	r2,-14(fp)
      green = LCD_ReadData()>>3; 
  80103c:	08003500 	call	800350 <LCD_ReadData>
  801040:	10bfffcc 	andi	r2,r2,65535
  801044:	1004d0fa 	srli	r2,r2,3
  801048:	e0bffcc5 	stb	r2,-13(fp)
      blue = LCD_ReadData()>>2; 
  80104c:	08003500 	call	800350 <LCD_ReadData>
  801050:	10bfffcc 	andi	r2,r2,65535
  801054:	1004d0ba 	srli	r2,r2,2
  801058:	e0bffd05 	stb	r2,-12(fp)
      dummy = ( green << 11 ) | (blue << 5 ) | red;
  80105c:	e0bffcc3 	ldbu	r2,-13(fp)
  801060:	100492fa 	slli	r2,r2,11
  801064:	1007883a 	mov	r3,r2
  801068:	e0bffd03 	ldbu	r2,-12(fp)
  80106c:	1004917a 	slli	r2,r2,5
  801070:	1884b03a 	or	r2,r3,r2
  801074:	1007883a 	mov	r3,r2
  801078:	e0bffc83 	ldbu	r2,-14(fp)
  80107c:	1884b03a 	or	r2,r3,r2
  801080:	e0bffc0d 	sth	r2,-16(fp)
        }
      Set_Cs;   
  801084:	00c00044 	movi	r3,1
  801088:	00804034 	movhi	r2,256
  80108c:	10883404 	addi	r2,r2,8400
  801090:	10c00035 	stwio	r3,0(r2)
      return  dummy;
  801094:	e0bffc0b 	ldhu	r2,-16(fp)
  801098:	00000b06 	br	8010c8 <LCD_GetPoint+0x160>
    default:    /* 0x9320 0x9325 0x9328 0x9331 0x5408 0x1505 0x0505 0x9919 */
      dummy = LCD_ReadData();
  80109c:	08003500 	call	800350 <LCD_ReadData>
  8010a0:	e0bffc0d 	sth	r2,-16(fp)
      dummy = LCD_ReadData(); 
  8010a4:	08003500 	call	800350 <LCD_ReadData>
  8010a8:	e0bffc0d 	sth	r2,-16(fp)
      Set_Cs;   
  8010ac:	00c00044 	movi	r3,1
  8010b0:	00804034 	movhi	r2,256
  8010b4:	10883404 	addi	r2,r2,8400
  8010b8:	10c00035 	stwio	r3,0(r2)
      return  LCD_BGR2RGB( dummy );
  8010bc:	e0bffc0b 	ldhu	r2,-16(fp)
  8010c0:	1009883a 	mov	r4,r2
  8010c4:	0800ef00 	call	800ef0 <LCD_BGR2RGB>
    }
}
  8010c8:	e037883a 	mov	sp,fp
  8010cc:	dfc00117 	ldw	ra,4(sp)
  8010d0:	df000017 	ldw	fp,0(sp)
  8010d4:	dec00204 	addi	sp,sp,8
  8010d8:	f800283a 	ret

008010dc <LCD_SetPoint>:
* Output         : None
* Return         : None
* Attention      : None
*******************************************************************************/
void LCD_SetPoint(alt_u16 Xpos,alt_u16 Ypos,alt_u16 point)
{
  8010dc:	defffb04 	addi	sp,sp,-20
  8010e0:	dfc00415 	stw	ra,16(sp)
  8010e4:	df000315 	stw	fp,12(sp)
  8010e8:	df000304 	addi	fp,sp,12
  8010ec:	2807883a 	mov	r3,r5
  8010f0:	3005883a 	mov	r2,r6
  8010f4:	e13ffd0d 	sth	r4,-12(fp)
  8010f8:	e0fffe0d 	sth	r3,-8(fp)
  8010fc:	e0bfff0d 	sth	r2,-4(fp)
    if( Xpos >= MAX_X || Ypos >= MAX_Y )
  801100:	e0bffd0b 	ldhu	r2,-12(fp)
  801104:	10805028 	cmpgeui	r2,r2,320
  801108:	1000031e 	bne	r2,zero,801118 <LCD_SetPoint+0x3c>
  80110c:	e0bffe0b 	ldhu	r2,-8(fp)
  801110:	10803c30 	cmpltui	r2,r2,240
  801114:	1000011e 	bne	r2,zero,80111c <LCD_SetPoint+0x40>
    {
        return;
  801118:	00000906 	br	801140 <LCD_SetPoint+0x64>
    }
    LCD_SetCursor(Xpos,Ypos);
  80111c:	e0fffd0b 	ldhu	r3,-12(fp)
  801120:	e0bffe0b 	ldhu	r2,-8(fp)
  801124:	1809883a 	mov	r4,r3
  801128:	100b883a 	mov	r5,r2
  80112c:	08004c00 	call	8004c0 <LCD_SetCursor>
    LCD_WriteReg(0x0022,point);
  801130:	e0bfff0b 	ldhu	r2,-4(fp)
  801134:	01000884 	movi	r4,34
  801138:	100b883a 	mov	r5,r2
  80113c:	08003f00 	call	8003f0 <LCD_WriteReg>
}
  801140:	e037883a 	mov	sp,fp
  801144:	dfc00117 	ldw	ra,4(sp)
  801148:	df000017 	ldw	fp,0(sp)
  80114c:	dec00204 	addi	sp,sp,8
  801150:	f800283a 	ret

00801154 <LCD_DrawLine>:
* Output         : None
* Return         : None
* Attention      : None
*******************************************************************************/     
void LCD_DrawLine( alt_u16 x0, alt_u16 y0, alt_u16 x1, alt_u16 y1 , alt_u16 color )
{
  801154:	defff704 	addi	sp,sp,-36
  801158:	dfc00815 	stw	ra,32(sp)
  80115c:	df000715 	stw	fp,28(sp)
  801160:	df000704 	addi	fp,sp,28
  801164:	2011883a 	mov	r8,r4
  801168:	3009883a 	mov	r4,r6
  80116c:	3807883a 	mov	r3,r7
  801170:	e0800217 	ldw	r2,8(fp)
  801174:	e23ffb0d 	sth	r8,-20(fp)
  801178:	e17ffc0d 	sth	r5,-16(fp)
  80117c:	e13ffd0d 	sth	r4,-12(fp)
  801180:	e0fffe0d 	sth	r3,-8(fp)
  801184:	e0bfff0d 	sth	r2,-4(fp)
  short dx,dy;
  short temp;

  if( x0 > x1 )
  801188:	e0bffb0b 	ldhu	r2,-20(fp)
  80118c:	e0fffd0b 	ldhu	r3,-12(fp)
  801190:	1880062e 	bgeu	r3,r2,8011ac <LCD_DrawLine+0x58>
  {
    temp = x1;
  801194:	e0bffd0b 	ldhu	r2,-12(fp)
  801198:	e0bff90d 	sth	r2,-28(fp)
    x1 = x0;
  80119c:	e0bffb0b 	ldhu	r2,-20(fp)
  8011a0:	e0bffd0d 	sth	r2,-12(fp)
    x0 = temp;   
  8011a4:	e0bff90b 	ldhu	r2,-28(fp)
  8011a8:	e0bffb0d 	sth	r2,-20(fp)
  }
  if( y0 > y1 )
  8011ac:	e0bffc0b 	ldhu	r2,-16(fp)
  8011b0:	e0fffe0b 	ldhu	r3,-8(fp)
  8011b4:	1880062e 	bgeu	r3,r2,8011d0 <LCD_DrawLine+0x7c>
  {
    temp = y1;
  8011b8:	e0bffe0b 	ldhu	r2,-8(fp)
  8011bc:	e0bff90d 	sth	r2,-28(fp)
    y1 = y0;
  8011c0:	e0bffc0b 	ldhu	r2,-16(fp)
  8011c4:	e0bffe0d 	sth	r2,-8(fp)
    y0 = temp;   
  8011c8:	e0bff90b 	ldhu	r2,-28(fp)
  8011cc:	e0bffc0d 	sth	r2,-16(fp)
  }

  dx = x1-x0;
  8011d0:	e0fffd0b 	ldhu	r3,-12(fp)
  8011d4:	e0bffb0b 	ldhu	r2,-20(fp)
  8011d8:	1885c83a 	sub	r2,r3,r2
  8011dc:	e0bff98d 	sth	r2,-26(fp)
  dy = y1-y0;
  8011e0:	e0fffe0b 	ldhu	r3,-8(fp)
  8011e4:	e0bffc0b 	ldhu	r2,-16(fp)
  8011e8:	1885c83a 	sub	r2,r3,r2
  8011ec:	e0bffa0d 	sth	r2,-24(fp)

  if( dx == 0 )
  8011f0:	e0bff98f 	ldh	r2,-26(fp)
  8011f4:	10000d1e 	bne	r2,zero,80122c <LCD_DrawLine+0xd8>
  {
    do
    { 
      LCD_SetPoint(x0, y0, color);
  8011f8:	e13ffb0b 	ldhu	r4,-20(fp)
  8011fc:	e0fffc0b 	ldhu	r3,-16(fp)
  801200:	e0bfff0b 	ldhu	r2,-4(fp)
  801204:	180b883a 	mov	r5,r3
  801208:	100d883a 	mov	r6,r2
  80120c:	08010dc0 	call	8010dc <LCD_SetPoint>
      y0++;
  801210:	e0bffc0b 	ldhu	r2,-16(fp)
  801214:	10800044 	addi	r2,r2,1
  801218:	e0bffc0d 	sth	r2,-16(fp)
    }
    while( y1 >= y0 ); 
  80121c:	e0fffe0b 	ldhu	r3,-8(fp)
  801220:	e0bffc0b 	ldhu	r2,-16(fp)
  801224:	18bff42e 	bgeu	r3,r2,8011f8 <__reset+0xff7ff9f8>
    return; 
  801228:	00006d06 	br	8013e0 <LCD_DrawLine+0x28c>
  }
  if( dy == 0 )
  80122c:	e0bffa0f 	ldh	r2,-24(fp)
  801230:	10000d1e 	bne	r2,zero,801268 <LCD_DrawLine+0x114>
  {
    do
    {
      LCD_SetPoint(x0, y0, color);
  801234:	e13ffb0b 	ldhu	r4,-20(fp)
  801238:	e0fffc0b 	ldhu	r3,-16(fp)
  80123c:	e0bfff0b 	ldhu	r2,-4(fp)
  801240:	180b883a 	mov	r5,r3
  801244:	100d883a 	mov	r6,r2
  801248:	08010dc0 	call	8010dc <LCD_SetPoint>
      x0++;
  80124c:	e0bffb0b 	ldhu	r2,-20(fp)
  801250:	10800044 	addi	r2,r2,1
  801254:	e0bffb0d 	sth	r2,-20(fp)
    }
    while( x1 >= x0 ); 
  801258:	e0fffd0b 	ldhu	r3,-12(fp)
  80125c:	e0bffb0b 	ldhu	r2,-20(fp)
  801260:	18bff42e 	bgeu	r3,r2,801234 <__reset+0xff7ffa34>
        return;
  801264:	00005e06 	br	8013e0 <LCD_DrawLine+0x28c>
  }

    /* Bresenham's line algorithm  */
  if( dx > dy )
  801268:	e0bff98f 	ldh	r2,-26(fp)
  80126c:	e0fffa0f 	ldh	r3,-24(fp)
  801270:	18802e0e 	bge	r3,r2,80132c <LCD_DrawLine+0x1d8>
  {
    temp = 2 * dy - dx;
  801274:	e0bffa0b 	ldhu	r2,-24(fp)
  801278:	1085883a 	add	r2,r2,r2
  80127c:	1007883a 	mov	r3,r2
  801280:	e0bff98b 	ldhu	r2,-26(fp)
  801284:	1885c83a 	sub	r2,r3,r2
  801288:	e0bff90d 	sth	r2,-28(fp)
    while( x0 != x1 )
  80128c:	00001d06 	br	801304 <LCD_DrawLine+0x1b0>
    {
        LCD_SetPoint(x0,y0,color);
  801290:	e13ffb0b 	ldhu	r4,-20(fp)
  801294:	e0fffc0b 	ldhu	r3,-16(fp)
  801298:	e0bfff0b 	ldhu	r2,-4(fp)
  80129c:	180b883a 	mov	r5,r3
  8012a0:	100d883a 	mov	r6,r2
  8012a4:	08010dc0 	call	8010dc <LCD_SetPoint>
        x0++;
  8012a8:	e0bffb0b 	ldhu	r2,-20(fp)
  8012ac:	10800044 	addi	r2,r2,1
  8012b0:	e0bffb0d 	sth	r2,-20(fp)
        if( temp > 0 )
  8012b4:	e0bff90f 	ldh	r2,-28(fp)
  8012b8:	00800c0e 	bge	zero,r2,8012ec <LCD_DrawLine+0x198>
        {
          y0++;
  8012bc:	e0bffc0b 	ldhu	r2,-16(fp)
  8012c0:	10800044 	addi	r2,r2,1
  8012c4:	e0bffc0d 	sth	r2,-16(fp)
          temp += 2 * dy - 2 * dx; 
  8012c8:	e0fffa0f 	ldh	r3,-24(fp)
  8012cc:	e0bff98f 	ldh	r2,-26(fp)
  8012d0:	1885c83a 	sub	r2,r3,r2
  8012d4:	1085883a 	add	r2,r2,r2
  8012d8:	1007883a 	mov	r3,r2
  8012dc:	e0bff90b 	ldhu	r2,-28(fp)
  8012e0:	1885883a 	add	r2,r3,r2
  8012e4:	e0bff90d 	sth	r2,-28(fp)
  8012e8:	00000606 	br	801304 <LCD_DrawLine+0x1b0>
          }
      else         
      {
              temp += 2 * dy;
  8012ec:	e0bffa0b 	ldhu	r2,-24(fp)
  8012f0:	1085883a 	add	r2,r2,r2
  8012f4:	1007883a 	mov	r3,r2
  8012f8:	e0bff90b 	ldhu	r2,-28(fp)
  8012fc:	1885883a 	add	r2,r3,r2
  801300:	e0bff90d 	sth	r2,-28(fp)

    /* Bresenham's line algorithm  */
  if( dx > dy )
  {
    temp = 2 * dy - dx;
    while( x0 != x1 )
  801304:	e0fffb0b 	ldhu	r3,-20(fp)
  801308:	e0bffd0b 	ldhu	r2,-12(fp)
  80130c:	18bfe01e 	bne	r3,r2,801290 <__reset+0xff7ffa90>
      else         
      {
              temp += 2 * dy;
            }       
    }
    LCD_SetPoint(x0,y0,color);
  801310:	e13ffb0b 	ldhu	r4,-20(fp)
  801314:	e0fffc0b 	ldhu	r3,-16(fp)
  801318:	e0bfff0b 	ldhu	r2,-4(fp)
  80131c:	180b883a 	mov	r5,r3
  801320:	100d883a 	mov	r6,r2
  801324:	08010dc0 	call	8010dc <LCD_SetPoint>
  801328:	00002d06 	br	8013e0 <LCD_DrawLine+0x28c>
  }  
  else
  {
    temp = 2 * dx - dy;
  80132c:	e0bff98b 	ldhu	r2,-26(fp)
  801330:	1085883a 	add	r2,r2,r2
  801334:	1007883a 	mov	r3,r2
  801338:	e0bffa0b 	ldhu	r2,-24(fp)
  80133c:	1885c83a 	sub	r2,r3,r2
  801340:	e0bff90d 	sth	r2,-28(fp)
    while( y0 != y1 )
  801344:	00001d06 	br	8013bc <LCD_DrawLine+0x268>
    {
          LCD_SetPoint(x0,y0,color);     
  801348:	e13ffb0b 	ldhu	r4,-20(fp)
  80134c:	e0fffc0b 	ldhu	r3,-16(fp)
  801350:	e0bfff0b 	ldhu	r2,-4(fp)
  801354:	180b883a 	mov	r5,r3
  801358:	100d883a 	mov	r6,r2
  80135c:	08010dc0 	call	8010dc <LCD_SetPoint>
      y0++;                 
  801360:	e0bffc0b 	ldhu	r2,-16(fp)
  801364:	10800044 	addi	r2,r2,1
  801368:	e0bffc0d 	sth	r2,-16(fp)
      if( temp > 0 )           
  80136c:	e0bff90f 	ldh	r2,-28(fp)
  801370:	00800c0e 	bge	zero,r2,8013a4 <LCD_DrawLine+0x250>
      {
        x0++;               
  801374:	e0bffb0b 	ldhu	r2,-20(fp)
  801378:	10800044 	addi	r2,r2,1
  80137c:	e0bffb0d 	sth	r2,-20(fp)
        temp+=2*dy-2*dx; 
  801380:	e0fffa0f 	ldh	r3,-24(fp)
  801384:	e0bff98f 	ldh	r2,-26(fp)
  801388:	1885c83a 	sub	r2,r3,r2
  80138c:	1085883a 	add	r2,r2,r2
  801390:	1007883a 	mov	r3,r2
  801394:	e0bff90b 	ldhu	r2,-28(fp)
  801398:	1885883a 	add	r2,r3,r2
  80139c:	e0bff90d 	sth	r2,-28(fp)
  8013a0:	00000606 	br	8013bc <LCD_DrawLine+0x268>
      }
      else
            {
        temp += 2 * dy;
  8013a4:	e0bffa0b 	ldhu	r2,-24(fp)
  8013a8:	1085883a 	add	r2,r2,r2
  8013ac:	1007883a 	mov	r3,r2
  8013b0:	e0bff90b 	ldhu	r2,-28(fp)
  8013b4:	1885883a 	add	r2,r3,r2
  8013b8:	e0bff90d 	sth	r2,-28(fp)
    LCD_SetPoint(x0,y0,color);
  }  
  else
  {
    temp = 2 * dx - dy;
    while( y0 != y1 )
  8013bc:	e0fffc0b 	ldhu	r3,-16(fp)
  8013c0:	e0bffe0b 	ldhu	r2,-8(fp)
  8013c4:	18bfe01e 	bne	r3,r2,801348 <__reset+0xff7ffb48>
      else
            {
        temp += 2 * dy;
            }
    } 
    LCD_SetPoint(x0,y0,color);
  8013c8:	e13ffb0b 	ldhu	r4,-20(fp)
  8013cc:	e0fffc0b 	ldhu	r3,-16(fp)
  8013d0:	e0bfff0b 	ldhu	r2,-4(fp)
  8013d4:	180b883a 	mov	r5,r3
  8013d8:	100d883a 	mov	r6,r2
  8013dc:	08010dc0 	call	8010dc <LCD_SetPoint>
    }
} 
  8013e0:	e037883a 	mov	sp,fp
  8013e4:	dfc00117 	ldw	ra,4(sp)
  8013e8:	df000017 	ldw	fp,0(sp)
  8013ec:	dec00204 	addi	sp,sp,8
  8013f0:	f800283a 	ret

008013f4 <PutChar>:
* Output         : None
* Return         : None
* Attention      : None
*******************************************************************************/
void PutChar( alt_u16 Xpos, alt_u16 Ypos, alt_u8 ASCI, alt_u16 charColor, alt_u16 bkColor )
{
  8013f4:	defff304 	addi	sp,sp,-52
  8013f8:	dfc00c15 	stw	ra,48(sp)
  8013fc:	df000b15 	stw	fp,44(sp)
  801400:	df000b04 	addi	fp,sp,44
  801404:	2011883a 	mov	r8,r4
  801408:	3009883a 	mov	r4,r6
  80140c:	3807883a 	mov	r3,r7
  801410:	e0800217 	ldw	r2,8(fp)
  801414:	e23ffb0d 	sth	r8,-20(fp)
  801418:	e17ffc0d 	sth	r5,-16(fp)
  80141c:	e13ffd05 	stb	r4,-12(fp)
  801420:	e0fffe0d 	sth	r3,-8(fp)
  801424:	e0bfff0d 	sth	r2,-4(fp)
    alt_u16 i, j;
    alt_u8 buffer[16], tmp_char;
    GetASCIICode(buffer,ASCI);
  801428:	e0bffd03 	ldbu	r2,-12(fp)
  80142c:	e0fff644 	addi	r3,fp,-39
  801430:	1809883a 	mov	r4,r3
  801434:	100b883a 	mov	r5,r2
  801438:	08001f40 	call	8001f4 <GetASCIICode>
    for( i=0; i<16; i++ )
  80143c:	e03ff50d 	sth	zero,-44(fp)
  801440:	00003006 	br	801504 <PutChar+0x110>
    {
        tmp_char = buffer[i];
  801444:	e0bff50b 	ldhu	r2,-44(fp)
  801448:	e0fff644 	addi	r3,fp,-39
  80144c:	1885883a 	add	r2,r3,r2
  801450:	10800003 	ldbu	r2,0(r2)
  801454:	e0bff605 	stb	r2,-40(fp)
        for( j=0; j<8; j++ )
  801458:	e03ff58d 	sth	zero,-42(fp)
  80145c:	00002306 	br	8014ec <PutChar+0xf8>
        {
            if( (tmp_char >> 7 - j) & 0x01 == 0x01 )
  801460:	e0fff603 	ldbu	r3,-40(fp)
  801464:	e0bff58b 	ldhu	r2,-42(fp)
  801468:	010001c4 	movi	r4,7
  80146c:	2085c83a 	sub	r2,r4,r2
  801470:	1885d83a 	sra	r2,r3,r2
  801474:	1080004c 	andi	r2,r2,1
  801478:	10000d26 	beq	r2,zero,8014b0 <PutChar+0xbc>
            {
                LCD_SetPoint( Xpos + j, Ypos + i, charColor );
  80147c:	e0fffb0b 	ldhu	r3,-20(fp)
  801480:	e0bff58b 	ldhu	r2,-42(fp)
  801484:	1885883a 	add	r2,r3,r2
  801488:	113fffcc 	andi	r4,r2,65535
  80148c:	e0fffc0b 	ldhu	r3,-16(fp)
  801490:	e0bff50b 	ldhu	r2,-44(fp)
  801494:	1885883a 	add	r2,r3,r2
  801498:	10ffffcc 	andi	r3,r2,65535
  80149c:	e0bffe0b 	ldhu	r2,-8(fp)
  8014a0:	180b883a 	mov	r5,r3
  8014a4:	100d883a 	mov	r6,r2
  8014a8:	08010dc0 	call	8010dc <LCD_SetPoint>
  8014ac:	00000c06 	br	8014e0 <PutChar+0xec>
            }
            else
            {
                LCD_SetPoint( Xpos + j, Ypos + i, bkColor );
  8014b0:	e0fffb0b 	ldhu	r3,-20(fp)
  8014b4:	e0bff58b 	ldhu	r2,-42(fp)
  8014b8:	1885883a 	add	r2,r3,r2
  8014bc:	113fffcc 	andi	r4,r2,65535
  8014c0:	e0fffc0b 	ldhu	r3,-16(fp)
  8014c4:	e0bff50b 	ldhu	r2,-44(fp)
  8014c8:	1885883a 	add	r2,r3,r2
  8014cc:	10ffffcc 	andi	r3,r2,65535
  8014d0:	e0bfff0b 	ldhu	r2,-4(fp)
  8014d4:	180b883a 	mov	r5,r3
  8014d8:	100d883a 	mov	r6,r2
  8014dc:	08010dc0 	call	8010dc <LCD_SetPoint>
    alt_u8 buffer[16], tmp_char;
    GetASCIICode(buffer,ASCI);
    for( i=0; i<16; i++ )
    {
        tmp_char = buffer[i];
        for( j=0; j<8; j++ )
  8014e0:	e0bff58b 	ldhu	r2,-42(fp)
  8014e4:	10800044 	addi	r2,r2,1
  8014e8:	e0bff58d 	sth	r2,-42(fp)
  8014ec:	e0bff58b 	ldhu	r2,-42(fp)
  8014f0:	10800230 	cmpltui	r2,r2,8
  8014f4:	103fda1e 	bne	r2,zero,801460 <__reset+0xff7ffc60>
void PutChar( alt_u16 Xpos, alt_u16 Ypos, alt_u8 ASCI, alt_u16 charColor, alt_u16 bkColor )
{
    alt_u16 i, j;
    alt_u8 buffer[16], tmp_char;
    GetASCIICode(buffer,ASCI);
    for( i=0; i<16; i++ )
  8014f8:	e0bff50b 	ldhu	r2,-44(fp)
  8014fc:	10800044 	addi	r2,r2,1
  801500:	e0bff50d 	sth	r2,-44(fp)
  801504:	e0bff50b 	ldhu	r2,-44(fp)
  801508:	10800430 	cmpltui	r2,r2,16
  80150c:	103fcd1e 	bne	r2,zero,801444 <__reset+0xff7ffc44>
            {
                LCD_SetPoint( Xpos + j, Ypos + i, bkColor );
            }
        }
    }
}
  801510:	e037883a 	mov	sp,fp
  801514:	dfc00117 	ldw	ra,4(sp)
  801518:	df000017 	ldw	fp,0(sp)
  80151c:	dec00204 	addi	sp,sp,8
  801520:	f800283a 	ret

00801524 <GUI_Text>:
* Output         : None
* Return         : None
* Attention      : None
*******************************************************************************/
void GUI_Text(alt_u16 Xpos, alt_u16 Ypos, alt_u8 *str,alt_u16 Color, alt_u16 bkColor)
{
  801524:	defff704 	addi	sp,sp,-36
  801528:	dfc00815 	stw	ra,32(sp)
  80152c:	df000715 	stw	fp,28(sp)
  801530:	df000704 	addi	fp,sp,28
  801534:	2011883a 	mov	r8,r4
  801538:	2809883a 	mov	r4,r5
  80153c:	e1bffd15 	stw	r6,-12(fp)
  801540:	3807883a 	mov	r3,r7
  801544:	e0800217 	ldw	r2,8(fp)
  801548:	e23ffb0d 	sth	r8,-20(fp)
  80154c:	e13ffc0d 	sth	r4,-16(fp)
  801550:	e0fffe0d 	sth	r3,-8(fp)
  801554:	e0bfff0d 	sth	r2,-4(fp)
    alt_u8 TempChar;
    do
    {
        TempChar = *str++;  
  801558:	e0bffd17 	ldw	r2,-12(fp)
  80155c:	10c00044 	addi	r3,r2,1
  801560:	e0fffd15 	stw	r3,-12(fp)
  801564:	10800003 	ldbu	r2,0(r2)
  801568:	e0bffa05 	stb	r2,-24(fp)
        PutChar( Xpos, Ypos, TempChar, Color, bkColor );    
  80156c:	e13ffb0b 	ldhu	r4,-20(fp)
  801570:	e17ffc0b 	ldhu	r5,-16(fp)
  801574:	e1bffa03 	ldbu	r6,-24(fp)
  801578:	e0fffe0b 	ldhu	r3,-8(fp)
  80157c:	e0bfff0b 	ldhu	r2,-4(fp)
  801580:	d8800015 	stw	r2,0(sp)
  801584:	180f883a 	mov	r7,r3
  801588:	08013f40 	call	8013f4 <PutChar>
        if( Xpos < MAX_X - 8 )
  80158c:	e0bffb0b 	ldhu	r2,-20(fp)
  801590:	10804e28 	cmpgeui	r2,r2,312
  801594:	1000041e 	bne	r2,zero,8015a8 <GUI_Text+0x84>
        {
            Xpos += 8;
  801598:	e0bffb0b 	ldhu	r2,-20(fp)
  80159c:	10800204 	addi	r2,r2,8
  8015a0:	e0bffb0d 	sth	r2,-20(fp)
  8015a4:	00000a06 	br	8015d0 <GUI_Text+0xac>
        } 
        else if ( Ypos < MAX_Y - 16 )
  8015a8:	e0bffc0b 	ldhu	r2,-16(fp)
  8015ac:	10803828 	cmpgeui	r2,r2,224
  8015b0:	1000051e 	bne	r2,zero,8015c8 <GUI_Text+0xa4>
        {
            Xpos = 0;
  8015b4:	e03ffb0d 	sth	zero,-20(fp)
            Ypos += 16;
  8015b8:	e0bffc0b 	ldhu	r2,-16(fp)
  8015bc:	10800404 	addi	r2,r2,16
  8015c0:	e0bffc0d 	sth	r2,-16(fp)
  8015c4:	00000206 	br	8015d0 <GUI_Text+0xac>
        }   
        else
        {
            Xpos = 0;
  8015c8:	e03ffb0d 	sth	zero,-20(fp)
            Ypos = 0;
  8015cc:	e03ffc0d 	sth	zero,-16(fp)
        }    
    }
    while ( *str != 0 );
  8015d0:	e0bffd17 	ldw	r2,-12(fp)
  8015d4:	10800003 	ldbu	r2,0(r2)
  8015d8:	10803fcc 	andi	r2,r2,255
  8015dc:	103fde1e 	bne	r2,zero,801558 <__reset+0xff7ffd58>
}
  8015e0:	e037883a 	mov	sp,fp
  8015e4:	dfc00117 	ldw	ra,4(sp)
  8015e8:	df000017 	ldw	fp,0(sp)
  8015ec:	dec00204 	addi	sp,sp,8
  8015f0:	f800283a 	ret

008015f4 <vid_draw_line>:

__inline__ void vid_draw_line(int horiz_start, int vert_start, int horiz_end, int vert_end, int width, int color)
{
  8015f4:	defff804 	addi	sp,sp,-32
  8015f8:	dfc00715 	stw	ra,28(sp)
  8015fc:	df000615 	stw	fp,24(sp)
  801600:	df000604 	addi	fp,sp,24
  801604:	e13ffc15 	stw	r4,-16(fp)
  801608:	e17ffd15 	stw	r5,-12(fp)
  80160c:	e1bffe15 	stw	r6,-8(fp)
  801610:	e1ffff15 	stw	r7,-4(fp)

  if( vert_start == vert_end )
  801614:	e0fffd17 	ldw	r3,-12(fp)
  801618:	e0bfff17 	ldw	r2,-4(fp)
  80161c:	18800f1e 	bne	r3,r2,80165c <vid_draw_line+0x68>
//                         (unsigned short)horiz_end,
//                         (unsigned short)vert_start,
//                         color,
//                         display->buffer_ptrs[display->buffer_being_written]->buffer);

    vid_draw_horiz_line( (unsigned short)horiz_start,
  801620:	e0bffc17 	ldw	r2,-16(fp)
  801624:	113fffcc 	andi	r4,r2,65535
  801628:	2120001c 	xori	r4,r4,32768
  80162c:	21200004 	addi	r4,r4,-32768
  801630:	e0bffe17 	ldw	r2,-8(fp)
  801634:	10ffffcc 	andi	r3,r2,65535
  801638:	18e0001c 	xori	r3,r3,32768
  80163c:	18e00004 	addi	r3,r3,-32768
                         (unsigned short)horiz_end,
                         (unsigned short)vert_start,
  801640:	e0bffd17 	ldw	r2,-12(fp)
//                         (unsigned short)horiz_end,
//                         (unsigned short)vert_start,
//                         color,
//                         display->buffer_ptrs[display->buffer_being_written]->buffer);

    vid_draw_horiz_line( (unsigned short)horiz_start,
  801644:	10bfffcc 	andi	r2,r2,65535
  801648:	180b883a 	mov	r5,r3
  80164c:	100d883a 	mov	r6,r2
  801650:	e1c00317 	ldw	r7,12(fp)
  801654:	08017000 	call	801700 <vid_draw_horiz_line>
  801658:	00000f06 	br	801698 <vid_draw_line+0xa4>
                         (unsigned short)vert_start,
                         color);
  }
  else
  {
    vid_draw_sloped_line( (unsigned short)horiz_start,
  80165c:	e0bffc17 	ldw	r2,-16(fp)
  801660:	113fffcc 	andi	r4,r2,65535
                          (unsigned short)vert_start,
  801664:	e0bffd17 	ldw	r2,-12(fp)
                         (unsigned short)vert_start,
                         color);
  }
  else
  {
    vid_draw_sloped_line( (unsigned short)horiz_start,
  801668:	117fffcc 	andi	r5,r2,65535
                          (unsigned short)vert_start,
                          (unsigned short)horiz_end,
  80166c:	e0bffe17 	ldw	r2,-8(fp)
                         (unsigned short)vert_start,
                         color);
  }
  else
  {
    vid_draw_sloped_line( (unsigned short)horiz_start,
  801670:	11bfffcc 	andi	r6,r2,65535
                          (unsigned short)vert_start,
                          (unsigned short)horiz_end,
                          (unsigned short)vert_end,
  801674:	e0bfff17 	ldw	r2,-4(fp)
                         (unsigned short)vert_start,
                         color);
  }
  else
  {
    vid_draw_sloped_line( (unsigned short)horiz_start,
  801678:	10ffffcc 	andi	r3,r2,65535
                          (unsigned short)vert_start,
                          (unsigned short)horiz_end,
                          (unsigned short)vert_end,
                          (unsigned short)width,
  80167c:	e0800217 	ldw	r2,8(fp)
                         (unsigned short)vert_start,
                         color);
  }
  else
  {
    vid_draw_sloped_line( (unsigned short)horiz_start,
  801680:	10bfffcc 	andi	r2,r2,65535
  801684:	d8800015 	stw	r2,0(sp)
  801688:	e0800317 	ldw	r2,12(fp)
  80168c:	d8800115 	stw	r2,4(sp)
  801690:	180f883a 	mov	r7,r3
  801694:	08017740 	call	801774 <vid_draw_sloped_line>
                          (unsigned short)horiz_end,
                          (unsigned short)vert_end,
                          (unsigned short)width,
                          color );
  }
}
  801698:	e037883a 	mov	sp,fp
  80169c:	dfc00117 	ldw	ra,4(sp)
  8016a0:	df000017 	ldw	fp,0(sp)
  8016a4:	dec00204 	addi	sp,sp,8
  8016a8:	f800283a 	ret

008016ac <vid_set_pixel>:


void vid_set_pixel(int horiz, int vert, unsigned int color){
  8016ac:	defffb04 	addi	sp,sp,-20
  8016b0:	dfc00415 	stw	ra,16(sp)
  8016b4:	df000315 	stw	fp,12(sp)
  8016b8:	df000304 	addi	fp,sp,12
  8016bc:	e13ffd15 	stw	r4,-12(fp)
  8016c0:	e17ffe15 	stw	r5,-8(fp)
  8016c4:	e1bfff15 	stw	r6,-4(fp)
	LCD_SetPoint(horiz,vert,color);
  8016c8:	e0bffd17 	ldw	r2,-12(fp)
  8016cc:	113fffcc 	andi	r4,r2,65535
  8016d0:	e0bffe17 	ldw	r2,-8(fp)
  8016d4:	10ffffcc 	andi	r3,r2,65535
  8016d8:	e0bfff17 	ldw	r2,-4(fp)
  8016dc:	10bfffcc 	andi	r2,r2,65535
  8016e0:	180b883a 	mov	r5,r3
  8016e4:	100d883a 	mov	r6,r2
  8016e8:	08010dc0 	call	8010dc <LCD_SetPoint>
}
  8016ec:	e037883a 	mov	sp,fp
  8016f0:	dfc00117 	ldw	ra,4(sp)
  8016f4:	df000017 	ldw	fp,0(sp)
  8016f8:	dec00204 	addi	sp,sp,8
  8016fc:	f800283a 	ret

00801700 <vid_draw_horiz_line>:

void vid_draw_horiz_line (short Hstart, short Hend, int V, int color)
{
  801700:	defff904 	addi	sp,sp,-28
  801704:	dfc00615 	stw	ra,24(sp)
  801708:	df000515 	stw	fp,20(sp)
  80170c:	df000504 	addi	fp,sp,20
  801710:	2007883a 	mov	r3,r4
  801714:	2805883a 	mov	r2,r5
  801718:	e1bffe15 	stw	r6,-8(fp)
  80171c:	e1ffff15 	stw	r7,-4(fp)
  801720:	e0fffc0d 	sth	r3,-16(fp)
  801724:	e0bffd0d 	sth	r2,-12(fp)
	int x;
	for(x=Hstart;x<Hend;x++){
  801728:	e0bffc0f 	ldh	r2,-16(fp)
  80172c:	e0bffb15 	stw	r2,-20(fp)
  801730:	00000806 	br	801754 <vid_draw_horiz_line+0x54>
		vid_set_pixel(x, V, color);
  801734:	e0bfff17 	ldw	r2,-4(fp)
  801738:	e13ffb17 	ldw	r4,-20(fp)
  80173c:	e17ffe17 	ldw	r5,-8(fp)
  801740:	100d883a 	mov	r6,r2
  801744:	08016ac0 	call	8016ac <vid_set_pixel>
}

void vid_draw_horiz_line (short Hstart, short Hend, int V, int color)
{
	int x;
	for(x=Hstart;x<Hend;x++){
  801748:	e0bffb17 	ldw	r2,-20(fp)
  80174c:	10800044 	addi	r2,r2,1
  801750:	e0bffb15 	stw	r2,-20(fp)
  801754:	e0bffd0f 	ldh	r2,-12(fp)
  801758:	e0fffb17 	ldw	r3,-20(fp)
  80175c:	18bff516 	blt	r3,r2,801734 <__reset+0xff7fff34>
		vid_set_pixel(x, V, color);
	}
}
  801760:	e037883a 	mov	sp,fp
  801764:	dfc00117 	ldw	ra,4(sp)
  801768:	df000017 	ldw	fp,0(sp)
  80176c:	dec00204 	addi	sp,sp,8
  801770:	f800283a 	ret

00801774 <vid_draw_sloped_line>:
                           unsigned short vert_start,
                           unsigned short horiz_end,
                           unsigned short vert_end,
                           unsigned short width,
                           int color)
{
  801774:	deffef04 	addi	sp,sp,-68
  801778:	dfc01015 	stw	ra,64(sp)
  80177c:	df000f15 	stw	fp,60(sp)
  801780:	df000f04 	addi	fp,sp,60
  801784:	2011883a 	mov	r8,r4
  801788:	3009883a 	mov	r4,r6
  80178c:	3807883a 	mov	r3,r7
  801790:	e0800217 	ldw	r2,8(fp)
  801794:	e23ffb0d 	sth	r8,-20(fp)
  801798:	e17ffc0d 	sth	r5,-16(fp)
  80179c:	e13ffd0d 	sth	r4,-12(fp)
  8017a0:	e0fffe0d 	sth	r3,-8(fp)
  8017a4:	e0bfff0d 	sth	r2,-4(fp)
  // Find the vertical and horizontal distance between the two points
  int horiz_delta = abs(horiz_end-horiz_start);
  8017a8:	e0fffd0b 	ldhu	r3,-12(fp)
  8017ac:	e0bffb0b 	ldhu	r2,-20(fp)
  8017b0:	1885c83a 	sub	r2,r3,r2
  8017b4:	1000010e 	bge	r2,zero,8017bc <vid_draw_sloped_line+0x48>
  8017b8:	0085c83a 	sub	r2,zero,r2
  8017bc:	e0bff115 	stw	r2,-60(fp)
  int vert_delta = abs(vert_end-vert_start);
  8017c0:	e0fffe0b 	ldhu	r3,-8(fp)
  8017c4:	e0bffc0b 	ldhu	r2,-16(fp)
  8017c8:	1885c83a 	sub	r2,r3,r2
  8017cc:	1000010e 	bge	r2,zero,8017d4 <vid_draw_sloped_line+0x60>
  8017d0:	0085c83a 	sub	r2,zero,r2
  8017d4:	e0bff215 	stw	r2,-56(fp)

  // Find out what direction we are going
  int horiz_incr, vert_incr;
  if (horiz_start > horiz_end) { horiz_incr=-1; } else { horiz_incr=1; }
  8017d8:	e0bffb0b 	ldhu	r2,-20(fp)
  8017dc:	e0fffd0b 	ldhu	r3,-12(fp)
  8017e0:	1880032e 	bgeu	r3,r2,8017f0 <vid_draw_sloped_line+0x7c>
  8017e4:	00bfffc4 	movi	r2,-1
  8017e8:	e0bff315 	stw	r2,-52(fp)
  8017ec:	00000206 	br	8017f8 <vid_draw_sloped_line+0x84>
  8017f0:	00800044 	movi	r2,1
  8017f4:	e0bff315 	stw	r2,-52(fp)
  if (vert_start > vert_end) { vert_incr=-1; } else { vert_incr=1; }
  8017f8:	e0bffc0b 	ldhu	r2,-16(fp)
  8017fc:	e0fffe0b 	ldhu	r3,-8(fp)
  801800:	1880032e 	bgeu	r3,r2,801810 <vid_draw_sloped_line+0x9c>
  801804:	00bfffc4 	movi	r2,-1
  801808:	e0bff415 	stw	r2,-48(fp)
  80180c:	00000206 	br	801818 <vid_draw_sloped_line+0xa4>
  801810:	00800044 	movi	r2,1
  801814:	e0bff415 	stw	r2,-48(fp)

  // Find out which axis is always incremented when drawing the line
  // If it's the horizontal axis
  if (horiz_delta >= vert_delta) {
  801818:	e0fff117 	ldw	r3,-60(fp)
  80181c:	e0bff217 	ldw	r2,-56(fp)
  801820:	18803516 	blt	r3,r2,8018f8 <vid_draw_sloped_line+0x184>
    int dPr   = vert_delta<<1;
  801824:	e0bff217 	ldw	r2,-56(fp)
  801828:	1085883a 	add	r2,r2,r2
  80182c:	e0bff715 	stw	r2,-36(fp)
    int dPru  = dPr - (horiz_delta<<1);
  801830:	e0bff117 	ldw	r2,-60(fp)
  801834:	1085883a 	add	r2,r2,r2
  801838:	1007883a 	mov	r3,r2
  80183c:	e0bff717 	ldw	r2,-36(fp)
  801840:	10c5c83a 	sub	r2,r2,r3
  801844:	e0bff815 	stw	r2,-32(fp)
    int P     = dPr - horiz_delta;
  801848:	e0fff717 	ldw	r3,-36(fp)
  80184c:	e0bff117 	ldw	r2,-60(fp)
  801850:	1885c83a 	sub	r2,r3,r2
  801854:	e0bff515 	stw	r2,-44(fp)

    // Process the line, one horizontal point at at time
    for (; horiz_delta >= 0; horiz_delta--) {
  801858:	00002406 	br	8018ec <vid_draw_sloped_line+0x178>
      // plot the pixel
      LCD_SetPoint(horiz_start,vert_start,color);
  80185c:	e13ffb0b 	ldhu	r4,-20(fp)
  801860:	e0fffc0b 	ldhu	r3,-16(fp)
  801864:	e0800317 	ldw	r2,12(fp)
  801868:	10bfffcc 	andi	r2,r2,65535
  80186c:	180b883a 	mov	r5,r3
  801870:	100d883a 	mov	r6,r2
  801874:	08010dc0 	call	8010dc <LCD_SetPoint>
      // If we're moving both up and right
      if (P > 0) {
  801878:	e0bff517 	ldw	r2,-44(fp)
  80187c:	00800f0e 	bge	zero,r2,8018bc <vid_draw_sloped_line+0x148>
        horiz_start+=horiz_incr;
  801880:	e0bff317 	ldw	r2,-52(fp)
  801884:	1007883a 	mov	r3,r2
  801888:	e0bffb0b 	ldhu	r2,-20(fp)
  80188c:	1885883a 	add	r2,r3,r2
  801890:	e0bffb0d 	sth	r2,-20(fp)
        vert_start+=vert_incr;
  801894:	e0bff417 	ldw	r2,-48(fp)
  801898:	1007883a 	mov	r3,r2
  80189c:	e0bffc0b 	ldhu	r2,-16(fp)
  8018a0:	1885883a 	add	r2,r3,r2
  8018a4:	e0bffc0d 	sth	r2,-16(fp)
        P+=dPru;
  8018a8:	e0fff517 	ldw	r3,-44(fp)
  8018ac:	e0bff817 	ldw	r2,-32(fp)
  8018b0:	1885883a 	add	r2,r3,r2
  8018b4:	e0bff515 	stw	r2,-44(fp)
  8018b8:	00000906 	br	8018e0 <vid_draw_sloped_line+0x16c>
      } else {
        horiz_start+=horiz_incr;
  8018bc:	e0bff317 	ldw	r2,-52(fp)
  8018c0:	1007883a 	mov	r3,r2
  8018c4:	e0bffb0b 	ldhu	r2,-20(fp)
  8018c8:	1885883a 	add	r2,r3,r2
  8018cc:	e0bffb0d 	sth	r2,-20(fp)
        P+=dPr;
  8018d0:	e0fff517 	ldw	r3,-44(fp)
  8018d4:	e0bff717 	ldw	r2,-36(fp)
  8018d8:	1885883a 	add	r2,r3,r2
  8018dc:	e0bff515 	stw	r2,-44(fp)
    int dPr   = vert_delta<<1;
    int dPru  = dPr - (horiz_delta<<1);
    int P     = dPr - horiz_delta;

    // Process the line, one horizontal point at at time
    for (; horiz_delta >= 0; horiz_delta--) {
  8018e0:	e0bff117 	ldw	r2,-60(fp)
  8018e4:	10bfffc4 	addi	r2,r2,-1
  8018e8:	e0bff115 	stw	r2,-60(fp)
  8018ec:	e0bff117 	ldw	r2,-60(fp)
  8018f0:	103fda0e 	bge	r2,zero,80185c <__reset+0xff80005c>
  8018f4:	00003406 	br	8019c8 <vid_draw_sloped_line+0x254>
        P+=dPr;
      }
    }
  // If it's the vertical axis
  } else {
    int dPr   = horiz_delta<<1;
  8018f8:	e0bff117 	ldw	r2,-60(fp)
  8018fc:	1085883a 	add	r2,r2,r2
  801900:	e0bff915 	stw	r2,-28(fp)
    int dPru  = dPr - (vert_delta<<1);
  801904:	e0bff217 	ldw	r2,-56(fp)
  801908:	1085883a 	add	r2,r2,r2
  80190c:	1007883a 	mov	r3,r2
  801910:	e0bff917 	ldw	r2,-28(fp)
  801914:	10c5c83a 	sub	r2,r2,r3
  801918:	e0bffa15 	stw	r2,-24(fp)
    int P     = dPr - vert_delta;
  80191c:	e0fff917 	ldw	r3,-28(fp)
  801920:	e0bff217 	ldw	r2,-56(fp)
  801924:	1885c83a 	sub	r2,r3,r2
  801928:	e0bff615 	stw	r2,-40(fp)

    // Process the line, one vertical point at at time
    for (; vert_delta>=0; vert_delta--) {
  80192c:	00002406 	br	8019c0 <vid_draw_sloped_line+0x24c>
      // plot the pixel
      LCD_SetPoint(horiz_start,vert_start,color);
  801930:	e13ffb0b 	ldhu	r4,-20(fp)
  801934:	e0fffc0b 	ldhu	r3,-16(fp)
  801938:	e0800317 	ldw	r2,12(fp)
  80193c:	10bfffcc 	andi	r2,r2,65535
  801940:	180b883a 	mov	r5,r3
  801944:	100d883a 	mov	r6,r2
  801948:	08010dc0 	call	8010dc <LCD_SetPoint>
      // If we're moving both up and right
      if (P > 0) {
  80194c:	e0bff617 	ldw	r2,-40(fp)
  801950:	00800f0e 	bge	zero,r2,801990 <vid_draw_sloped_line+0x21c>
        horiz_start+=horiz_incr;
  801954:	e0bff317 	ldw	r2,-52(fp)
  801958:	1007883a 	mov	r3,r2
  80195c:	e0bffb0b 	ldhu	r2,-20(fp)
  801960:	1885883a 	add	r2,r3,r2
  801964:	e0bffb0d 	sth	r2,-20(fp)
        vert_start+=vert_incr;
  801968:	e0bff417 	ldw	r2,-48(fp)
  80196c:	1007883a 	mov	r3,r2
  801970:	e0bffc0b 	ldhu	r2,-16(fp)
  801974:	1885883a 	add	r2,r3,r2
  801978:	e0bffc0d 	sth	r2,-16(fp)
        P+=dPru;
  80197c:	e0fff617 	ldw	r3,-40(fp)
  801980:	e0bffa17 	ldw	r2,-24(fp)
  801984:	1885883a 	add	r2,r3,r2
  801988:	e0bff615 	stw	r2,-40(fp)
  80198c:	00000906 	br	8019b4 <vid_draw_sloped_line+0x240>
      } else {
        vert_start+=vert_incr;
  801990:	e0bff417 	ldw	r2,-48(fp)
  801994:	1007883a 	mov	r3,r2
  801998:	e0bffc0b 	ldhu	r2,-16(fp)
  80199c:	1885883a 	add	r2,r3,r2
  8019a0:	e0bffc0d 	sth	r2,-16(fp)
        P+=dPr;
  8019a4:	e0fff617 	ldw	r3,-40(fp)
  8019a8:	e0bff917 	ldw	r2,-28(fp)
  8019ac:	1885883a 	add	r2,r3,r2
  8019b0:	e0bff615 	stw	r2,-40(fp)
    int dPr   = horiz_delta<<1;
    int dPru  = dPr - (vert_delta<<1);
    int P     = dPr - vert_delta;

    // Process the line, one vertical point at at time
    for (; vert_delta>=0; vert_delta--) {
  8019b4:	e0bff217 	ldw	r2,-56(fp)
  8019b8:	10bfffc4 	addi	r2,r2,-1
  8019bc:	e0bff215 	stw	r2,-56(fp)
  8019c0:	e0bff217 	ldw	r2,-56(fp)
  8019c4:	103fda0e 	bge	r2,zero,801930 <__reset+0xff800130>
        vert_start+=vert_incr;
        P+=dPr;
      }
    }
  }
}
  8019c8:	e037883a 	mov	sp,fp
  8019cc:	dfc00117 	ldw	ra,4(sp)
  8019d0:	df000017 	ldw	fp,0(sp)
  8019d4:	dec00204 	addi	sp,sp,8
  8019d8:	f800283a 	ret

008019dc <delay_ms>:



void delay_ms(alt_u16 ms){
  8019dc:	defffc04 	addi	sp,sp,-16
  8019e0:	dfc00315 	stw	ra,12(sp)
  8019e4:	df000215 	stw	fp,8(sp)
  8019e8:	df000204 	addi	fp,sp,8
  8019ec:	2005883a 	mov	r2,r4
  8019f0:	e0bfff0d 	sth	r2,-4(fp)
	int msd=1000*ms;
  8019f4:	e0bfff0b 	ldhu	r2,-4(fp)
  8019f8:	1009883a 	mov	r4,r2
  8019fc:	0140fa04 	movi	r5,1000
  801a00:	08031d00 	call	8031d0 <__mulsi3>
  801a04:	e0bffe15 	stw	r2,-8(fp)
	while(msd<0){
  801a08:	00000506 	br	801a20 <delay_ms+0x44>
		usleep(1);
  801a0c:	01000044 	movi	r4,1
  801a10:	0805c040 	call	805c04 <usleep>
		msd--;
  801a14:	e0bffe17 	ldw	r2,-8(fp)
  801a18:	10bfffc4 	addi	r2,r2,-1
  801a1c:	e0bffe15 	stw	r2,-8(fp)



void delay_ms(alt_u16 ms){
	int msd=1000*ms;
	while(msd<0){
  801a20:	e0bffe17 	ldw	r2,-8(fp)
  801a24:	103ff916 	blt	r2,zero,801a0c <__reset+0xff80020c>
		usleep(1);
		msd--;
	}
}
  801a28:	e037883a 	mov	sp,fp
  801a2c:	dfc00117 	ldw	ra,4(sp)
  801a30:	df000017 	ldw	fp,0(sp)
  801a34:	dec00204 	addi	sp,sp,8
  801a38:	f800283a 	ret

00801a3c <main>:
#include "touch.h"

#define DIRECTION_PA(data)  IOWR_ALTERA_AVALON_PIO_DIRECTION(PA_BASE, data)
#define DATA_PA(data)  IOWR_ALTERA_AVALON_PIO_DATA(PA_BASE, data)
int main(void)
{     
  801a3c:	defff904 	addi	sp,sp,-28
  801a40:	dfc00615 	stw	ra,24(sp)
  801a44:	df000515 	stw	fp,20(sp)
  801a48:	dc800415 	stw	r18,16(sp)
  801a4c:	dc400315 	stw	r17,12(sp)
  801a50:	dc000215 	stw	r16,8(sp)
  801a54:	df000504 	addi	fp,sp,20
       IOWR_ALTERA_AVALON_PIO_DATA(BL_P_BASE, 1);
  801a58:	00c00044 	movi	r3,1
  801a5c:	00804034 	movhi	r2,256
  801a60:	10881404 	addi	r2,r2,8272
  801a64:	10c00035 	stwio	r3,0(r2)
       IOWR_ALTERA_AVALON_PIO_DATA(BL_N_BASE, 0);
  801a68:	0007883a 	mov	r3,zero
  801a6c:	00804034 	movhi	r2,256
  801a70:	10881004 	addi	r2,r2,8256
  801a74:	10c00035 	stwio	r3,0(r2)
       
       //TP_Init();
	   LCD_Initializtion();
  801a78:	08006080 	call	800608 <LCD_Initializtion>
//       LCD_Clear(Green);
//       LCD_Clear(Cyan);
//
//      //LCD_show_test();
//
        TouchPanel_Calibrate();
  801a7c:	0802ef80 	call	802ef8 <TouchPanel_Calibrate>

        LCD_Clear(Black);
  801a80:	0009883a 	mov	r4,zero
  801a84:	0800c940 	call	800c94 <LCD_Clear>
   
    while (1)  
  {
    //getDisplayPoint(&display, Read_Ads7846(), &matrix ) ;
    //TP_DrawPoint(display.x,display.y);
   DrawCross( 17,200);
  801a88:	01000444 	movi	r4,17
  801a8c:	01403204 	movi	r5,200
  801a90:	0801ea00 	call	801ea0 <DrawCross>
   vid_draw_line(1, 1, rand()%320, rand()%240 ,1, RGB565CONVERT(rand()%255,rand()%255,rand()%255) );
  801a94:	08059c00 	call	8059c0 <rand>
  801a98:	1009883a 	mov	r4,r2
  801a9c:	01405004 	movi	r5,320
  801aa0:	08031640 	call	803164 <__modsi3>
  801aa4:	1025883a 	mov	r18,r2
  801aa8:	08059c00 	call	8059c0 <rand>
  801aac:	1009883a 	mov	r4,r2
  801ab0:	01403c04 	movi	r5,240
  801ab4:	08031640 	call	803164 <__modsi3>
  801ab8:	1023883a 	mov	r17,r2
  801abc:	08059c00 	call	8059c0 <rand>
  801ac0:	1009883a 	mov	r4,r2
  801ac4:	01403fc4 	movi	r5,255
  801ac8:	08031640 	call	803164 <__modsi3>
  801acc:	1005d0fa 	srai	r2,r2,3
  801ad0:	102092fa 	slli	r16,r2,11
  801ad4:	08059c00 	call	8059c0 <rand>
  801ad8:	1009883a 	mov	r4,r2
  801adc:	01403fc4 	movi	r5,255
  801ae0:	08031640 	call	803164 <__modsi3>
  801ae4:	1005d0ba 	srai	r2,r2,2
  801ae8:	1004917a 	slli	r2,r2,5
  801aec:	80a0b03a 	or	r16,r16,r2
  801af0:	08059c00 	call	8059c0 <rand>
  801af4:	1009883a 	mov	r4,r2
  801af8:	01403fc4 	movi	r5,255
  801afc:	08031640 	call	803164 <__modsi3>
  801b00:	1005d0fa 	srai	r2,r2,3
  801b04:	8084b03a 	or	r2,r16,r2
  801b08:	00c00044 	movi	r3,1
  801b0c:	d8c00015 	stw	r3,0(sp)
  801b10:	d8800115 	stw	r2,4(sp)
  801b14:	01000044 	movi	r4,1
  801b18:	01400044 	movi	r5,1
  801b1c:	900d883a 	mov	r6,r18
  801b20:	880f883a 	mov	r7,r17
  801b24:	08015f40 	call	8015f4 <vid_draw_line>
  }
  801b28:	003fd706 	br	801a88 <__reset+0xff800288>

00801b2c <TP_Init>:
* Output         : None
* Return         : None
* Attention      : None
*******************************************************************************/
void TP_Init(void) 
{
  801b2c:	deffff04 	addi	sp,sp,-4
  801b30:	df000015 	stw	fp,0(sp)
  801b34:	d839883a 	mov	fp,sp
  TP_CS(1); 
  801b38:	00c00044 	movi	r3,1
  801b3c:	00804034 	movhi	r2,256
  801b40:	10883004 	addi	r2,r2,8384
  801b44:	10c00035 	stwio	r3,0(r2)
  TOUCH_SPI_INIT; 
  801b48:	0007883a 	mov	r3,zero
  801b4c:	00804034 	movhi	r2,256
  801b50:	10880304 	addi	r2,r2,8204
  801b54:	10c00035 	stwio	r3,0(r2)
} 
  801b58:	e037883a 	mov	sp,fp
  801b5c:	df000017 	ldw	fp,0(sp)
  801b60:	dec00104 	addi	sp,sp,4
  801b64:	f800283a 	ret

00801b68 <DelayUS>:
* Output         : None
* Return         : None
* Attention      : None
*******************************************************************************/
void DelayUS(alt_u32 cnt)
{
  801b68:	defffd04 	addi	sp,sp,-12
  801b6c:	dfc00215 	stw	ra,8(sp)
  801b70:	df000115 	stw	fp,4(sp)
  801b74:	df000104 	addi	fp,sp,4
  801b78:	e13fff15 	stw	r4,-4(fp)
   usleep(cnt);
  801b7c:	e13fff17 	ldw	r4,-4(fp)
  801b80:	0805c040 	call	805c04 <usleep>
}
  801b84:	e037883a 	mov	sp,fp
  801b88:	dfc00117 	ldw	ra,4(sp)
  801b8c:	df000017 	ldw	fp,0(sp)
  801b90:	dec00204 	addi	sp,sp,8
  801b94:	f800283a 	ret

00801b98 <WR_CMD>:
* Output         : None
* Return         : None
* Attention      : None
*******************************************************************************/
void WR_CMD (alt_u8 cmd)  
{ 
  801b98:	defffa04 	addi	sp,sp,-24
  801b9c:	dfc00515 	stw	ra,20(sp)
  801ba0:	df000415 	stw	fp,16(sp)
  801ba4:	df000404 	addi	fp,sp,16
  801ba8:	2005883a 	mov	r2,r4
  801bac:	e0bfff05 	stb	r2,-4(fp)
 alt_avalon_spi_command(SPI_TOUCH_BASE,0,1,&cmd,0,NULL,ALT_AVALON_SPI_COMMAND_MERGE);
  801bb0:	d8000015 	stw	zero,0(sp)
  801bb4:	d8000115 	stw	zero,4(sp)
  801bb8:	00800044 	movi	r2,1
  801bbc:	d8800215 	stw	r2,8(sp)
  801bc0:	01004034 	movhi	r4,256
  801bc4:	21080004 	addi	r4,r4,8192
  801bc8:	000b883a 	mov	r5,zero
  801bcc:	01800044 	movi	r6,1
  801bd0:	e1ffff04 	addi	r7,fp,-4
  801bd4:	080f4780 	call	80f478 <alt_avalon_spi_command>
} 
  801bd8:	e037883a 	mov	sp,fp
  801bdc:	dfc00117 	ldw	ra,4(sp)
  801be0:	df000017 	ldw	fp,0(sp)
  801be4:	dec00204 	addi	sp,sp,8
  801be8:	f800283a 	ret

00801bec <RD_AD>:
* Output         : None
* Return         : 
* Attention      : None
*******************************************************************************/
int RD_AD(void)  
{ 
  801bec:	defffa04 	addi	sp,sp,-24
  801bf0:	dfc00515 	stw	ra,20(sp)
  801bf4:	df000415 	stw	fp,16(sp)
  801bf8:	df000404 	addi	fp,sp,16
  unsigned short buf; 
  alt_u8 temp;
  alt_avalon_spi_command(SPI_TOUCH_BASE,0,0,NULL,1,&temp,ALT_AVALON_SPI_COMMAND_MERGE);
  801bfc:	00800044 	movi	r2,1
  801c00:	d8800015 	stw	r2,0(sp)
  801c04:	e0bfff84 	addi	r2,fp,-2
  801c08:	d8800115 	stw	r2,4(sp)
  801c0c:	00800044 	movi	r2,1
  801c10:	d8800215 	stw	r2,8(sp)
  801c14:	01004034 	movhi	r4,256
  801c18:	21080004 	addi	r4,r4,8192
  801c1c:	000b883a 	mov	r5,zero
  801c20:	000d883a 	mov	r6,zero
  801c24:	000f883a 	mov	r7,zero
  801c28:	080f4780 	call	80f478 <alt_avalon_spi_command>
   
  buf=((alt_u16)temp)<<8; 
  801c2c:	e0bfff83 	ldbu	r2,-2(fp)
  801c30:	10803fcc 	andi	r2,r2,255
  801c34:	1004923a 	slli	r2,r2,8
  801c38:	e0bfff0d 	sth	r2,-4(fp)
  DelayUS(1);
  801c3c:	01000044 	movi	r4,1
  801c40:	0801b680 	call	801b68 <DelayUS>
   
  alt_avalon_spi_command(SPI_TOUCH_BASE,0,0,NULL,1,&temp,ALT_AVALON_SPI_COMMAND_MERGE);
  801c44:	00800044 	movi	r2,1
  801c48:	d8800015 	stw	r2,0(sp)
  801c4c:	e0bfff84 	addi	r2,fp,-2
  801c50:	d8800115 	stw	r2,4(sp)
  801c54:	00800044 	movi	r2,1
  801c58:	d8800215 	stw	r2,8(sp)
  801c5c:	01004034 	movhi	r4,256
  801c60:	21080004 	addi	r4,r4,8192
  801c64:	000b883a 	mov	r5,zero
  801c68:	000d883a 	mov	r6,zero
  801c6c:	000f883a 	mov	r7,zero
  801c70:	080f4780 	call	80f478 <alt_avalon_spi_command>
  
  buf |=(alt_u16)temp; 
  801c74:	e0bfff83 	ldbu	r2,-2(fp)
  801c78:	10c03fcc 	andi	r3,r2,255
  801c7c:	e0bfff0b 	ldhu	r2,-4(fp)
  801c80:	1884b03a 	or	r2,r3,r2
  801c84:	e0bfff0d 	sth	r2,-4(fp)
  
  buf>>=3; 
  801c88:	e0bfff0b 	ldhu	r2,-4(fp)
  801c8c:	1004d0fa 	srli	r2,r2,3
  801c90:	e0bfff0d 	sth	r2,-4(fp)
  buf&=0xfff; 
  801c94:	e0bfff0b 	ldhu	r2,-4(fp)
  801c98:	1083ffcc 	andi	r2,r2,4095
  801c9c:	e0bfff0d 	sth	r2,-4(fp)
  return buf; 
  801ca0:	e0bfff0b 	ldhu	r2,-4(fp)
} 
  801ca4:	e037883a 	mov	sp,fp
  801ca8:	dfc00117 	ldw	ra,4(sp)
  801cac:	df000017 	ldw	fp,0(sp)
  801cb0:	dec00204 	addi	sp,sp,8
  801cb4:	f800283a 	ret

00801cb8 <Read_X>:
* Output         : None
* Return         : 
* Attention      : None
*******************************************************************************/
int Read_X(void)  
{  
  801cb8:	defffd04 	addi	sp,sp,-12
  801cbc:	dfc00215 	stw	ra,8(sp)
  801cc0:	df000115 	stw	fp,4(sp)
  801cc4:	df000104 	addi	fp,sp,4
  int i; 
  TP_CS(0); 
  801cc8:	0007883a 	mov	r3,zero
  801ccc:	00804034 	movhi	r2,256
  801cd0:	10883004 	addi	r2,r2,8384
  801cd4:	10c00035 	stwio	r3,0(r2)
  DelayUS(1); 
  801cd8:	01000044 	movi	r4,1
  801cdc:	0801b680 	call	801b68 <DelayUS>
  WR_CMD(CHX); 
  801ce0:	01002404 	movi	r4,144
  801ce4:	0801b980 	call	801b98 <WR_CMD>
  DelayUS(1); 
  801ce8:	01000044 	movi	r4,1
  801cec:	0801b680 	call	801b68 <DelayUS>
  i=RD_AD(); 
  801cf0:	0801bec0 	call	801bec <RD_AD>
  801cf4:	e0bfff15 	stw	r2,-4(fp)
  TP_CS(1); 
  801cf8:	00c00044 	movi	r3,1
  801cfc:	00804034 	movhi	r2,256
  801d00:	10883004 	addi	r2,r2,8384
  801d04:	10c00035 	stwio	r3,0(r2)
  return i;    
  801d08:	e0bfff17 	ldw	r2,-4(fp)
} 
  801d0c:	e037883a 	mov	sp,fp
  801d10:	dfc00117 	ldw	ra,4(sp)
  801d14:	df000017 	ldw	fp,0(sp)
  801d18:	dec00204 	addi	sp,sp,8
  801d1c:	f800283a 	ret

00801d20 <Read_Y>:
* Output         : None
* Return         : 
* Attention      : None
*******************************************************************************/
int Read_Y(void)  
{  
  801d20:	defffd04 	addi	sp,sp,-12
  801d24:	dfc00215 	stw	ra,8(sp)
  801d28:	df000115 	stw	fp,4(sp)
  801d2c:	df000104 	addi	fp,sp,4
  int i; 
  TP_CS(0); 
  801d30:	0007883a 	mov	r3,zero
  801d34:	00804034 	movhi	r2,256
  801d38:	10883004 	addi	r2,r2,8384
  801d3c:	10c00035 	stwio	r3,0(r2)
  DelayUS(1); 
  801d40:	01000044 	movi	r4,1
  801d44:	0801b680 	call	801b68 <DelayUS>
  WR_CMD(CHY); 
  801d48:	01003404 	movi	r4,208
  801d4c:	0801b980 	call	801b98 <WR_CMD>
  DelayUS(1); 
  801d50:	01000044 	movi	r4,1
  801d54:	0801b680 	call	801b68 <DelayUS>
  i=RD_AD(); 
  801d58:	0801bec0 	call	801bec <RD_AD>
  801d5c:	e0bfff15 	stw	r2,-4(fp)
  TP_CS(1); 
  801d60:	00c00044 	movi	r3,1
  801d64:	00804034 	movhi	r2,256
  801d68:	10883004 	addi	r2,r2,8384
  801d6c:	10c00035 	stwio	r3,0(r2)
  return i;     
  801d70:	e0bfff17 	ldw	r2,-4(fp)
} 
  801d74:	e037883a 	mov	sp,fp
  801d78:	dfc00117 	ldw	ra,4(sp)
  801d7c:	df000017 	ldw	fp,0(sp)
  801d80:	dec00204 	addi	sp,sp,8
  801d84:	f800283a 	ret

00801d88 <TP_GetAdXY>:
* Output         : None
* Return         : 
* Attention      : None
*******************************************************************************/
void TP_GetAdXY(int *x,int *y)  
{ 
  801d88:	defffa04 	addi	sp,sp,-24
  801d8c:	dfc00515 	stw	ra,20(sp)
  801d90:	df000415 	stw	fp,16(sp)
  801d94:	df000404 	addi	fp,sp,16
  801d98:	e13ffe15 	stw	r4,-8(fp)
  801d9c:	e17fff15 	stw	r5,-4(fp)
  int adx,ady; 
  adx=Read_X(); 
  801da0:	0801cb80 	call	801cb8 <Read_X>
  801da4:	e0bffc15 	stw	r2,-16(fp)
  DelayUS(1); 
  801da8:	01000044 	movi	r4,1
  801dac:	0801b680 	call	801b68 <DelayUS>
  ady=Read_Y(); 
  801db0:	0801d200 	call	801d20 <Read_Y>
  801db4:	e0bffd15 	stw	r2,-12(fp)
  *x=adx; 
  801db8:	e0bffe17 	ldw	r2,-8(fp)
  801dbc:	e0fffc17 	ldw	r3,-16(fp)
  801dc0:	10c00015 	stw	r3,0(r2)
  *y=ady; 
  801dc4:	e0bfff17 	ldw	r2,-4(fp)
  801dc8:	e0fffd17 	ldw	r3,-12(fp)
  801dcc:	10c00015 	stw	r3,0(r2)
} 
  801dd0:	e037883a 	mov	sp,fp
  801dd4:	dfc00117 	ldw	ra,4(sp)
  801dd8:	df000017 	ldw	fp,0(sp)
  801ddc:	dec00204 	addi	sp,sp,8
  801de0:	f800283a 	ret

00801de4 <TP_DrawPoint>:
* Output         : None
* Return         : None
* Attention      : None
*******************************************************************************/
void TP_DrawPoint(alt_u32 Xpos,alt_u32 Ypos)
{
  801de4:	defffc04 	addi	sp,sp,-16
  801de8:	dfc00315 	stw	ra,12(sp)
  801dec:	df000215 	stw	fp,8(sp)
  801df0:	df000204 	addi	fp,sp,8
  801df4:	e13ffe15 	stw	r4,-8(fp)
  801df8:	e17fff15 	stw	r5,-4(fp)
  LCD_SetPoint(Xpos,Ypos,Blue);     /* Center point */
  801dfc:	e0bffe17 	ldw	r2,-8(fp)
  801e00:	10ffffcc 	andi	r3,r2,65535
  801e04:	e0bfff17 	ldw	r2,-4(fp)
  801e08:	10bfffcc 	andi	r2,r2,65535
  801e0c:	1809883a 	mov	r4,r3
  801e10:	100b883a 	mov	r5,r2
  801e14:	018007c4 	movi	r6,31
  801e18:	08010dc0 	call	8010dc <LCD_SetPoint>
  LCD_SetPoint(Xpos+1,Ypos,Blue);
  801e1c:	e0bffe17 	ldw	r2,-8(fp)
  801e20:	10800044 	addi	r2,r2,1
  801e24:	10ffffcc 	andi	r3,r2,65535
  801e28:	e0bfff17 	ldw	r2,-4(fp)
  801e2c:	10bfffcc 	andi	r2,r2,65535
  801e30:	1809883a 	mov	r4,r3
  801e34:	100b883a 	mov	r5,r2
  801e38:	018007c4 	movi	r6,31
  801e3c:	08010dc0 	call	8010dc <LCD_SetPoint>
  LCD_SetPoint(Xpos,Ypos+1,Blue);
  801e40:	e0bffe17 	ldw	r2,-8(fp)
  801e44:	10ffffcc 	andi	r3,r2,65535
  801e48:	e0bfff17 	ldw	r2,-4(fp)
  801e4c:	10800044 	addi	r2,r2,1
  801e50:	10bfffcc 	andi	r2,r2,65535
  801e54:	1809883a 	mov	r4,r3
  801e58:	100b883a 	mov	r5,r2
  801e5c:	018007c4 	movi	r6,31
  801e60:	08010dc0 	call	8010dc <LCD_SetPoint>
  LCD_SetPoint(Xpos+1,Ypos+1,Blue); 
  801e64:	e0bffe17 	ldw	r2,-8(fp)
  801e68:	10800044 	addi	r2,r2,1
  801e6c:	10ffffcc 	andi	r3,r2,65535
  801e70:	e0bfff17 	ldw	r2,-4(fp)
  801e74:	10800044 	addi	r2,r2,1
  801e78:	10bfffcc 	andi	r2,r2,65535
  801e7c:	1809883a 	mov	r4,r3
  801e80:	100b883a 	mov	r5,r2
  801e84:	018007c4 	movi	r6,31
  801e88:	08010dc0 	call	8010dc <LCD_SetPoint>
}   
  801e8c:	e037883a 	mov	sp,fp
  801e90:	dfc00117 	ldw	ra,4(sp)
  801e94:	df000017 	ldw	fp,0(sp)
  801e98:	dec00204 	addi	sp,sp,8
  801e9c:	f800283a 	ret

00801ea0 <DrawCross>:
* Output         : None
* Return         : None
* Attention      : None
*******************************************************************************/
void DrawCross(alt_u32 Xpos,alt_u32 Ypos)
{
  801ea0:	defffb04 	addi	sp,sp,-20
  801ea4:	dfc00415 	stw	ra,16(sp)
  801ea8:	df000315 	stw	fp,12(sp)
  801eac:	df000304 	addi	fp,sp,12
  801eb0:	e13ffe15 	stw	r4,-8(fp)
  801eb4:	e17fff15 	stw	r5,-4(fp)
  LCD_DrawLine(Xpos-15,Ypos,Xpos-2,Ypos,Red);
  801eb8:	e0bffe17 	ldw	r2,-8(fp)
  801ebc:	10bffc44 	addi	r2,r2,-15
  801ec0:	113fffcc 	andi	r4,r2,65535
  801ec4:	e0bfff17 	ldw	r2,-4(fp)
  801ec8:	117fffcc 	andi	r5,r2,65535
  801ecc:	e0bffe17 	ldw	r2,-8(fp)
  801ed0:	10bfff84 	addi	r2,r2,-2
  801ed4:	11bfffcc 	andi	r6,r2,65535
  801ed8:	e0bfff17 	ldw	r2,-4(fp)
  801edc:	10ffffcc 	andi	r3,r2,65535
  801ee0:	00be0014 	movui	r2,63488
  801ee4:	d8800015 	stw	r2,0(sp)
  801ee8:	180f883a 	mov	r7,r3
  801eec:	08011540 	call	801154 <LCD_DrawLine>
  LCD_DrawLine(Xpos+2,Ypos,Xpos+15,Ypos,Red);
  801ef0:	e0bffe17 	ldw	r2,-8(fp)
  801ef4:	10800084 	addi	r2,r2,2
  801ef8:	113fffcc 	andi	r4,r2,65535
  801efc:	e0bfff17 	ldw	r2,-4(fp)
  801f00:	117fffcc 	andi	r5,r2,65535
  801f04:	e0bffe17 	ldw	r2,-8(fp)
  801f08:	108003c4 	addi	r2,r2,15
  801f0c:	11bfffcc 	andi	r6,r2,65535
  801f10:	e0bfff17 	ldw	r2,-4(fp)
  801f14:	10ffffcc 	andi	r3,r2,65535
  801f18:	00be0014 	movui	r2,63488
  801f1c:	d8800015 	stw	r2,0(sp)
  801f20:	180f883a 	mov	r7,r3
  801f24:	08011540 	call	801154 <LCD_DrawLine>
  LCD_DrawLine(Xpos,Ypos-15,Xpos,Ypos-2,Red);
  801f28:	e0bffe17 	ldw	r2,-8(fp)
  801f2c:	113fffcc 	andi	r4,r2,65535
  801f30:	e0bfff17 	ldw	r2,-4(fp)
  801f34:	10bffc44 	addi	r2,r2,-15
  801f38:	117fffcc 	andi	r5,r2,65535
  801f3c:	e0bffe17 	ldw	r2,-8(fp)
  801f40:	11bfffcc 	andi	r6,r2,65535
  801f44:	e0bfff17 	ldw	r2,-4(fp)
  801f48:	10bfff84 	addi	r2,r2,-2
  801f4c:	10ffffcc 	andi	r3,r2,65535
  801f50:	00be0014 	movui	r2,63488
  801f54:	d8800015 	stw	r2,0(sp)
  801f58:	180f883a 	mov	r7,r3
  801f5c:	08011540 	call	801154 <LCD_DrawLine>
  LCD_DrawLine(Xpos,Ypos+2,Xpos,Ypos+15,Red);
  801f60:	e0bffe17 	ldw	r2,-8(fp)
  801f64:	113fffcc 	andi	r4,r2,65535
  801f68:	e0bfff17 	ldw	r2,-4(fp)
  801f6c:	10800084 	addi	r2,r2,2
  801f70:	117fffcc 	andi	r5,r2,65535
  801f74:	e0bffe17 	ldw	r2,-8(fp)
  801f78:	11bfffcc 	andi	r6,r2,65535
  801f7c:	e0bfff17 	ldw	r2,-4(fp)
  801f80:	108003c4 	addi	r2,r2,15
  801f84:	10ffffcc 	andi	r3,r2,65535
  801f88:	00be0014 	movui	r2,63488
  801f8c:	d8800015 	stw	r2,0(sp)
  801f90:	180f883a 	mov	r7,r3
  801f94:	08011540 	call	801154 <LCD_DrawLine>
  
  LCD_DrawLine(Xpos-15,Ypos+15,Xpos-7,Ypos+15,RGB565CONVERT(184,158,131));
  801f98:	e0bffe17 	ldw	r2,-8(fp)
  801f9c:	10bffc44 	addi	r2,r2,-15
  801fa0:	113fffcc 	andi	r4,r2,65535
  801fa4:	e0bfff17 	ldw	r2,-4(fp)
  801fa8:	108003c4 	addi	r2,r2,15
  801fac:	117fffcc 	andi	r5,r2,65535
  801fb0:	e0bffe17 	ldw	r2,-8(fp)
  801fb4:	10bffe44 	addi	r2,r2,-7
  801fb8:	11bfffcc 	andi	r6,r2,65535
  801fbc:	e0bfff17 	ldw	r2,-4(fp)
  801fc0:	108003c4 	addi	r2,r2,15
  801fc4:	10ffffcc 	andi	r3,r2,65535
  801fc8:	00af3c14 	movui	r2,48368
  801fcc:	d8800015 	stw	r2,0(sp)
  801fd0:	180f883a 	mov	r7,r3
  801fd4:	08011540 	call	801154 <LCD_DrawLine>
  LCD_DrawLine(Xpos-15,Ypos+7,Xpos-15,Ypos+15,RGB565CONVERT(184,158,131));
  801fd8:	e0bffe17 	ldw	r2,-8(fp)
  801fdc:	10bffc44 	addi	r2,r2,-15
  801fe0:	113fffcc 	andi	r4,r2,65535
  801fe4:	e0bfff17 	ldw	r2,-4(fp)
  801fe8:	108001c4 	addi	r2,r2,7
  801fec:	117fffcc 	andi	r5,r2,65535
  801ff0:	e0bffe17 	ldw	r2,-8(fp)
  801ff4:	10bffc44 	addi	r2,r2,-15
  801ff8:	11bfffcc 	andi	r6,r2,65535
  801ffc:	e0bfff17 	ldw	r2,-4(fp)
  802000:	108003c4 	addi	r2,r2,15
  802004:	10ffffcc 	andi	r3,r2,65535
  802008:	00af3c14 	movui	r2,48368
  80200c:	d8800015 	stw	r2,0(sp)
  802010:	180f883a 	mov	r7,r3
  802014:	08011540 	call	801154 <LCD_DrawLine>

  LCD_DrawLine(Xpos-15,Ypos-15,Xpos-7,Ypos-15,RGB565CONVERT(184,158,131));
  802018:	e0bffe17 	ldw	r2,-8(fp)
  80201c:	10bffc44 	addi	r2,r2,-15
  802020:	113fffcc 	andi	r4,r2,65535
  802024:	e0bfff17 	ldw	r2,-4(fp)
  802028:	10bffc44 	addi	r2,r2,-15
  80202c:	117fffcc 	andi	r5,r2,65535
  802030:	e0bffe17 	ldw	r2,-8(fp)
  802034:	10bffe44 	addi	r2,r2,-7
  802038:	11bfffcc 	andi	r6,r2,65535
  80203c:	e0bfff17 	ldw	r2,-4(fp)
  802040:	10bffc44 	addi	r2,r2,-15
  802044:	10ffffcc 	andi	r3,r2,65535
  802048:	00af3c14 	movui	r2,48368
  80204c:	d8800015 	stw	r2,0(sp)
  802050:	180f883a 	mov	r7,r3
  802054:	08011540 	call	801154 <LCD_DrawLine>
  LCD_DrawLine(Xpos-15,Ypos-7,Xpos-15,Ypos-15,RGB565CONVERT(184,158,131));
  802058:	e0bffe17 	ldw	r2,-8(fp)
  80205c:	10bffc44 	addi	r2,r2,-15
  802060:	113fffcc 	andi	r4,r2,65535
  802064:	e0bfff17 	ldw	r2,-4(fp)
  802068:	10bffe44 	addi	r2,r2,-7
  80206c:	117fffcc 	andi	r5,r2,65535
  802070:	e0bffe17 	ldw	r2,-8(fp)
  802074:	10bffc44 	addi	r2,r2,-15
  802078:	11bfffcc 	andi	r6,r2,65535
  80207c:	e0bfff17 	ldw	r2,-4(fp)
  802080:	10bffc44 	addi	r2,r2,-15
  802084:	10ffffcc 	andi	r3,r2,65535
  802088:	00af3c14 	movui	r2,48368
  80208c:	d8800015 	stw	r2,0(sp)
  802090:	180f883a 	mov	r7,r3
  802094:	08011540 	call	801154 <LCD_DrawLine>

  LCD_DrawLine(Xpos+7,Ypos+15,Xpos+15,Ypos+15,RGB565CONVERT(184,158,131));
  802098:	e0bffe17 	ldw	r2,-8(fp)
  80209c:	108001c4 	addi	r2,r2,7
  8020a0:	113fffcc 	andi	r4,r2,65535
  8020a4:	e0bfff17 	ldw	r2,-4(fp)
  8020a8:	108003c4 	addi	r2,r2,15
  8020ac:	117fffcc 	andi	r5,r2,65535
  8020b0:	e0bffe17 	ldw	r2,-8(fp)
  8020b4:	108003c4 	addi	r2,r2,15
  8020b8:	11bfffcc 	andi	r6,r2,65535
  8020bc:	e0bfff17 	ldw	r2,-4(fp)
  8020c0:	108003c4 	addi	r2,r2,15
  8020c4:	10ffffcc 	andi	r3,r2,65535
  8020c8:	00af3c14 	movui	r2,48368
  8020cc:	d8800015 	stw	r2,0(sp)
  8020d0:	180f883a 	mov	r7,r3
  8020d4:	08011540 	call	801154 <LCD_DrawLine>
  LCD_DrawLine(Xpos+15,Ypos+7,Xpos+15,Ypos+15,RGB565CONVERT(184,158,131));
  8020d8:	e0bffe17 	ldw	r2,-8(fp)
  8020dc:	108003c4 	addi	r2,r2,15
  8020e0:	113fffcc 	andi	r4,r2,65535
  8020e4:	e0bfff17 	ldw	r2,-4(fp)
  8020e8:	108001c4 	addi	r2,r2,7
  8020ec:	117fffcc 	andi	r5,r2,65535
  8020f0:	e0bffe17 	ldw	r2,-8(fp)
  8020f4:	108003c4 	addi	r2,r2,15
  8020f8:	11bfffcc 	andi	r6,r2,65535
  8020fc:	e0bfff17 	ldw	r2,-4(fp)
  802100:	108003c4 	addi	r2,r2,15
  802104:	10ffffcc 	andi	r3,r2,65535
  802108:	00af3c14 	movui	r2,48368
  80210c:	d8800015 	stw	r2,0(sp)
  802110:	180f883a 	mov	r7,r3
  802114:	08011540 	call	801154 <LCD_DrawLine>

  LCD_DrawLine(Xpos+7,Ypos-15,Xpos+15,Ypos-15,RGB565CONVERT(184,158,131));
  802118:	e0bffe17 	ldw	r2,-8(fp)
  80211c:	108001c4 	addi	r2,r2,7
  802120:	113fffcc 	andi	r4,r2,65535
  802124:	e0bfff17 	ldw	r2,-4(fp)
  802128:	10bffc44 	addi	r2,r2,-15
  80212c:	117fffcc 	andi	r5,r2,65535
  802130:	e0bffe17 	ldw	r2,-8(fp)
  802134:	108003c4 	addi	r2,r2,15
  802138:	11bfffcc 	andi	r6,r2,65535
  80213c:	e0bfff17 	ldw	r2,-4(fp)
  802140:	10bffc44 	addi	r2,r2,-15
  802144:	10ffffcc 	andi	r3,r2,65535
  802148:	00af3c14 	movui	r2,48368
  80214c:	d8800015 	stw	r2,0(sp)
  802150:	180f883a 	mov	r7,r3
  802154:	08011540 	call	801154 <LCD_DrawLine>
  LCD_DrawLine(Xpos+15,Ypos-15,Xpos+15,Ypos-7,RGB565CONVERT(184,158,131));      
  802158:	e0bffe17 	ldw	r2,-8(fp)
  80215c:	108003c4 	addi	r2,r2,15
  802160:	113fffcc 	andi	r4,r2,65535
  802164:	e0bfff17 	ldw	r2,-4(fp)
  802168:	10bffc44 	addi	r2,r2,-15
  80216c:	117fffcc 	andi	r5,r2,65535
  802170:	e0bffe17 	ldw	r2,-8(fp)
  802174:	108003c4 	addi	r2,r2,15
  802178:	11bfffcc 	andi	r6,r2,65535
  80217c:	e0bfff17 	ldw	r2,-4(fp)
  802180:	10bffe44 	addi	r2,r2,-7
  802184:	10ffffcc 	andi	r3,r2,65535
  802188:	00af3c14 	movui	r2,48368
  80218c:	d8800015 	stw	r2,0(sp)
  802190:	180f883a 	mov	r7,r3
  802194:	08011540 	call	801154 <LCD_DrawLine>
}   
  802198:	e037883a 	mov	sp,fp
  80219c:	dfc00117 	ldw	ra,4(sp)
  8021a0:	df000017 	ldw	fp,0(sp)
  8021a4:	dec00204 	addi	sp,sp,8
  8021a8:	f800283a 	ret

008021ac <Read_Ads7846>:
* Output         : None
* Return         : Coordinate *
* Attention      : None
*******************************************************************************/
Coordinate *Read_Ads7846(void)
{
  8021ac:	deffef04 	addi	sp,sp,-68
  8021b0:	dfc01015 	stw	ra,64(sp)
  8021b4:	df000f15 	stw	fp,60(sp)
  8021b8:	df000f04 	addi	fp,sp,60
  static Coordinate  screen;
  int m0,m1,m2,TP_X[1],TP_Y[1],temp[3];
  alt_u8 count=0;
  8021bc:	e03ff105 	stb	zero,-60(fp)
  int buffer[2][3]={{0},{0}};
  8021c0:	e03ffa15 	stw	zero,-24(fp)
  8021c4:	e03ffb15 	stw	zero,-20(fp)
  8021c8:	e03ffc15 	stw	zero,-16(fp)
  8021cc:	e03ffd15 	stw	zero,-12(fp)
  8021d0:	e03ffe15 	stw	zero,-8(fp)
  8021d4:	e03fff15 	stw	zero,-4(fp)
  
  do
  {        
    TP_GetAdXY(TP_X,TP_Y);  
  8021d8:	e0fff504 	addi	r3,fp,-44
  8021dc:	e0bff604 	addi	r2,fp,-40
  8021e0:	1809883a 	mov	r4,r3
  8021e4:	100b883a 	mov	r5,r2
  8021e8:	0801d880 	call	801d88 <TP_GetAdXY>
    buffer[0][count]=TP_X[0];  
  8021ec:	e0bff103 	ldbu	r2,-60(fp)
  8021f0:	e0fff517 	ldw	r3,-44(fp)
  8021f4:	1085883a 	add	r2,r2,r2
  8021f8:	1085883a 	add	r2,r2,r2
  8021fc:	e13ff104 	addi	r4,fp,-60
  802200:	2085883a 	add	r2,r4,r2
  802204:	10800904 	addi	r2,r2,36
  802208:	10c00015 	stw	r3,0(r2)
    buffer[1][count]=TP_Y[0];
  80220c:	e0bff103 	ldbu	r2,-60(fp)
  802210:	e0fff617 	ldw	r3,-40(fp)
  802214:	108000c4 	addi	r2,r2,3
  802218:	1085883a 	add	r2,r2,r2
  80221c:	1085883a 	add	r2,r2,r2
  802220:	e13ff104 	addi	r4,fp,-60
  802224:	2085883a 	add	r2,r4,r2
  802228:	10800904 	addi	r2,r2,36
  80222c:	10c00015 	stw	r3,0(r2)
    count++;  
  802230:	e0bff103 	ldbu	r2,-60(fp)
  802234:	10800044 	addi	r2,r2,1
  802238:	e0bff105 	stb	r2,-60(fp)
  }
  while(!TP_INT_IN&& count<3);  /* TP_INT_IN  */
  80223c:	00804034 	movhi	r2,256
  802240:	10882804 	addi	r2,r2,8352
  802244:	10800037 	ldwio	r2,0(r2)
  802248:	1000031e 	bne	r2,zero,802258 <Read_Ads7846+0xac>
  80224c:	e0bff103 	ldbu	r2,-60(fp)
  802250:	108000f0 	cmpltui	r2,r2,3
  802254:	103fe01e 	bne	r2,zero,8021d8 <__reset+0xff8009d8>
  if(count==3)   /* Average X Y  */ 
  802258:	e0bff103 	ldbu	r2,-60(fp)
  80225c:	108000d8 	cmpnei	r2,r2,3
  802260:	1000961e 	bne	r2,zero,8024bc <Read_Ads7846+0x310>
  {
    /* Average X  */
  temp[0]=buffer[0][0];
  802264:	e0bffa17 	ldw	r2,-24(fp)
  802268:	e0bff715 	stw	r2,-36(fp)
    temp[1]=buffer[0][1];
  80226c:	e0bffb17 	ldw	r2,-20(fp)
  802270:	e0bff815 	stw	r2,-32(fp)
    temp[2]=buffer[0][2];
  802274:	e0bffc17 	ldw	r2,-16(fp)
  802278:	e0bff915 	stw	r2,-28(fp)

    m0=temp[0]-temp[1];
  80227c:	e0fff717 	ldw	r3,-36(fp)
  802280:	e0bff817 	ldw	r2,-32(fp)
  802284:	1885c83a 	sub	r2,r3,r2
  802288:	e0bff215 	stw	r2,-56(fp)
    m1=temp[1]-temp[2];
  80228c:	e0fff817 	ldw	r3,-32(fp)
  802290:	e0bff917 	ldw	r2,-28(fp)
  802294:	1885c83a 	sub	r2,r3,r2
  802298:	e0bff315 	stw	r2,-52(fp)
    m2=temp[2]-temp[0];
  80229c:	e0fff917 	ldw	r3,-28(fp)
  8022a0:	e0bff717 	ldw	r2,-36(fp)
  8022a4:	1885c83a 	sub	r2,r3,r2
  8022a8:	e0bff415 	stw	r2,-48(fp)

    m0=m0>0?m0:(-m0);
  8022ac:	e0bff217 	ldw	r2,-56(fp)
  8022b0:	1000010e 	bge	r2,zero,8022b8 <Read_Ads7846+0x10c>
  8022b4:	0085c83a 	sub	r2,zero,r2
  8022b8:	e0bff215 	stw	r2,-56(fp)
  m1=m1>0?m1:(-m1);
  8022bc:	e0bff317 	ldw	r2,-52(fp)
  8022c0:	1000010e 	bge	r2,zero,8022c8 <Read_Ads7846+0x11c>
  8022c4:	0085c83a 	sub	r2,zero,r2
  8022c8:	e0bff315 	stw	r2,-52(fp)
    m2=m2>0?m2:(-m2);
  8022cc:	e0bff417 	ldw	r2,-48(fp)
  8022d0:	1000010e 	bge	r2,zero,8022d8 <Read_Ads7846+0x12c>
  8022d4:	0085c83a 	sub	r2,zero,r2
  8022d8:	e0bff415 	stw	r2,-48(fp)

  //  if( m0>THRESHOLD  &&  m1>THRESHOLD  &&  m2>THRESHOLD ) return 0;

    if(m0<m1)
  8022dc:	e0fff217 	ldw	r3,-56(fp)
  8022e0:	e0bff317 	ldw	r2,-52(fp)
  8022e4:	1880130e 	bge	r3,r2,802334 <Read_Ads7846+0x188>
    {
      if(m2<m0) 
  8022e8:	e0fff417 	ldw	r3,-48(fp)
  8022ec:	e0bff217 	ldw	r2,-56(fp)
  8022f0:	1880080e 	bge	r3,r2,802314 <Read_Ads7846+0x168>
        screen.x=(temp[0]+temp[2])/2;
  8022f4:	e0fff717 	ldw	r3,-36(fp)
  8022f8:	e0bff917 	ldw	r2,-28(fp)
  8022fc:	1885883a 	add	r2,r3,r2
  802300:	1006d7fa 	srli	r3,r2,31
  802304:	1885883a 	add	r2,r3,r2
  802308:	1005d07a 	srai	r2,r2,1
  80230c:	d0a02c8d 	sth	r2,-32590(gp)
  802310:	00001a06 	br	80237c <Read_Ads7846+0x1d0>
      else 
        screen.x=(temp[0]+temp[1])/2;   
  802314:	e0fff717 	ldw	r3,-36(fp)
  802318:	e0bff817 	ldw	r2,-32(fp)
  80231c:	1885883a 	add	r2,r3,r2
  802320:	1006d7fa 	srli	r3,r2,31
  802324:	1885883a 	add	r2,r3,r2
  802328:	1005d07a 	srai	r2,r2,1
  80232c:	d0a02c8d 	sth	r2,-32590(gp)
  802330:	00001206 	br	80237c <Read_Ads7846+0x1d0>
    }
    else if(m2<m1) 
  802334:	e0fff417 	ldw	r3,-48(fp)
  802338:	e0bff317 	ldw	r2,-52(fp)
  80233c:	1880080e 	bge	r3,r2,802360 <Read_Ads7846+0x1b4>
      screen.x=(temp[0]+temp[2])/2;
  802340:	e0fff717 	ldw	r3,-36(fp)
  802344:	e0bff917 	ldw	r2,-28(fp)
  802348:	1885883a 	add	r2,r3,r2
  80234c:	1006d7fa 	srli	r3,r2,31
  802350:	1885883a 	add	r2,r3,r2
  802354:	1005d07a 	srai	r2,r2,1
  802358:	d0a02c8d 	sth	r2,-32590(gp)
  80235c:	00000706 	br	80237c <Read_Ads7846+0x1d0>
    else 
      screen.x=(temp[1]+temp[2])/2;
  802360:	e0fff817 	ldw	r3,-32(fp)
  802364:	e0bff917 	ldw	r2,-28(fp)
  802368:	1885883a 	add	r2,r3,r2
  80236c:	1006d7fa 	srli	r3,r2,31
  802370:	1885883a 	add	r2,r3,r2
  802374:	1005d07a 	srai	r2,r2,1
  802378:	d0a02c8d 	sth	r2,-32590(gp)

    /* Average Y  */
  temp[0]=buffer[1][0];
  80237c:	e0bffd17 	ldw	r2,-12(fp)
  802380:	e0bff715 	stw	r2,-36(fp)
    temp[1]=buffer[1][1];
  802384:	e0bffe17 	ldw	r2,-8(fp)
  802388:	e0bff815 	stw	r2,-32(fp)
    temp[2]=buffer[1][2];
  80238c:	e0bfff17 	ldw	r2,-4(fp)
  802390:	e0bff915 	stw	r2,-28(fp)
    m0=temp[0]-temp[1];
  802394:	e0fff717 	ldw	r3,-36(fp)
  802398:	e0bff817 	ldw	r2,-32(fp)
  80239c:	1885c83a 	sub	r2,r3,r2
  8023a0:	e0bff215 	stw	r2,-56(fp)
    m1=temp[1]-temp[2];
  8023a4:	e0fff817 	ldw	r3,-32(fp)
  8023a8:	e0bff917 	ldw	r2,-28(fp)
  8023ac:	1885c83a 	sub	r2,r3,r2
  8023b0:	e0bff315 	stw	r2,-52(fp)
    m2=temp[2]-temp[0];
  8023b4:	e0fff917 	ldw	r3,-28(fp)
  8023b8:	e0bff717 	ldw	r2,-36(fp)
  8023bc:	1885c83a 	sub	r2,r3,r2
  8023c0:	e0bff415 	stw	r2,-48(fp)
    m0=m0>0?m0:(-m0);
  8023c4:	e0bff217 	ldw	r2,-56(fp)
  8023c8:	1000010e 	bge	r2,zero,8023d0 <Read_Ads7846+0x224>
  8023cc:	0085c83a 	sub	r2,zero,r2
  8023d0:	e0bff215 	stw	r2,-56(fp)
    m1=m1>0?m1:(-m1);
  8023d4:	e0bff317 	ldw	r2,-52(fp)
  8023d8:	1000010e 	bge	r2,zero,8023e0 <Read_Ads7846+0x234>
  8023dc:	0085c83a 	sub	r2,zero,r2
  8023e0:	e0bff315 	stw	r2,-52(fp)
    m2=m2>0?m2:(-m2);
  8023e4:	e0bff417 	ldw	r2,-48(fp)
  8023e8:	1000010e 	bge	r2,zero,8023f0 <Read_Ads7846+0x244>
  8023ec:	0085c83a 	sub	r2,zero,r2
  8023f0:	e0bff415 	stw	r2,-48(fp)
    //if(m0>THRESHOLD&&m1>THRESHOLD&&m2>THRESHOLD) return 0;

    if(m0<m1)
  8023f4:	e0fff217 	ldw	r3,-56(fp)
  8023f8:	e0bff317 	ldw	r2,-52(fp)
  8023fc:	1880170e 	bge	r3,r2,80245c <Read_Ads7846+0x2b0>
    {
      if(m2<m0) 
  802400:	e0fff417 	ldw	r3,-48(fp)
  802404:	e0bff217 	ldw	r2,-56(fp)
  802408:	18800a0e 	bge	r3,r2,802434 <Read_Ads7846+0x288>
        screen.y=(temp[0]+temp[2])/2;
  80240c:	e0fff717 	ldw	r3,-36(fp)
  802410:	e0bff917 	ldw	r2,-28(fp)
  802414:	1885883a 	add	r2,r3,r2
  802418:	1006d7fa 	srli	r3,r2,31
  80241c:	1885883a 	add	r2,r3,r2
  802420:	1005d07a 	srai	r2,r2,1
  802424:	1007883a 	mov	r3,r2
  802428:	d0a02d04 	addi	r2,gp,-32588
  80242c:	10c0000d 	sth	r3,0(r2)
  802430:	00002006 	br	8024b4 <Read_Ads7846+0x308>
      else 
        screen.y=(temp[0]+temp[1])/2;   
  802434:	e0fff717 	ldw	r3,-36(fp)
  802438:	e0bff817 	ldw	r2,-32(fp)
  80243c:	1885883a 	add	r2,r3,r2
  802440:	1006d7fa 	srli	r3,r2,31
  802444:	1885883a 	add	r2,r3,r2
  802448:	1005d07a 	srai	r2,r2,1
  80244c:	1007883a 	mov	r3,r2
  802450:	d0a02d04 	addi	r2,gp,-32588
  802454:	10c0000d 	sth	r3,0(r2)
  802458:	00001606 	br	8024b4 <Read_Ads7846+0x308>
    }
    else if(m2<m1) 
  80245c:	e0fff417 	ldw	r3,-48(fp)
  802460:	e0bff317 	ldw	r2,-52(fp)
  802464:	18800a0e 	bge	r3,r2,802490 <Read_Ads7846+0x2e4>
       screen.y=(temp[0]+temp[2])/2;
  802468:	e0fff717 	ldw	r3,-36(fp)
  80246c:	e0bff917 	ldw	r2,-28(fp)
  802470:	1885883a 	add	r2,r3,r2
  802474:	1006d7fa 	srli	r3,r2,31
  802478:	1885883a 	add	r2,r3,r2
  80247c:	1005d07a 	srai	r2,r2,1
  802480:	1007883a 	mov	r3,r2
  802484:	d0a02d04 	addi	r2,gp,-32588
  802488:	10c0000d 	sth	r3,0(r2)
  80248c:	00000906 	br	8024b4 <Read_Ads7846+0x308>
    else
       screen.y=(temp[1]+temp[2])/2;
  802490:	e0fff817 	ldw	r3,-32(fp)
  802494:	e0bff917 	ldw	r2,-28(fp)
  802498:	1885883a 	add	r2,r3,r2
  80249c:	1006d7fa 	srli	r3,r2,31
  8024a0:	1885883a 	add	r2,r3,r2
  8024a4:	1005d07a 	srai	r2,r2,1
  8024a8:	1007883a 	mov	r3,r2
  8024ac:	d0a02d04 	addi	r2,gp,-32588
  8024b0:	10c0000d 	sth	r3,0(r2)

    return &screen;
  8024b4:	d0a02c84 	addi	r2,gp,-32590
  8024b8:	00000106 	br	8024c0 <Read_Ads7846+0x314>
  }  
  return 0; 
  8024bc:	0005883a 	mov	r2,zero
}
  8024c0:	e037883a 	mov	sp,fp
  8024c4:	dfc00117 	ldw	ra,4(sp)
  8024c8:	df000017 	ldw	fp,0(sp)
  8024cc:	dec00204 	addi	sp,sp,8
  8024d0:	f800283a 	ret

008024d4 <setCalibrationMatrix>:
* Attention      : None
*******************************************************************************/
alt_u8 setCalibrationMatrix( Coordinate * displayPtr,
                          Coordinate * screenPtr,
                          Matrix * matrixPtr)
{
  8024d4:	defff804 	addi	sp,sp,-32
  8024d8:	dfc00715 	stw	ra,28(sp)
  8024dc:	df000615 	stw	fp,24(sp)
  8024e0:	dc400515 	stw	r17,20(sp)
  8024e4:	dc000415 	stw	r16,16(sp)
  8024e8:	df000604 	addi	fp,sp,24
  8024ec:	e13ffb15 	stw	r4,-20(fp)
  8024f0:	e17ffc15 	stw	r5,-16(fp)
  8024f4:	e1bffd15 	stw	r6,-12(fp)

  alt_u8 retTHRESHOLD = 1 ;
  8024f8:	00800044 	movi	r2,1
  8024fc:	e0bffa05 	stb	r2,-24(fp)
  /* K(X0X2) (Y1Y2)(X1X2) (Y0Y2) */
  matrixPtr->Divider = ((screenPtr[0].x - screenPtr[2].x) * (screenPtr[1].y - screenPtr[2].y)) - 
  802500:	e0bffc17 	ldw	r2,-16(fp)
  802504:	1080000b 	ldhu	r2,0(r2)
  802508:	10ffffcc 	andi	r3,r2,65535
  80250c:	e0bffc17 	ldw	r2,-16(fp)
  802510:	10800204 	addi	r2,r2,8
  802514:	1080000b 	ldhu	r2,0(r2)
  802518:	10bfffcc 	andi	r2,r2,65535
  80251c:	1889c83a 	sub	r4,r3,r2
  802520:	e0bffc17 	ldw	r2,-16(fp)
  802524:	10800104 	addi	r2,r2,4
  802528:	1080008b 	ldhu	r2,2(r2)
  80252c:	10ffffcc 	andi	r3,r2,65535
  802530:	e0bffc17 	ldw	r2,-16(fp)
  802534:	10800204 	addi	r2,r2,8
  802538:	1080008b 	ldhu	r2,2(r2)
  80253c:	10bfffcc 	andi	r2,r2,65535
  802540:	1885c83a 	sub	r2,r3,r2
  802544:	100b883a 	mov	r5,r2
  802548:	08031d00 	call	8031d0 <__mulsi3>
  80254c:	1021883a 	mov	r16,r2
                       ((screenPtr[1].x - screenPtr[2].x) * (screenPtr[0].y - screenPtr[2].y)) ;
  802550:	e0bffc17 	ldw	r2,-16(fp)
  802554:	10800104 	addi	r2,r2,4
  802558:	1080000b 	ldhu	r2,0(r2)
  80255c:	10ffffcc 	andi	r3,r2,65535
  802560:	e0bffc17 	ldw	r2,-16(fp)
  802564:	10800204 	addi	r2,r2,8
  802568:	1080000b 	ldhu	r2,0(r2)
  80256c:	10bfffcc 	andi	r2,r2,65535
  802570:	1889c83a 	sub	r4,r3,r2
  802574:	e0bffc17 	ldw	r2,-16(fp)
  802578:	10800204 	addi	r2,r2,8
  80257c:	1080008b 	ldhu	r2,2(r2)
  802580:	10ffffcc 	andi	r3,r2,65535
  802584:	e0bffc17 	ldw	r2,-16(fp)
  802588:	1080008b 	ldhu	r2,2(r2)
  80258c:	10bfffcc 	andi	r2,r2,65535
  802590:	1885c83a 	sub	r2,r3,r2
  802594:	100b883a 	mov	r5,r2
  802598:	08031d00 	call	8031d0 <__mulsi3>
                          Matrix * matrixPtr)
{

  alt_u8 retTHRESHOLD = 1 ;
  /* K(X0X2) (Y1Y2)(X1X2) (Y0Y2) */
  matrixPtr->Divider = ((screenPtr[0].x - screenPtr[2].x) * (screenPtr[1].y - screenPtr[2].y)) - 
  80259c:	8085883a 	add	r2,r16,r2
  8025a0:	1009883a 	mov	r4,r2
  8025a4:	080573c0 	call	80573c <__floatsidf>
  8025a8:	1009883a 	mov	r4,r2
  8025ac:	180b883a 	mov	r5,r3
  8025b0:	e0bffd17 	ldw	r2,-12(fp)
  8025b4:	11000c15 	stw	r4,48(r2)
  8025b8:	11400d15 	stw	r5,52(r2)
                       ((screenPtr[1].x - screenPtr[2].x) * (screenPtr[0].y - screenPtr[2].y)) ;
  if( matrixPtr->Divider == 0 )
  8025bc:	e13ffd17 	ldw	r4,-12(fp)
  8025c0:	20800c17 	ldw	r2,48(r4)
  8025c4:	20c00d17 	ldw	r3,52(r4)
  8025c8:	1009883a 	mov	r4,r2
  8025cc:	180b883a 	mov	r5,r3
  8025d0:	000d883a 	mov	r6,zero
  8025d4:	000f883a 	mov	r7,zero
  8025d8:	08044140 	call	804414 <__eqdf2>
  8025dc:	1000021e 	bne	r2,zero,8025e8 <setCalibrationMatrix+0x114>
  {
    retTHRESHOLD = 0;
  8025e0:	e03ffa05 	stb	zero,-24(fp)
  8025e4:	00018006 	br	802be8 <setCalibrationMatrix+0x714>
  }
  else
  {
    /* A((XD0XD2) (Y1Y2)(XD1XD2) (Y0Y2))K    */
    matrixPtr->An = ((displayPtr[0].x - displayPtr[2].x) * (screenPtr[1].y - screenPtr[2].y)) - 
  8025e8:	e0bffb17 	ldw	r2,-20(fp)
  8025ec:	1080000b 	ldhu	r2,0(r2)
  8025f0:	10ffffcc 	andi	r3,r2,65535
  8025f4:	e0bffb17 	ldw	r2,-20(fp)
  8025f8:	10800204 	addi	r2,r2,8
  8025fc:	1080000b 	ldhu	r2,0(r2)
  802600:	10bfffcc 	andi	r2,r2,65535
  802604:	1889c83a 	sub	r4,r3,r2
  802608:	e0bffc17 	ldw	r2,-16(fp)
  80260c:	10800104 	addi	r2,r2,4
  802610:	1080008b 	ldhu	r2,2(r2)
  802614:	10ffffcc 	andi	r3,r2,65535
  802618:	e0bffc17 	ldw	r2,-16(fp)
  80261c:	10800204 	addi	r2,r2,8
  802620:	1080008b 	ldhu	r2,2(r2)
  802624:	10bfffcc 	andi	r2,r2,65535
  802628:	1885c83a 	sub	r2,r3,r2
  80262c:	100b883a 	mov	r5,r2
  802630:	08031d00 	call	8031d0 <__mulsi3>
  802634:	1021883a 	mov	r16,r2
                    ((displayPtr[1].x - displayPtr[2].x) * (screenPtr[0].y - screenPtr[2].y)) ;
  802638:	e0bffb17 	ldw	r2,-20(fp)
  80263c:	10800104 	addi	r2,r2,4
  802640:	1080000b 	ldhu	r2,0(r2)
  802644:	10ffffcc 	andi	r3,r2,65535
  802648:	e0bffb17 	ldw	r2,-20(fp)
  80264c:	10800204 	addi	r2,r2,8
  802650:	1080000b 	ldhu	r2,0(r2)
  802654:	10bfffcc 	andi	r2,r2,65535
  802658:	1889c83a 	sub	r4,r3,r2
  80265c:	e0bffc17 	ldw	r2,-16(fp)
  802660:	10800204 	addi	r2,r2,8
  802664:	1080008b 	ldhu	r2,2(r2)
  802668:	10ffffcc 	andi	r3,r2,65535
  80266c:	e0bffc17 	ldw	r2,-16(fp)
  802670:	1080008b 	ldhu	r2,2(r2)
  802674:	10bfffcc 	andi	r2,r2,65535
  802678:	1885c83a 	sub	r2,r3,r2
  80267c:	100b883a 	mov	r5,r2
  802680:	08031d00 	call	8031d0 <__mulsi3>
    retTHRESHOLD = 0;
  }
  else
  {
    /* A((XD0XD2) (Y1Y2)(XD1XD2) (Y0Y2))K    */
    matrixPtr->An = ((displayPtr[0].x - displayPtr[2].x) * (screenPtr[1].y - screenPtr[2].y)) - 
  802684:	8085883a 	add	r2,r16,r2
  802688:	1009883a 	mov	r4,r2
  80268c:	080573c0 	call	80573c <__floatsidf>
  802690:	1009883a 	mov	r4,r2
  802694:	180b883a 	mov	r5,r3
  802698:	e0bffd17 	ldw	r2,-12(fp)
  80269c:	11000015 	stw	r4,0(r2)
  8026a0:	11400115 	stw	r5,4(r2)
                    ((displayPtr[1].x - displayPtr[2].x) * (screenPtr[0].y - screenPtr[2].y)) ;
    /* B((X0X2) (XD1XD2)(XD0XD2) (X1X2))K    */
    matrixPtr->Bn = ((screenPtr[0].x - screenPtr[2].x) * (displayPtr[1].x - displayPtr[2].x)) - 
  8026a4:	e0bffc17 	ldw	r2,-16(fp)
  8026a8:	1080000b 	ldhu	r2,0(r2)
  8026ac:	10ffffcc 	andi	r3,r2,65535
  8026b0:	e0bffc17 	ldw	r2,-16(fp)
  8026b4:	10800204 	addi	r2,r2,8
  8026b8:	1080000b 	ldhu	r2,0(r2)
  8026bc:	10bfffcc 	andi	r2,r2,65535
  8026c0:	1889c83a 	sub	r4,r3,r2
  8026c4:	e0bffb17 	ldw	r2,-20(fp)
  8026c8:	10800104 	addi	r2,r2,4
  8026cc:	1080000b 	ldhu	r2,0(r2)
  8026d0:	10ffffcc 	andi	r3,r2,65535
  8026d4:	e0bffb17 	ldw	r2,-20(fp)
  8026d8:	10800204 	addi	r2,r2,8
  8026dc:	1080000b 	ldhu	r2,0(r2)
  8026e0:	10bfffcc 	andi	r2,r2,65535
  8026e4:	1885c83a 	sub	r2,r3,r2
  8026e8:	100b883a 	mov	r5,r2
  8026ec:	08031d00 	call	8031d0 <__mulsi3>
  8026f0:	1021883a 	mov	r16,r2
                    ((displayPtr[0].x - displayPtr[2].x) * (screenPtr[1].x - screenPtr[2].x)) ;
  8026f4:	e0bffb17 	ldw	r2,-20(fp)
  8026f8:	1080000b 	ldhu	r2,0(r2)
  8026fc:	10ffffcc 	andi	r3,r2,65535
  802700:	e0bffb17 	ldw	r2,-20(fp)
  802704:	10800204 	addi	r2,r2,8
  802708:	1080000b 	ldhu	r2,0(r2)
  80270c:	10bfffcc 	andi	r2,r2,65535
  802710:	1889c83a 	sub	r4,r3,r2
  802714:	e0bffc17 	ldw	r2,-16(fp)
  802718:	10800204 	addi	r2,r2,8
  80271c:	1080000b 	ldhu	r2,0(r2)
  802720:	10ffffcc 	andi	r3,r2,65535
  802724:	e0bffc17 	ldw	r2,-16(fp)
  802728:	10800104 	addi	r2,r2,4
  80272c:	1080000b 	ldhu	r2,0(r2)
  802730:	10bfffcc 	andi	r2,r2,65535
  802734:	1885c83a 	sub	r2,r3,r2
  802738:	100b883a 	mov	r5,r2
  80273c:	08031d00 	call	8031d0 <__mulsi3>
  {
    /* A((XD0XD2) (Y1Y2)(XD1XD2) (Y0Y2))K    */
    matrixPtr->An = ((displayPtr[0].x - displayPtr[2].x) * (screenPtr[1].y - screenPtr[2].y)) - 
                    ((displayPtr[1].x - displayPtr[2].x) * (screenPtr[0].y - screenPtr[2].y)) ;
    /* B((X0X2) (XD1XD2)(XD0XD2) (X1X2))K    */
    matrixPtr->Bn = ((screenPtr[0].x - screenPtr[2].x) * (displayPtr[1].x - displayPtr[2].x)) - 
  802740:	8085883a 	add	r2,r16,r2
  802744:	1009883a 	mov	r4,r2
  802748:	080573c0 	call	80573c <__floatsidf>
  80274c:	1009883a 	mov	r4,r2
  802750:	180b883a 	mov	r5,r3
  802754:	e0bffd17 	ldw	r2,-12(fp)
  802758:	11000215 	stw	r4,8(r2)
  80275c:	11400315 	stw	r5,12(r2)
                    ((displayPtr[0].x - displayPtr[2].x) * (screenPtr[1].x - screenPtr[2].x)) ;
    /* C(Y0(X2XD1X1XD2)+Y1(X0XD2X2XD0)+Y2(X1XD0X0XD1))K */
    matrixPtr->Cn = (screenPtr[2].x * displayPtr[1].x - screenPtr[1].x * displayPtr[2].x) * screenPtr[0].y +
  802760:	e0bffc17 	ldw	r2,-16(fp)
  802764:	10800204 	addi	r2,r2,8
  802768:	1080000b 	ldhu	r2,0(r2)
  80276c:	10ffffcc 	andi	r3,r2,65535
  802770:	e0bffb17 	ldw	r2,-20(fp)
  802774:	10800104 	addi	r2,r2,4
  802778:	1080000b 	ldhu	r2,0(r2)
  80277c:	10bfffcc 	andi	r2,r2,65535
  802780:	1809883a 	mov	r4,r3
  802784:	100b883a 	mov	r5,r2
  802788:	08031d00 	call	8031d0 <__mulsi3>
  80278c:	1021883a 	mov	r16,r2
  802790:	e0bffc17 	ldw	r2,-16(fp)
  802794:	10800104 	addi	r2,r2,4
  802798:	1080000b 	ldhu	r2,0(r2)
  80279c:	10ffffcc 	andi	r3,r2,65535
  8027a0:	e0bffb17 	ldw	r2,-20(fp)
  8027a4:	10800204 	addi	r2,r2,8
  8027a8:	1080000b 	ldhu	r2,0(r2)
  8027ac:	10bfffcc 	andi	r2,r2,65535
  8027b0:	1809883a 	mov	r4,r3
  8027b4:	100b883a 	mov	r5,r2
  8027b8:	08031d00 	call	8031d0 <__mulsi3>
  8027bc:	8087c83a 	sub	r3,r16,r2
  8027c0:	e0bffc17 	ldw	r2,-16(fp)
  8027c4:	1080008b 	ldhu	r2,2(r2)
  8027c8:	10bfffcc 	andi	r2,r2,65535
  8027cc:	1809883a 	mov	r4,r3
  8027d0:	100b883a 	mov	r5,r2
  8027d4:	08031d00 	call	8031d0 <__mulsi3>
  8027d8:	1021883a 	mov	r16,r2
                    (screenPtr[0].x * displayPtr[2].x - screenPtr[2].x * displayPtr[0].x) * screenPtr[1].y +
  8027dc:	e0bffc17 	ldw	r2,-16(fp)
  8027e0:	1080000b 	ldhu	r2,0(r2)
  8027e4:	10ffffcc 	andi	r3,r2,65535
  8027e8:	e0bffb17 	ldw	r2,-20(fp)
  8027ec:	10800204 	addi	r2,r2,8
  8027f0:	1080000b 	ldhu	r2,0(r2)
  8027f4:	10bfffcc 	andi	r2,r2,65535
  8027f8:	1809883a 	mov	r4,r3
  8027fc:	100b883a 	mov	r5,r2
  802800:	08031d00 	call	8031d0 <__mulsi3>
  802804:	1023883a 	mov	r17,r2
  802808:	e0bffc17 	ldw	r2,-16(fp)
  80280c:	10800204 	addi	r2,r2,8
  802810:	1080000b 	ldhu	r2,0(r2)
  802814:	10ffffcc 	andi	r3,r2,65535
  802818:	e0bffb17 	ldw	r2,-20(fp)
  80281c:	1080000b 	ldhu	r2,0(r2)
  802820:	10bfffcc 	andi	r2,r2,65535
  802824:	1809883a 	mov	r4,r3
  802828:	100b883a 	mov	r5,r2
  80282c:	08031d00 	call	8031d0 <__mulsi3>
  802830:	8887c83a 	sub	r3,r17,r2
  802834:	e0bffc17 	ldw	r2,-16(fp)
  802838:	10800104 	addi	r2,r2,4
  80283c:	1080008b 	ldhu	r2,2(r2)
  802840:	10bfffcc 	andi	r2,r2,65535
  802844:	1809883a 	mov	r4,r3
  802848:	100b883a 	mov	r5,r2
  80284c:	08031d00 	call	8031d0 <__mulsi3>
                    ((displayPtr[1].x - displayPtr[2].x) * (screenPtr[0].y - screenPtr[2].y)) ;
    /* B((X0X2) (XD1XD2)(XD0XD2) (X1X2))K    */
    matrixPtr->Bn = ((screenPtr[0].x - screenPtr[2].x) * (displayPtr[1].x - displayPtr[2].x)) - 
                    ((displayPtr[0].x - displayPtr[2].x) * (screenPtr[1].x - screenPtr[2].x)) ;
    /* C(Y0(X2XD1X1XD2)+Y1(X0XD2X2XD0)+Y2(X1XD0X0XD1))K */
    matrixPtr->Cn = (screenPtr[2].x * displayPtr[1].x - screenPtr[1].x * displayPtr[2].x) * screenPtr[0].y +
  802850:	80a1883a 	add	r16,r16,r2
                    (screenPtr[0].x * displayPtr[2].x - screenPtr[2].x * displayPtr[0].x) * screenPtr[1].y +
                    (screenPtr[1].x * displayPtr[0].x - screenPtr[0].x * displayPtr[1].x) * screenPtr[2].y ;
  802854:	e0bffc17 	ldw	r2,-16(fp)
  802858:	10800104 	addi	r2,r2,4
  80285c:	1080000b 	ldhu	r2,0(r2)
  802860:	10ffffcc 	andi	r3,r2,65535
  802864:	e0bffb17 	ldw	r2,-20(fp)
  802868:	1080000b 	ldhu	r2,0(r2)
  80286c:	10bfffcc 	andi	r2,r2,65535
  802870:	1809883a 	mov	r4,r3
  802874:	100b883a 	mov	r5,r2
  802878:	08031d00 	call	8031d0 <__mulsi3>
  80287c:	1023883a 	mov	r17,r2
  802880:	e0bffc17 	ldw	r2,-16(fp)
  802884:	1080000b 	ldhu	r2,0(r2)
  802888:	10ffffcc 	andi	r3,r2,65535
  80288c:	e0bffb17 	ldw	r2,-20(fp)
  802890:	10800104 	addi	r2,r2,4
  802894:	1080000b 	ldhu	r2,0(r2)
  802898:	10bfffcc 	andi	r2,r2,65535
  80289c:	1809883a 	mov	r4,r3
  8028a0:	100b883a 	mov	r5,r2
  8028a4:	08031d00 	call	8031d0 <__mulsi3>
  8028a8:	8887c83a 	sub	r3,r17,r2
  8028ac:	e0bffc17 	ldw	r2,-16(fp)
  8028b0:	10800204 	addi	r2,r2,8
  8028b4:	1080008b 	ldhu	r2,2(r2)
  8028b8:	10bfffcc 	andi	r2,r2,65535
  8028bc:	1809883a 	mov	r4,r3
  8028c0:	100b883a 	mov	r5,r2
  8028c4:	08031d00 	call	8031d0 <__mulsi3>
    /* B((X0X2) (XD1XD2)(XD0XD2) (X1X2))K    */
    matrixPtr->Bn = ((screenPtr[0].x - screenPtr[2].x) * (displayPtr[1].x - displayPtr[2].x)) - 
                    ((displayPtr[0].x - displayPtr[2].x) * (screenPtr[1].x - screenPtr[2].x)) ;
    /* C(Y0(X2XD1X1XD2)+Y1(X0XD2X2XD0)+Y2(X1XD0X0XD1))K */
    matrixPtr->Cn = (screenPtr[2].x * displayPtr[1].x - screenPtr[1].x * displayPtr[2].x) * screenPtr[0].y +
                    (screenPtr[0].x * displayPtr[2].x - screenPtr[2].x * displayPtr[0].x) * screenPtr[1].y +
  8028c8:	8085883a 	add	r2,r16,r2
                    ((displayPtr[1].x - displayPtr[2].x) * (screenPtr[0].y - screenPtr[2].y)) ;
    /* B((X0X2) (XD1XD2)(XD0XD2) (X1X2))K    */
    matrixPtr->Bn = ((screenPtr[0].x - screenPtr[2].x) * (displayPtr[1].x - displayPtr[2].x)) - 
                    ((displayPtr[0].x - displayPtr[2].x) * (screenPtr[1].x - screenPtr[2].x)) ;
    /* C(Y0(X2XD1X1XD2)+Y1(X0XD2X2XD0)+Y2(X1XD0X0XD1))K */
    matrixPtr->Cn = (screenPtr[2].x * displayPtr[1].x - screenPtr[1].x * displayPtr[2].x) * screenPtr[0].y +
  8028cc:	1009883a 	mov	r4,r2
  8028d0:	080573c0 	call	80573c <__floatsidf>
  8028d4:	1009883a 	mov	r4,r2
  8028d8:	180b883a 	mov	r5,r3
  8028dc:	e0bffd17 	ldw	r2,-12(fp)
  8028e0:	11000415 	stw	r4,16(r2)
  8028e4:	11400515 	stw	r5,20(r2)
                    (screenPtr[0].x * displayPtr[2].x - screenPtr[2].x * displayPtr[0].x) * screenPtr[1].y +
                    (screenPtr[1].x * displayPtr[0].x - screenPtr[0].x * displayPtr[1].x) * screenPtr[2].y ;
    /* D((YD0YD2) (Y1Y2)(YD1YD2) (Y0Y2))K    */
    matrixPtr->Dn = ((displayPtr[0].y - displayPtr[2].y) * (screenPtr[1].y - screenPtr[2].y)) - 
  8028e8:	e0bffb17 	ldw	r2,-20(fp)
  8028ec:	1080008b 	ldhu	r2,2(r2)
  8028f0:	10ffffcc 	andi	r3,r2,65535
  8028f4:	e0bffb17 	ldw	r2,-20(fp)
  8028f8:	10800204 	addi	r2,r2,8
  8028fc:	1080008b 	ldhu	r2,2(r2)
  802900:	10bfffcc 	andi	r2,r2,65535
  802904:	1889c83a 	sub	r4,r3,r2
  802908:	e0bffc17 	ldw	r2,-16(fp)
  80290c:	10800104 	addi	r2,r2,4
  802910:	1080008b 	ldhu	r2,2(r2)
  802914:	10ffffcc 	andi	r3,r2,65535
  802918:	e0bffc17 	ldw	r2,-16(fp)
  80291c:	10800204 	addi	r2,r2,8
  802920:	1080008b 	ldhu	r2,2(r2)
  802924:	10bfffcc 	andi	r2,r2,65535
  802928:	1885c83a 	sub	r2,r3,r2
  80292c:	100b883a 	mov	r5,r2
  802930:	08031d00 	call	8031d0 <__mulsi3>
  802934:	1021883a 	mov	r16,r2
                    ((displayPtr[1].y - displayPtr[2].y) * (screenPtr[0].y - screenPtr[2].y)) ;
  802938:	e0bffb17 	ldw	r2,-20(fp)
  80293c:	10800104 	addi	r2,r2,4
  802940:	1080008b 	ldhu	r2,2(r2)
  802944:	10ffffcc 	andi	r3,r2,65535
  802948:	e0bffb17 	ldw	r2,-20(fp)
  80294c:	10800204 	addi	r2,r2,8
  802950:	1080008b 	ldhu	r2,2(r2)
  802954:	10bfffcc 	andi	r2,r2,65535
  802958:	1889c83a 	sub	r4,r3,r2
  80295c:	e0bffc17 	ldw	r2,-16(fp)
  802960:	10800204 	addi	r2,r2,8
  802964:	1080008b 	ldhu	r2,2(r2)
  802968:	10ffffcc 	andi	r3,r2,65535
  80296c:	e0bffc17 	ldw	r2,-16(fp)
  802970:	1080008b 	ldhu	r2,2(r2)
  802974:	10bfffcc 	andi	r2,r2,65535
  802978:	1885c83a 	sub	r2,r3,r2
  80297c:	100b883a 	mov	r5,r2
  802980:	08031d00 	call	8031d0 <__mulsi3>
    /* C(Y0(X2XD1X1XD2)+Y1(X0XD2X2XD0)+Y2(X1XD0X0XD1))K */
    matrixPtr->Cn = (screenPtr[2].x * displayPtr[1].x - screenPtr[1].x * displayPtr[2].x) * screenPtr[0].y +
                    (screenPtr[0].x * displayPtr[2].x - screenPtr[2].x * displayPtr[0].x) * screenPtr[1].y +
                    (screenPtr[1].x * displayPtr[0].x - screenPtr[0].x * displayPtr[1].x) * screenPtr[2].y ;
    /* D((YD0YD2) (Y1Y2)(YD1YD2) (Y0Y2))K    */
    matrixPtr->Dn = ((displayPtr[0].y - displayPtr[2].y) * (screenPtr[1].y - screenPtr[2].y)) - 
  802984:	8085883a 	add	r2,r16,r2
  802988:	1009883a 	mov	r4,r2
  80298c:	080573c0 	call	80573c <__floatsidf>
  802990:	1009883a 	mov	r4,r2
  802994:	180b883a 	mov	r5,r3
  802998:	e0bffd17 	ldw	r2,-12(fp)
  80299c:	11000615 	stw	r4,24(r2)
  8029a0:	11400715 	stw	r5,28(r2)
                    ((displayPtr[1].y - displayPtr[2].y) * (screenPtr[0].y - screenPtr[2].y)) ;
    /* E((X0X2) (YD1YD2)(YD0YD2) (X1X2))K    */
    matrixPtr->En = ((screenPtr[0].x - screenPtr[2].x) * (displayPtr[1].y - displayPtr[2].y)) - 
  8029a4:	e0bffc17 	ldw	r2,-16(fp)
  8029a8:	1080000b 	ldhu	r2,0(r2)
  8029ac:	10ffffcc 	andi	r3,r2,65535
  8029b0:	e0bffc17 	ldw	r2,-16(fp)
  8029b4:	10800204 	addi	r2,r2,8
  8029b8:	1080000b 	ldhu	r2,0(r2)
  8029bc:	10bfffcc 	andi	r2,r2,65535
  8029c0:	1889c83a 	sub	r4,r3,r2
  8029c4:	e0bffb17 	ldw	r2,-20(fp)
  8029c8:	10800104 	addi	r2,r2,4
  8029cc:	1080008b 	ldhu	r2,2(r2)
  8029d0:	10ffffcc 	andi	r3,r2,65535
  8029d4:	e0bffb17 	ldw	r2,-20(fp)
  8029d8:	10800204 	addi	r2,r2,8
  8029dc:	1080008b 	ldhu	r2,2(r2)
  8029e0:	10bfffcc 	andi	r2,r2,65535
  8029e4:	1885c83a 	sub	r2,r3,r2
  8029e8:	100b883a 	mov	r5,r2
  8029ec:	08031d00 	call	8031d0 <__mulsi3>
  8029f0:	1021883a 	mov	r16,r2
                    ((displayPtr[0].y - displayPtr[2].y) * (screenPtr[1].x - screenPtr[2].x)) ;
  8029f4:	e0bffb17 	ldw	r2,-20(fp)
  8029f8:	1080008b 	ldhu	r2,2(r2)
  8029fc:	10ffffcc 	andi	r3,r2,65535
  802a00:	e0bffb17 	ldw	r2,-20(fp)
  802a04:	10800204 	addi	r2,r2,8
  802a08:	1080008b 	ldhu	r2,2(r2)
  802a0c:	10bfffcc 	andi	r2,r2,65535
  802a10:	1889c83a 	sub	r4,r3,r2
  802a14:	e0bffc17 	ldw	r2,-16(fp)
  802a18:	10800204 	addi	r2,r2,8
  802a1c:	1080000b 	ldhu	r2,0(r2)
  802a20:	10ffffcc 	andi	r3,r2,65535
  802a24:	e0bffc17 	ldw	r2,-16(fp)
  802a28:	10800104 	addi	r2,r2,4
  802a2c:	1080000b 	ldhu	r2,0(r2)
  802a30:	10bfffcc 	andi	r2,r2,65535
  802a34:	1885c83a 	sub	r2,r3,r2
  802a38:	100b883a 	mov	r5,r2
  802a3c:	08031d00 	call	8031d0 <__mulsi3>
                    (screenPtr[1].x * displayPtr[0].x - screenPtr[0].x * displayPtr[1].x) * screenPtr[2].y ;
    /* D((YD0YD2) (Y1Y2)(YD1YD2) (Y0Y2))K    */
    matrixPtr->Dn = ((displayPtr[0].y - displayPtr[2].y) * (screenPtr[1].y - screenPtr[2].y)) - 
                    ((displayPtr[1].y - displayPtr[2].y) * (screenPtr[0].y - screenPtr[2].y)) ;
    /* E((X0X2) (YD1YD2)(YD0YD2) (X1X2))K    */
    matrixPtr->En = ((screenPtr[0].x - screenPtr[2].x) * (displayPtr[1].y - displayPtr[2].y)) - 
  802a40:	8085883a 	add	r2,r16,r2
  802a44:	1009883a 	mov	r4,r2
  802a48:	080573c0 	call	80573c <__floatsidf>
  802a4c:	1009883a 	mov	r4,r2
  802a50:	180b883a 	mov	r5,r3
  802a54:	e0bffd17 	ldw	r2,-12(fp)
  802a58:	11000815 	stw	r4,32(r2)
  802a5c:	11400915 	stw	r5,36(r2)
                    ((displayPtr[0].y - displayPtr[2].y) * (screenPtr[1].x - screenPtr[2].x)) ;
    /* F(Y0(X2YD1X1YD2)+Y1(X0YD2X2YD0)+Y2(X1YD0X0YD1))K */
    matrixPtr->Fn = (screenPtr[2].x * displayPtr[1].y - screenPtr[1].x * displayPtr[2].y) * screenPtr[0].y +
  802a60:	e0bffc17 	ldw	r2,-16(fp)
  802a64:	10800204 	addi	r2,r2,8
  802a68:	1080000b 	ldhu	r2,0(r2)
  802a6c:	10ffffcc 	andi	r3,r2,65535
  802a70:	e0bffb17 	ldw	r2,-20(fp)
  802a74:	10800104 	addi	r2,r2,4
  802a78:	1080008b 	ldhu	r2,2(r2)
  802a7c:	10bfffcc 	andi	r2,r2,65535
  802a80:	1809883a 	mov	r4,r3
  802a84:	100b883a 	mov	r5,r2
  802a88:	08031d00 	call	8031d0 <__mulsi3>
  802a8c:	1021883a 	mov	r16,r2
  802a90:	e0bffc17 	ldw	r2,-16(fp)
  802a94:	10800104 	addi	r2,r2,4
  802a98:	1080000b 	ldhu	r2,0(r2)
  802a9c:	10ffffcc 	andi	r3,r2,65535
  802aa0:	e0bffb17 	ldw	r2,-20(fp)
  802aa4:	10800204 	addi	r2,r2,8
  802aa8:	1080008b 	ldhu	r2,2(r2)
  802aac:	10bfffcc 	andi	r2,r2,65535
  802ab0:	1809883a 	mov	r4,r3
  802ab4:	100b883a 	mov	r5,r2
  802ab8:	08031d00 	call	8031d0 <__mulsi3>
  802abc:	8087c83a 	sub	r3,r16,r2
  802ac0:	e0bffc17 	ldw	r2,-16(fp)
  802ac4:	1080008b 	ldhu	r2,2(r2)
  802ac8:	10bfffcc 	andi	r2,r2,65535
  802acc:	1809883a 	mov	r4,r3
  802ad0:	100b883a 	mov	r5,r2
  802ad4:	08031d00 	call	8031d0 <__mulsi3>
  802ad8:	1021883a 	mov	r16,r2
                    (screenPtr[0].x * displayPtr[2].y - screenPtr[2].x * displayPtr[0].y) * screenPtr[1].y +
  802adc:	e0bffc17 	ldw	r2,-16(fp)
  802ae0:	1080000b 	ldhu	r2,0(r2)
  802ae4:	10ffffcc 	andi	r3,r2,65535
  802ae8:	e0bffb17 	ldw	r2,-20(fp)
  802aec:	10800204 	addi	r2,r2,8
  802af0:	1080008b 	ldhu	r2,2(r2)
  802af4:	10bfffcc 	andi	r2,r2,65535
  802af8:	1809883a 	mov	r4,r3
  802afc:	100b883a 	mov	r5,r2
  802b00:	08031d00 	call	8031d0 <__mulsi3>
  802b04:	1023883a 	mov	r17,r2
  802b08:	e0bffc17 	ldw	r2,-16(fp)
  802b0c:	10800204 	addi	r2,r2,8
  802b10:	1080000b 	ldhu	r2,0(r2)
  802b14:	10ffffcc 	andi	r3,r2,65535
  802b18:	e0bffb17 	ldw	r2,-20(fp)
  802b1c:	1080008b 	ldhu	r2,2(r2)
  802b20:	10bfffcc 	andi	r2,r2,65535
  802b24:	1809883a 	mov	r4,r3
  802b28:	100b883a 	mov	r5,r2
  802b2c:	08031d00 	call	8031d0 <__mulsi3>
  802b30:	8887c83a 	sub	r3,r17,r2
  802b34:	e0bffc17 	ldw	r2,-16(fp)
  802b38:	10800104 	addi	r2,r2,4
  802b3c:	1080008b 	ldhu	r2,2(r2)
  802b40:	10bfffcc 	andi	r2,r2,65535
  802b44:	1809883a 	mov	r4,r3
  802b48:	100b883a 	mov	r5,r2
  802b4c:	08031d00 	call	8031d0 <__mulsi3>
                    ((displayPtr[1].y - displayPtr[2].y) * (screenPtr[0].y - screenPtr[2].y)) ;
    /* E((X0X2) (YD1YD2)(YD0YD2) (X1X2))K    */
    matrixPtr->En = ((screenPtr[0].x - screenPtr[2].x) * (displayPtr[1].y - displayPtr[2].y)) - 
                    ((displayPtr[0].y - displayPtr[2].y) * (screenPtr[1].x - screenPtr[2].x)) ;
    /* F(Y0(X2YD1X1YD2)+Y1(X0YD2X2YD0)+Y2(X1YD0X0YD1))K */
    matrixPtr->Fn = (screenPtr[2].x * displayPtr[1].y - screenPtr[1].x * displayPtr[2].y) * screenPtr[0].y +
  802b50:	80a1883a 	add	r16,r16,r2
                    (screenPtr[0].x * displayPtr[2].y - screenPtr[2].x * displayPtr[0].y) * screenPtr[1].y +
                    (screenPtr[1].x * displayPtr[0].y - screenPtr[0].x * displayPtr[1].y) * screenPtr[2].y ;
  802b54:	e0bffc17 	ldw	r2,-16(fp)
  802b58:	10800104 	addi	r2,r2,4
  802b5c:	1080000b 	ldhu	r2,0(r2)
  802b60:	10ffffcc 	andi	r3,r2,65535
  802b64:	e0bffb17 	ldw	r2,-20(fp)
  802b68:	1080008b 	ldhu	r2,2(r2)
  802b6c:	10bfffcc 	andi	r2,r2,65535
  802b70:	1809883a 	mov	r4,r3
  802b74:	100b883a 	mov	r5,r2
  802b78:	08031d00 	call	8031d0 <__mulsi3>
  802b7c:	1023883a 	mov	r17,r2
  802b80:	e0bffc17 	ldw	r2,-16(fp)
  802b84:	1080000b 	ldhu	r2,0(r2)
  802b88:	10ffffcc 	andi	r3,r2,65535
  802b8c:	e0bffb17 	ldw	r2,-20(fp)
  802b90:	10800104 	addi	r2,r2,4
  802b94:	1080008b 	ldhu	r2,2(r2)
  802b98:	10bfffcc 	andi	r2,r2,65535
  802b9c:	1809883a 	mov	r4,r3
  802ba0:	100b883a 	mov	r5,r2
  802ba4:	08031d00 	call	8031d0 <__mulsi3>
  802ba8:	8887c83a 	sub	r3,r17,r2
  802bac:	e0bffc17 	ldw	r2,-16(fp)
  802bb0:	10800204 	addi	r2,r2,8
  802bb4:	1080008b 	ldhu	r2,2(r2)
  802bb8:	10bfffcc 	andi	r2,r2,65535
  802bbc:	1809883a 	mov	r4,r3
  802bc0:	100b883a 	mov	r5,r2
  802bc4:	08031d00 	call	8031d0 <__mulsi3>
    /* E((X0X2) (YD1YD2)(YD0YD2) (X1X2))K    */
    matrixPtr->En = ((screenPtr[0].x - screenPtr[2].x) * (displayPtr[1].y - displayPtr[2].y)) - 
                    ((displayPtr[0].y - displayPtr[2].y) * (screenPtr[1].x - screenPtr[2].x)) ;
    /* F(Y0(X2YD1X1YD2)+Y1(X0YD2X2YD0)+Y2(X1YD0X0YD1))K */
    matrixPtr->Fn = (screenPtr[2].x * displayPtr[1].y - screenPtr[1].x * displayPtr[2].y) * screenPtr[0].y +
                    (screenPtr[0].x * displayPtr[2].y - screenPtr[2].x * displayPtr[0].y) * screenPtr[1].y +
  802bc8:	8085883a 	add	r2,r16,r2
                    ((displayPtr[1].y - displayPtr[2].y) * (screenPtr[0].y - screenPtr[2].y)) ;
    /* E((X0X2) (YD1YD2)(YD0YD2) (X1X2))K    */
    matrixPtr->En = ((screenPtr[0].x - screenPtr[2].x) * (displayPtr[1].y - displayPtr[2].y)) - 
                    ((displayPtr[0].y - displayPtr[2].y) * (screenPtr[1].x - screenPtr[2].x)) ;
    /* F(Y0(X2YD1X1YD2)+Y1(X0YD2X2YD0)+Y2(X1YD0X0YD1))K */
    matrixPtr->Fn = (screenPtr[2].x * displayPtr[1].y - screenPtr[1].x * displayPtr[2].y) * screenPtr[0].y +
  802bcc:	1009883a 	mov	r4,r2
  802bd0:	080573c0 	call	80573c <__floatsidf>
  802bd4:	1009883a 	mov	r4,r2
  802bd8:	180b883a 	mov	r5,r3
  802bdc:	e0bffd17 	ldw	r2,-12(fp)
  802be0:	11000a15 	stw	r4,40(r2)
  802be4:	11400b15 	stw	r5,44(r2)
                    (screenPtr[0].x * displayPtr[2].y - screenPtr[2].x * displayPtr[0].y) * screenPtr[1].y +
                    (screenPtr[1].x * displayPtr[0].y - screenPtr[0].x * displayPtr[1].y) * screenPtr[2].y ;
  }
  return( retTHRESHOLD ) ;
  802be8:	e0bffa03 	ldbu	r2,-24(fp)
}
  802bec:	e6fffe04 	addi	sp,fp,-8
  802bf0:	dfc00317 	ldw	ra,12(sp)
  802bf4:	df000217 	ldw	fp,8(sp)
  802bf8:	dc400117 	ldw	r17,4(sp)
  802bfc:	dc000017 	ldw	r16,0(sp)
  802c00:	dec00404 	addi	sp,sp,16
  802c04:	f800283a 	ret

00802c08 <getDisplayPoint>:
* Attention      : None
*******************************************************************************/
alt_u8 getDisplayPoint(Coordinate * displayPtr,
                     Coordinate * screenPtr,
                     Matrix * matrixPtr )
{
  802c08:	defff604 	addi	sp,sp,-40
  802c0c:	dfc00915 	stw	ra,36(sp)
  802c10:	df000815 	stw	fp,32(sp)
  802c14:	dcc00715 	stw	r19,28(sp)
  802c18:	dc800615 	stw	r18,24(sp)
  802c1c:	dc400515 	stw	r17,20(sp)
  802c20:	dc000415 	stw	r16,16(sp)
  802c24:	df000804 	addi	fp,sp,32
  802c28:	e13ff915 	stw	r4,-28(fp)
  802c2c:	e17ffa15 	stw	r5,-24(fp)
  802c30:	e1bffb15 	stw	r6,-20(fp)
  alt_u8 retTHRESHOLD =1 ;
  802c34:	00800044 	movi	r2,1
  802c38:	e0bff805 	stb	r2,-32(fp)

  if( matrixPtr->Divider != 0 )
  802c3c:	e13ffb17 	ldw	r4,-20(fp)
  802c40:	20800c17 	ldw	r2,48(r4)
  802c44:	20c00d17 	ldw	r3,52(r4)
  802c48:	1009883a 	mov	r4,r2
  802c4c:	180b883a 	mov	r5,r3
  802c50:	000d883a 	mov	r6,zero
  802c54:	000f883a 	mov	r7,zero
  802c58:	08044140 	call	804414 <__eqdf2>
  802c5c:	10009b26 	beq	r2,zero,802ecc <getDisplayPoint+0x2c4>
  {
    /* XD = AX+BY+C */        
    displayPtr->x = ( (matrixPtr->An * screenPtr->x) + 
  802c60:	e0bffb17 	ldw	r2,-20(fp)
  802c64:	14000017 	ldw	r16,0(r2)
  802c68:	14400117 	ldw	r17,4(r2)
  802c6c:	e0bffa17 	ldw	r2,-24(fp)
  802c70:	1080000b 	ldhu	r2,0(r2)
  802c74:	10bfffcc 	andi	r2,r2,65535
  802c78:	1009883a 	mov	r4,r2
  802c7c:	080573c0 	call	80573c <__floatsidf>
  802c80:	100f883a 	mov	r7,r2
  802c84:	1811883a 	mov	r8,r3
  802c88:	8009883a 	mov	r4,r16
  802c8c:	880b883a 	mov	r5,r17
  802c90:	380d883a 	mov	r6,r7
  802c94:	400f883a 	mov	r7,r8
  802c98:	08045780 	call	804578 <__muldf3>
  802c9c:	1009883a 	mov	r4,r2
  802ca0:	180b883a 	mov	r5,r3
  802ca4:	2025883a 	mov	r18,r4
  802ca8:	2827883a 	mov	r19,r5
                      (matrixPtr->Bn * screenPtr->y) + 
  802cac:	e0bffb17 	ldw	r2,-20(fp)
  802cb0:	14000217 	ldw	r16,8(r2)
  802cb4:	14400317 	ldw	r17,12(r2)
  802cb8:	e0bffa17 	ldw	r2,-24(fp)
  802cbc:	1080008b 	ldhu	r2,2(r2)
  802cc0:	10bfffcc 	andi	r2,r2,65535
  802cc4:	1009883a 	mov	r4,r2
  802cc8:	080573c0 	call	80573c <__floatsidf>
  802ccc:	100f883a 	mov	r7,r2
  802cd0:	1811883a 	mov	r8,r3
  802cd4:	8009883a 	mov	r4,r16
  802cd8:	880b883a 	mov	r5,r17
  802cdc:	380d883a 	mov	r6,r7
  802ce0:	400f883a 	mov	r7,r8
  802ce4:	08045780 	call	804578 <__muldf3>
  802ce8:	1009883a 	mov	r4,r2
  802cec:	180b883a 	mov	r5,r3
  802cf0:	2005883a 	mov	r2,r4
  802cf4:	2807883a 	mov	r3,r5
  alt_u8 retTHRESHOLD =1 ;

  if( matrixPtr->Divider != 0 )
  {
    /* XD = AX+BY+C */        
    displayPtr->x = ( (matrixPtr->An * screenPtr->x) + 
  802cf8:	9009883a 	mov	r4,r18
  802cfc:	980b883a 	mov	r5,r19
  802d00:	100d883a 	mov	r6,r2
  802d04:	180f883a 	mov	r7,r3
  802d08:	08031f80 	call	8031f8 <__adddf3>
  802d0c:	100f883a 	mov	r7,r2
  802d10:	1811883a 	mov	r8,r3
  802d14:	380b883a 	mov	r5,r7
  802d18:	400d883a 	mov	r6,r8
                      (matrixPtr->Bn * screenPtr->y) + 
                       matrixPtr->Cn 
  802d1c:	e13ffb17 	ldw	r4,-20(fp)
  802d20:	20800417 	ldw	r2,16(r4)
  802d24:	20c00517 	ldw	r3,20(r4)

  if( matrixPtr->Divider != 0 )
  {
    /* XD = AX+BY+C */        
    displayPtr->x = ( (matrixPtr->An * screenPtr->x) + 
                      (matrixPtr->Bn * screenPtr->y) + 
  802d28:	2809883a 	mov	r4,r5
  802d2c:	300b883a 	mov	r5,r6
  802d30:	100d883a 	mov	r6,r2
  802d34:	180f883a 	mov	r7,r3
  802d38:	08031f80 	call	8031f8 <__adddf3>
  802d3c:	100f883a 	mov	r7,r2
  802d40:	1811883a 	mov	r8,r3
  802d44:	380b883a 	mov	r5,r7
  802d48:	400d883a 	mov	r6,r8
                       matrixPtr->Cn 
                    ) / matrixPtr->Divider ;
  802d4c:	e13ffb17 	ldw	r4,-20(fp)
  802d50:	20800c17 	ldw	r2,48(r4)
  802d54:	20c00d17 	ldw	r3,52(r4)
  802d58:	2809883a 	mov	r4,r5
  802d5c:	300b883a 	mov	r5,r6
  802d60:	100d883a 	mov	r6,r2
  802d64:	180f883a 	mov	r7,r3
  802d68:	0803a940 	call	803a94 <__divdf3>
  802d6c:	1009883a 	mov	r4,r2
  802d70:	180b883a 	mov	r5,r3
  802d74:	2005883a 	mov	r2,r4
  802d78:	2807883a 	mov	r3,r5
  alt_u8 retTHRESHOLD =1 ;

  if( matrixPtr->Divider != 0 )
  {
    /* XD = AX+BY+C */        
    displayPtr->x = ( (matrixPtr->An * screenPtr->x) + 
  802d7c:	1009883a 	mov	r4,r2
  802d80:	180b883a 	mov	r5,r3
  802d84:	08030300 	call	803030 <__fixunsdfsi>
  802d88:	1007883a 	mov	r3,r2
  802d8c:	e0bff917 	ldw	r2,-28(fp)
  802d90:	10c0000d 	sth	r3,0(r2)
                      (matrixPtr->Bn * screenPtr->y) + 
                       matrixPtr->Cn 
                    ) / matrixPtr->Divider ;
    /* YD = DX+EY+F */        
    displayPtr->y = ( (matrixPtr->Dn * screenPtr->x) + 
  802d94:	e0bffb17 	ldw	r2,-20(fp)
  802d98:	14000617 	ldw	r16,24(r2)
  802d9c:	14400717 	ldw	r17,28(r2)
  802da0:	e0bffa17 	ldw	r2,-24(fp)
  802da4:	1080000b 	ldhu	r2,0(r2)
  802da8:	10bfffcc 	andi	r2,r2,65535
  802dac:	1009883a 	mov	r4,r2
  802db0:	080573c0 	call	80573c <__floatsidf>
  802db4:	100f883a 	mov	r7,r2
  802db8:	1811883a 	mov	r8,r3
  802dbc:	8009883a 	mov	r4,r16
  802dc0:	880b883a 	mov	r5,r17
  802dc4:	380d883a 	mov	r6,r7
  802dc8:	400f883a 	mov	r7,r8
  802dcc:	08045780 	call	804578 <__muldf3>
  802dd0:	1009883a 	mov	r4,r2
  802dd4:	180b883a 	mov	r5,r3
  802dd8:	2025883a 	mov	r18,r4
  802ddc:	2827883a 	mov	r19,r5
                      (matrixPtr->En * screenPtr->y) + 
  802de0:	e0bffb17 	ldw	r2,-20(fp)
  802de4:	14000817 	ldw	r16,32(r2)
  802de8:	14400917 	ldw	r17,36(r2)
  802dec:	e0bffa17 	ldw	r2,-24(fp)
  802df0:	1080008b 	ldhu	r2,2(r2)
  802df4:	10bfffcc 	andi	r2,r2,65535
  802df8:	1009883a 	mov	r4,r2
  802dfc:	080573c0 	call	80573c <__floatsidf>
  802e00:	100f883a 	mov	r7,r2
  802e04:	1811883a 	mov	r8,r3
  802e08:	8009883a 	mov	r4,r16
  802e0c:	880b883a 	mov	r5,r17
  802e10:	380d883a 	mov	r6,r7
  802e14:	400f883a 	mov	r7,r8
  802e18:	08045780 	call	804578 <__muldf3>
  802e1c:	1009883a 	mov	r4,r2
  802e20:	180b883a 	mov	r5,r3
  802e24:	2005883a 	mov	r2,r4
  802e28:	2807883a 	mov	r3,r5
    displayPtr->x = ( (matrixPtr->An * screenPtr->x) + 
                      (matrixPtr->Bn * screenPtr->y) + 
                       matrixPtr->Cn 
                    ) / matrixPtr->Divider ;
    /* YD = DX+EY+F */        
    displayPtr->y = ( (matrixPtr->Dn * screenPtr->x) + 
  802e2c:	9009883a 	mov	r4,r18
  802e30:	980b883a 	mov	r5,r19
  802e34:	100d883a 	mov	r6,r2
  802e38:	180f883a 	mov	r7,r3
  802e3c:	08031f80 	call	8031f8 <__adddf3>
  802e40:	100f883a 	mov	r7,r2
  802e44:	1811883a 	mov	r8,r3
  802e48:	380b883a 	mov	r5,r7
  802e4c:	400d883a 	mov	r6,r8
                      (matrixPtr->En * screenPtr->y) + 
                       matrixPtr->Fn 
  802e50:	e13ffb17 	ldw	r4,-20(fp)
  802e54:	20800a17 	ldw	r2,40(r4)
  802e58:	20c00b17 	ldw	r3,44(r4)
                      (matrixPtr->Bn * screenPtr->y) + 
                       matrixPtr->Cn 
                    ) / matrixPtr->Divider ;
    /* YD = DX+EY+F */        
    displayPtr->y = ( (matrixPtr->Dn * screenPtr->x) + 
                      (matrixPtr->En * screenPtr->y) + 
  802e5c:	2809883a 	mov	r4,r5
  802e60:	300b883a 	mov	r5,r6
  802e64:	100d883a 	mov	r6,r2
  802e68:	180f883a 	mov	r7,r3
  802e6c:	08031f80 	call	8031f8 <__adddf3>
  802e70:	100f883a 	mov	r7,r2
  802e74:	1811883a 	mov	r8,r3
  802e78:	380b883a 	mov	r5,r7
  802e7c:	400d883a 	mov	r6,r8
                       matrixPtr->Fn 
                    ) / matrixPtr->Divider ;
  802e80:	e13ffb17 	ldw	r4,-20(fp)
  802e84:	20800c17 	ldw	r2,48(r4)
  802e88:	20c00d17 	ldw	r3,52(r4)
  802e8c:	2809883a 	mov	r4,r5
  802e90:	300b883a 	mov	r5,r6
  802e94:	100d883a 	mov	r6,r2
  802e98:	180f883a 	mov	r7,r3
  802e9c:	0803a940 	call	803a94 <__divdf3>
  802ea0:	1009883a 	mov	r4,r2
  802ea4:	180b883a 	mov	r5,r3
  802ea8:	2005883a 	mov	r2,r4
  802eac:	2807883a 	mov	r3,r5
    displayPtr->x = ( (matrixPtr->An * screenPtr->x) + 
                      (matrixPtr->Bn * screenPtr->y) + 
                       matrixPtr->Cn 
                    ) / matrixPtr->Divider ;
    /* YD = DX+EY+F */        
    displayPtr->y = ( (matrixPtr->Dn * screenPtr->x) + 
  802eb0:	1009883a 	mov	r4,r2
  802eb4:	180b883a 	mov	r5,r3
  802eb8:	08030300 	call	803030 <__fixunsdfsi>
  802ebc:	1007883a 	mov	r3,r2
  802ec0:	e0bff917 	ldw	r2,-28(fp)
  802ec4:	10c0008d 	sth	r3,2(r2)
  802ec8:	00000106 	br	802ed0 <getDisplayPoint+0x2c8>
                       matrixPtr->Fn 
                    ) / matrixPtr->Divider ;
  }
  else
  {
    retTHRESHOLD = 0;
  802ecc:	e03ff805 	stb	zero,-32(fp)
  }
  return(retTHRESHOLD);
  802ed0:	e0bff803 	ldbu	r2,-32(fp)
} 
  802ed4:	e6fffc04 	addi	sp,fp,-16
  802ed8:	dfc00517 	ldw	ra,20(sp)
  802edc:	df000417 	ldw	fp,16(sp)
  802ee0:	dcc00317 	ldw	r19,12(sp)
  802ee4:	dc800217 	ldw	r18,8(sp)
  802ee8:	dc400117 	ldw	r17,4(sp)
  802eec:	dc000017 	ldw	r16,0(sp)
  802ef0:	dec00604 	addi	sp,sp,24
  802ef4:	f800283a 	ret

00802ef8 <TouchPanel_Calibrate>:
* Output         : None
* Return         : None
* Attention      : None
*******************************************************************************/
void TouchPanel_Calibrate(void)
{
  802ef8:	defffb04 	addi	sp,sp,-20
  802efc:	dfc00415 	stw	ra,16(sp)
  802f00:	df000315 	stw	fp,12(sp)
  802f04:	df000304 	addi	fp,sp,12
  alt_u8 i;
  Coordinate * Ptr;

  for(i=0;i<3;i++)
  802f08:	e03ffe05 	stb	zero,-8(fp)
  802f0c:	00003706 	br	802fec <TouchPanel_Calibrate+0xf4>
  {
   LCD_Clear(Cyan);
  802f10:	011fffc4 	movi	r4,32767
  802f14:	0800c940 	call	800c94 <LCD_Clear>
   GUI_Text(44,10,"Touch crosshair to calibrate",Red,White);
  802f18:	00bfffd4 	movui	r2,65535
  802f1c:	d8800015 	stw	r2,0(sp)
  802f20:	01000b04 	movi	r4,44
  802f24:	01400284 	movi	r5,10
  802f28:	01802074 	movhi	r6,129
  802f2c:	3187fa04 	addi	r6,r6,8168
  802f30:	01fe0014 	movui	r7,63488
  802f34:	08015240 	call	801524 <GUI_Text>
   delay_ms(500);
  802f38:	01007d04 	movi	r4,500
  802f3c:	08019dc0 	call	8019dc <delay_ms>
   DrawCross(DisplaySample[i].x,DisplaySample[i].y);
  802f40:	e0fffe03 	ldbu	r3,-8(fp)
  802f44:	00802074 	movhi	r2,129
  802f48:	10889804 	addi	r2,r2,8800
  802f4c:	18c7883a 	add	r3,r3,r3
  802f50:	18c7883a 	add	r3,r3,r3
  802f54:	10c5883a 	add	r2,r2,r3
  802f58:	1080000b 	ldhu	r2,0(r2)
  802f5c:	113fffcc 	andi	r4,r2,65535
  802f60:	e0fffe03 	ldbu	r3,-8(fp)
  802f64:	00802074 	movhi	r2,129
  802f68:	10889804 	addi	r2,r2,8800
  802f6c:	18c7883a 	add	r3,r3,r3
  802f70:	18c7883a 	add	r3,r3,r3
  802f74:	10c5883a 	add	r2,r2,r3
  802f78:	1080008b 	ldhu	r2,2(r2)
  802f7c:	10bfffcc 	andi	r2,r2,65535
  802f80:	100b883a 	mov	r5,r2
  802f84:	0801ea00 	call	801ea0 <DrawCross>
   do
   {
     Ptr=Read_Ads7846();
  802f88:	08021ac0 	call	8021ac <Read_Ads7846>
  802f8c:	e0bfff15 	stw	r2,-4(fp)
   }
   while( Ptr == (void*)0 );
  802f90:	e0bfff17 	ldw	r2,-4(fp)
  802f94:	103ffc26 	beq	r2,zero,802f88 <__reset+0xff801788>
   ScreenSample[i].x= Ptr->x; ScreenSample[i].y= Ptr->y;
  802f98:	e0fffe03 	ldbu	r3,-8(fp)
  802f9c:	e0bfff17 	ldw	r2,-4(fp)
  802fa0:	1100000b 	ldhu	r4,0(r2)
  802fa4:	00802074 	movhi	r2,129
  802fa8:	108eab04 	addi	r2,r2,15020
  802fac:	18c7883a 	add	r3,r3,r3
  802fb0:	18c7883a 	add	r3,r3,r3
  802fb4:	10c5883a 	add	r2,r2,r3
  802fb8:	1100000d 	sth	r4,0(r2)
  802fbc:	e0fffe03 	ldbu	r3,-8(fp)
  802fc0:	e0bfff17 	ldw	r2,-4(fp)
  802fc4:	1100008b 	ldhu	r4,2(r2)
  802fc8:	00802074 	movhi	r2,129
  802fcc:	108eab04 	addi	r2,r2,15020
  802fd0:	18c7883a 	add	r3,r3,r3
  802fd4:	18c7883a 	add	r3,r3,r3
  802fd8:	10c5883a 	add	r2,r2,r3
  802fdc:	1100008d 	sth	r4,2(r2)
void TouchPanel_Calibrate(void)
{
  alt_u8 i;
  Coordinate * Ptr;

  for(i=0;i<3;i++)
  802fe0:	e0bffe03 	ldbu	r2,-8(fp)
  802fe4:	10800044 	addi	r2,r2,1
  802fe8:	e0bffe05 	stb	r2,-8(fp)
  802fec:	e0bffe03 	ldbu	r2,-8(fp)
  802ff0:	108000f0 	cmpltui	r2,r2,3
  802ff4:	103fc61e 	bne	r2,zero,802f10 <__reset+0xff801710>
     Ptr=Read_Ads7846();
   }
   while( Ptr == (void*)0 );
   ScreenSample[i].x= Ptr->x; ScreenSample[i].y= Ptr->y;
  }
  setCalibrationMatrix( &DisplaySample[0],&ScreenSample[0],&matrix );
  802ff8:	01002074 	movhi	r4,129
  802ffc:	21089804 	addi	r4,r4,8800
  803000:	01402074 	movhi	r5,129
  803004:	294eab04 	addi	r5,r5,15020
  803008:	01802074 	movhi	r6,129
  80300c:	318eae04 	addi	r6,r6,15032
  803010:	08024d40 	call	8024d4 <setCalibrationMatrix>
  LCD_Clear(RGB565CONVERT(200,200,120));
  803014:	013393d4 	movui	r4,52815
  803018:	0800c940 	call	800c94 <LCD_Clear>
} 
  80301c:	e037883a 	mov	sp,fp
  803020:	dfc00117 	ldw	ra,4(sp)
  803024:	df000017 	ldw	fp,0(sp)
  803028:	dec00204 	addi	sp,sp,8
  80302c:	f800283a 	ret

00803030 <__fixunsdfsi>:
  803030:	defffd04 	addi	sp,sp,-12
  803034:	000d883a 	mov	r6,zero
  803038:	01d07834 	movhi	r7,16864
  80303c:	dc400115 	stw	r17,4(sp)
  803040:	dc000015 	stw	r16,0(sp)
  803044:	dfc00215 	stw	ra,8(sp)
  803048:	2023883a 	mov	r17,r4
  80304c:	2821883a 	mov	r16,r5
  803050:	08044980 	call	804498 <__gedf2>
  803054:	1000080e 	bge	r2,zero,803078 <__fixunsdfsi+0x48>
  803058:	8809883a 	mov	r4,r17
  80305c:	800b883a 	mov	r5,r16
  803060:	08056b40 	call	8056b4 <__fixdfsi>
  803064:	dfc00217 	ldw	ra,8(sp)
  803068:	dc400117 	ldw	r17,4(sp)
  80306c:	dc000017 	ldw	r16,0(sp)
  803070:	dec00304 	addi	sp,sp,12
  803074:	f800283a 	ret
  803078:	000d883a 	mov	r6,zero
  80307c:	01d07834 	movhi	r7,16864
  803080:	8809883a 	mov	r4,r17
  803084:	800b883a 	mov	r5,r16
  803088:	0804de40 	call	804de4 <__subdf3>
  80308c:	180b883a 	mov	r5,r3
  803090:	1009883a 	mov	r4,r2
  803094:	08056b40 	call	8056b4 <__fixdfsi>
  803098:	00e00034 	movhi	r3,32768
  80309c:	10c5883a 	add	r2,r2,r3
  8030a0:	003ff006 	br	803064 <__reset+0xff801864>

008030a4 <udivmodsi4>:
  8030a4:	2900182e 	bgeu	r5,r4,803108 <udivmodsi4+0x64>
  8030a8:	28001716 	blt	r5,zero,803108 <udivmodsi4+0x64>
  8030ac:	00800804 	movi	r2,32
  8030b0:	00c00044 	movi	r3,1
  8030b4:	00000206 	br	8030c0 <udivmodsi4+0x1c>
  8030b8:	10001126 	beq	r2,zero,803100 <udivmodsi4+0x5c>
  8030bc:	28000516 	blt	r5,zero,8030d4 <udivmodsi4+0x30>
  8030c0:	294b883a 	add	r5,r5,r5
  8030c4:	10bfffc4 	addi	r2,r2,-1
  8030c8:	18c7883a 	add	r3,r3,r3
  8030cc:	293ffa36 	bltu	r5,r4,8030b8 <__reset+0xff8018b8>
  8030d0:	18000b26 	beq	r3,zero,803100 <udivmodsi4+0x5c>
  8030d4:	0005883a 	mov	r2,zero
  8030d8:	21400236 	bltu	r4,r5,8030e4 <udivmodsi4+0x40>
  8030dc:	2149c83a 	sub	r4,r4,r5
  8030e0:	10c4b03a 	or	r2,r2,r3
  8030e4:	1806d07a 	srli	r3,r3,1
  8030e8:	280ad07a 	srli	r5,r5,1
  8030ec:	183ffa1e 	bne	r3,zero,8030d8 <__reset+0xff8018d8>
  8030f0:	3000011e 	bne	r6,zero,8030f8 <udivmodsi4+0x54>
  8030f4:	f800283a 	ret
  8030f8:	2005883a 	mov	r2,r4
  8030fc:	f800283a 	ret
  803100:	0005883a 	mov	r2,zero
  803104:	003ffa06 	br	8030f0 <__reset+0xff8018f0>
  803108:	00c00044 	movi	r3,1
  80310c:	003ff106 	br	8030d4 <__reset+0xff8018d4>

00803110 <__divsi3>:
  803110:	defffe04 	addi	sp,sp,-8
  803114:	dfc00115 	stw	ra,4(sp)
  803118:	dc000015 	stw	r16,0(sp)
  80311c:	20000b16 	blt	r4,zero,80314c <__divsi3+0x3c>
  803120:	0021883a 	mov	r16,zero
  803124:	28000c16 	blt	r5,zero,803158 <__divsi3+0x48>
  803128:	000d883a 	mov	r6,zero
  80312c:	08030a40 	call	8030a4 <udivmodsi4>
  803130:	0407c83a 	sub	r3,zero,r16
  803134:	1884f03a 	xor	r2,r3,r2
  803138:	1405883a 	add	r2,r2,r16
  80313c:	dfc00117 	ldw	ra,4(sp)
  803140:	dc000017 	ldw	r16,0(sp)
  803144:	dec00204 	addi	sp,sp,8
  803148:	f800283a 	ret
  80314c:	0109c83a 	sub	r4,zero,r4
  803150:	04000044 	movi	r16,1
  803154:	283ff40e 	bge	r5,zero,803128 <__reset+0xff801928>
  803158:	014bc83a 	sub	r5,zero,r5
  80315c:	8400005c 	xori	r16,r16,1
  803160:	003ff106 	br	803128 <__reset+0xff801928>

00803164 <__modsi3>:
  803164:	defffd04 	addi	sp,sp,-12
  803168:	dfc00215 	stw	ra,8(sp)
  80316c:	dc400115 	stw	r17,4(sp)
  803170:	dc000015 	stw	r16,0(sp)
  803174:	20000c16 	blt	r4,zero,8031a8 <__modsi3+0x44>
  803178:	0023883a 	mov	r17,zero
  80317c:	0021883a 	mov	r16,zero
  803180:	28000d16 	blt	r5,zero,8031b8 <__modsi3+0x54>
  803184:	01800044 	movi	r6,1
  803188:	08030a40 	call	8030a4 <udivmodsi4>
  80318c:	1404f03a 	xor	r2,r2,r16
  803190:	8885883a 	add	r2,r17,r2
  803194:	dfc00217 	ldw	ra,8(sp)
  803198:	dc400117 	ldw	r17,4(sp)
  80319c:	dc000017 	ldw	r16,0(sp)
  8031a0:	dec00304 	addi	sp,sp,12
  8031a4:	f800283a 	ret
  8031a8:	0109c83a 	sub	r4,zero,r4
  8031ac:	04400044 	movi	r17,1
  8031b0:	043fffc4 	movi	r16,-1
  8031b4:	283ff30e 	bge	r5,zero,803184 <__reset+0xff801984>
  8031b8:	014bc83a 	sub	r5,zero,r5
  8031bc:	003ff106 	br	803184 <__reset+0xff801984>

008031c0 <__udivsi3>:
  8031c0:	000d883a 	mov	r6,zero
  8031c4:	08030a41 	jmpi	8030a4 <udivmodsi4>

008031c8 <__umodsi3>:
  8031c8:	01800044 	movi	r6,1
  8031cc:	08030a41 	jmpi	8030a4 <udivmodsi4>

008031d0 <__mulsi3>:
  8031d0:	0005883a 	mov	r2,zero
  8031d4:	20000726 	beq	r4,zero,8031f4 <__mulsi3+0x24>
  8031d8:	20c0004c 	andi	r3,r4,1
  8031dc:	2008d07a 	srli	r4,r4,1
  8031e0:	18000126 	beq	r3,zero,8031e8 <__mulsi3+0x18>
  8031e4:	1145883a 	add	r2,r2,r5
  8031e8:	294b883a 	add	r5,r5,r5
  8031ec:	203ffa1e 	bne	r4,zero,8031d8 <__reset+0xff8019d8>
  8031f0:	f800283a 	ret
  8031f4:	f800283a 	ret

008031f8 <__adddf3>:
  8031f8:	02000434 	movhi	r8,16
  8031fc:	423fffc4 	addi	r8,r8,-1
  803200:	defffb04 	addi	sp,sp,-20
  803204:	2a12703a 	and	r9,r5,r8
  803208:	2806d7fa 	srli	r3,r5,31
  80320c:	3a10703a 	and	r8,r7,r8
  803210:	3804d53a 	srli	r2,r7,20
  803214:	3014d77a 	srli	r10,r6,29
  803218:	dc000015 	stw	r16,0(sp)
  80321c:	481290fa 	slli	r9,r9,3
  803220:	2820d53a 	srli	r16,r5,20
  803224:	401090fa 	slli	r8,r8,3
  803228:	200ad77a 	srli	r5,r4,29
  80322c:	380ed7fa 	srli	r7,r7,31
  803230:	dc800215 	stw	r18,8(sp)
  803234:	dc400115 	stw	r17,4(sp)
  803238:	dfc00415 	stw	ra,16(sp)
  80323c:	dcc00315 	stw	r19,12(sp)
  803240:	1c803fcc 	andi	r18,r3,255
  803244:	8401ffcc 	andi	r16,r16,2047
  803248:	494ab03a 	or	r5,r9,r5
  80324c:	202290fa 	slli	r17,r4,3
  803250:	1081ffcc 	andi	r2,r2,2047
  803254:	4290b03a 	or	r8,r8,r10
  803258:	300c90fa 	slli	r6,r6,3
  80325c:	91c07026 	beq	r18,r7,803420 <__adddf3+0x228>
  803260:	8087c83a 	sub	r3,r16,r2
  803264:	00c0b30e 	bge	zero,r3,803534 <__adddf3+0x33c>
  803268:	10002a1e 	bne	r2,zero,803314 <__adddf3+0x11c>
  80326c:	4184b03a 	or	r2,r8,r6
  803270:	1000991e 	bne	r2,zero,8034d8 <__adddf3+0x2e0>
  803274:	888001cc 	andi	r2,r17,7
  803278:	10005b26 	beq	r2,zero,8033e8 <__adddf3+0x1f0>
  80327c:	88c003cc 	andi	r3,r17,15
  803280:	00800104 	movi	r2,4
  803284:	18805826 	beq	r3,r2,8033e8 <__adddf3+0x1f0>
  803288:	89800104 	addi	r6,r17,4
  80328c:	3463803a 	cmpltu	r17,r6,r17
  803290:	2c4b883a 	add	r5,r5,r17
  803294:	2880202c 	andhi	r2,r5,128
  803298:	9007883a 	mov	r3,r18
  80329c:	3023883a 	mov	r17,r6
  8032a0:	10005426 	beq	r2,zero,8033f4 <__adddf3+0x1fc>
  8032a4:	84000044 	addi	r16,r16,1
  8032a8:	0081ffc4 	movi	r2,2047
  8032ac:	8080c126 	beq	r16,r2,8035b4 <__adddf3+0x3bc>
  8032b0:	013fe034 	movhi	r4,65408
  8032b4:	213fffc4 	addi	r4,r4,-1
  8032b8:	290a703a 	and	r5,r5,r4
  8032bc:	2804977a 	slli	r2,r5,29
  8032c0:	280a927a 	slli	r5,r5,9
  8032c4:	8822d0fa 	srli	r17,r17,3
  8032c8:	8401ffcc 	andi	r16,r16,2047
  8032cc:	2808d33a 	srli	r4,r5,12
  8032d0:	1444b03a 	or	r2,r2,r17
  8032d4:	8401ffcc 	andi	r16,r16,2047
  8032d8:	800a953a 	slli	r5,r16,20
  8032dc:	18c03fcc 	andi	r3,r3,255
  8032e0:	04000434 	movhi	r16,16
  8032e4:	180697fa 	slli	r3,r3,31
  8032e8:	843fffc4 	addi	r16,r16,-1
  8032ec:	2420703a 	and	r16,r4,r16
  8032f0:	8160b03a 	or	r16,r16,r5
  8032f4:	80c6b03a 	or	r3,r16,r3
  8032f8:	dfc00417 	ldw	ra,16(sp)
  8032fc:	dcc00317 	ldw	r19,12(sp)
  803300:	dc800217 	ldw	r18,8(sp)
  803304:	dc400117 	ldw	r17,4(sp)
  803308:	dc000017 	ldw	r16,0(sp)
  80330c:	dec00504 	addi	sp,sp,20
  803310:	f800283a 	ret
  803314:	0081ffc4 	movi	r2,2047
  803318:	80bfd626 	beq	r16,r2,803274 <__reset+0xff801a74>
  80331c:	42002034 	orhi	r8,r8,128
  803320:	00800e04 	movi	r2,56
  803324:	10c0a616 	blt	r2,r3,8035c0 <__adddf3+0x3c8>
  803328:	008007c4 	movi	r2,31
  80332c:	10c0c916 	blt	r2,r3,803654 <__adddf3+0x45c>
  803330:	00800804 	movi	r2,32
  803334:	10c5c83a 	sub	r2,r2,r3
  803338:	408e983a 	sll	r7,r8,r2
  80333c:	30c8d83a 	srl	r4,r6,r3
  803340:	3084983a 	sll	r2,r6,r2
  803344:	40c6d83a 	srl	r3,r8,r3
  803348:	390cb03a 	or	r6,r7,r4
  80334c:	1004c03a 	cmpne	r2,r2,zero
  803350:	308cb03a 	or	r6,r6,r2
  803354:	898dc83a 	sub	r6,r17,r6
  803358:	89a3803a 	cmpltu	r17,r17,r6
  80335c:	28cbc83a 	sub	r5,r5,r3
  803360:	2c4bc83a 	sub	r5,r5,r17
  803364:	3023883a 	mov	r17,r6
  803368:	2880202c 	andhi	r2,r5,128
  80336c:	10006d26 	beq	r2,zero,803524 <__adddf3+0x32c>
  803370:	04c02034 	movhi	r19,128
  803374:	9cffffc4 	addi	r19,r19,-1
  803378:	2ce6703a 	and	r19,r5,r19
  80337c:	98007e26 	beq	r19,zero,803578 <__adddf3+0x380>
  803380:	9809883a 	mov	r4,r19
  803384:	080580c0 	call	80580c <__clzsi2>
  803388:	10fffe04 	addi	r3,r2,-8
  80338c:	010007c4 	movi	r4,31
  803390:	20c07f16 	blt	r4,r3,803590 <__adddf3+0x398>
  803394:	01400a04 	movi	r5,40
  803398:	2885c83a 	sub	r2,r5,r2
  80339c:	888ad83a 	srl	r5,r17,r2
  8033a0:	98e6983a 	sll	r19,r19,r3
  8033a4:	88e2983a 	sll	r17,r17,r3
  8033a8:	2ce6b03a 	or	r19,r5,r19
  8033ac:	1c007c16 	blt	r3,r16,8035a0 <__adddf3+0x3a8>
  8033b0:	1c21c83a 	sub	r16,r3,r16
  8033b4:	81400044 	addi	r5,r16,1
  8033b8:	00c007c4 	movi	r3,31
  8033bc:	19409816 	blt	r3,r5,803620 <__adddf3+0x428>
  8033c0:	1c21c83a 	sub	r16,r3,r16
  8033c4:	8c08983a 	sll	r4,r17,r16
  8033c8:	8946d83a 	srl	r3,r17,r5
  8033cc:	9c20983a 	sll	r16,r19,r16
  8033d0:	2008c03a 	cmpne	r4,r4,zero
  8033d4:	994ad83a 	srl	r5,r19,r5
  8033d8:	1c06b03a 	or	r3,r3,r16
  8033dc:	1922b03a 	or	r17,r3,r4
  8033e0:	0021883a 	mov	r16,zero
  8033e4:	003fa306 	br	803274 <__reset+0xff801a74>
  8033e8:	2880202c 	andhi	r2,r5,128
  8033ec:	9007883a 	mov	r3,r18
  8033f0:	103fac1e 	bne	r2,zero,8032a4 <__reset+0xff801aa4>
  8033f4:	2804977a 	slli	r2,r5,29
  8033f8:	8822d0fa 	srli	r17,r17,3
  8033fc:	0101ffc4 	movi	r4,2047
  803400:	280ad0fa 	srli	r5,r5,3
  803404:	1444b03a 	or	r2,r2,r17
  803408:	81002c26 	beq	r16,r4,8034bc <__adddf3+0x2c4>
  80340c:	8120703a 	and	r16,r16,r4
  803410:	01000434 	movhi	r4,16
  803414:	213fffc4 	addi	r4,r4,-1
  803418:	2908703a 	and	r4,r5,r4
  80341c:	003fad06 	br	8032d4 <__reset+0xff801ad4>
  803420:	8089c83a 	sub	r4,r16,r2
  803424:	01006a0e 	bge	zero,r4,8035d0 <__adddf3+0x3d8>
  803428:	10003326 	beq	r2,zero,8034f8 <__adddf3+0x300>
  80342c:	0081ffc4 	movi	r2,2047
  803430:	80bf9026 	beq	r16,r2,803274 <__reset+0xff801a74>
  803434:	42002034 	orhi	r8,r8,128
  803438:	00800e04 	movi	r2,56
  80343c:	1100b116 	blt	r2,r4,803704 <__adddf3+0x50c>
  803440:	008007c4 	movi	r2,31
  803444:	1100e216 	blt	r2,r4,8037d0 <__adddf3+0x5d8>
  803448:	00800804 	movi	r2,32
  80344c:	1105c83a 	sub	r2,r2,r4
  803450:	4092983a 	sll	r9,r8,r2
  803454:	310ed83a 	srl	r7,r6,r4
  803458:	3084983a 	sll	r2,r6,r2
  80345c:	4110d83a 	srl	r8,r8,r4
  803460:	49ccb03a 	or	r6,r9,r7
  803464:	1004c03a 	cmpne	r2,r2,zero
  803468:	308cb03a 	or	r6,r6,r2
  80346c:	344d883a 	add	r6,r6,r17
  803470:	3463803a 	cmpltu	r17,r6,r17
  803474:	414b883a 	add	r5,r8,r5
  803478:	2c4b883a 	add	r5,r5,r17
  80347c:	3023883a 	mov	r17,r6
  803480:	2880202c 	andhi	r2,r5,128
  803484:	10002726 	beq	r2,zero,803524 <__adddf3+0x32c>
  803488:	84000044 	addi	r16,r16,1
  80348c:	0081ffc4 	movi	r2,2047
  803490:	8080ae26 	beq	r16,r2,80374c <__adddf3+0x554>
  803494:	00bfe034 	movhi	r2,65408
  803498:	10bfffc4 	addi	r2,r2,-1
  80349c:	288a703a 	and	r5,r5,r2
  8034a0:	880cd07a 	srli	r6,r17,1
  8034a4:	280897fa 	slli	r4,r5,31
  8034a8:	88c0004c 	andi	r3,r17,1
  8034ac:	30e2b03a 	or	r17,r6,r3
  8034b0:	280ad07a 	srli	r5,r5,1
  8034b4:	8922b03a 	or	r17,r17,r4
  8034b8:	003f6e06 	br	803274 <__reset+0xff801a74>
  8034bc:	1148b03a 	or	r4,r2,r5
  8034c0:	20003c26 	beq	r4,zero,8035b4 <__adddf3+0x3bc>
  8034c4:	29000234 	orhi	r4,r5,8
  8034c8:	01400434 	movhi	r5,16
  8034cc:	297fffc4 	addi	r5,r5,-1
  8034d0:	2148703a 	and	r4,r4,r5
  8034d4:	003f7f06 	br	8032d4 <__reset+0xff801ad4>
  8034d8:	18ffffc4 	addi	r3,r3,-1
  8034dc:	18004d1e 	bne	r3,zero,803614 <__adddf3+0x41c>
  8034e0:	898dc83a 	sub	r6,r17,r6
  8034e4:	89a3803a 	cmpltu	r17,r17,r6
  8034e8:	2a0bc83a 	sub	r5,r5,r8
  8034ec:	2c4bc83a 	sub	r5,r5,r17
  8034f0:	3023883a 	mov	r17,r6
  8034f4:	003f9c06 	br	803368 <__reset+0xff801b68>
  8034f8:	4184b03a 	or	r2,r8,r6
  8034fc:	103f5d26 	beq	r2,zero,803274 <__reset+0xff801a74>
  803500:	213fffc4 	addi	r4,r4,-1
  803504:	203fd926 	beq	r4,zero,80346c <__reset+0xff801c6c>
  803508:	0081ffc4 	movi	r2,2047
  80350c:	80bfca1e 	bne	r16,r2,803438 <__reset+0xff801c38>
  803510:	003f5806 	br	803274 <__reset+0xff801a74>
  803514:	10c8b03a 	or	r4,r2,r3
  803518:	20008b26 	beq	r4,zero,803748 <__adddf3+0x550>
  80351c:	100b883a 	mov	r5,r2
  803520:	1823883a 	mov	r17,r3
  803524:	888001cc 	andi	r2,r17,7
  803528:	103f541e 	bne	r2,zero,80327c <__reset+0xff801a7c>
  80352c:	9007883a 	mov	r3,r18
  803530:	003fb006 	br	8033f4 <__reset+0xff801bf4>
  803534:	1800531e 	bne	r3,zero,803684 <__adddf3+0x48c>
  803538:	80800044 	addi	r2,r16,1
  80353c:	1081ffcc 	andi	r2,r2,2047
  803540:	00c00044 	movi	r3,1
  803544:	1880990e 	bge	r3,r2,8037ac <__adddf3+0x5b4>
  803548:	8985c83a 	sub	r2,r17,r6
  80354c:	8887803a 	cmpltu	r3,r17,r2
  803550:	2a27c83a 	sub	r19,r5,r8
  803554:	98e7c83a 	sub	r19,r19,r3
  803558:	98c0202c 	andhi	r3,r19,128
  80355c:	18006226 	beq	r3,zero,8036e8 <__adddf3+0x4f0>
  803560:	3463c83a 	sub	r17,r6,r17
  803564:	4151c83a 	sub	r8,r8,r5
  803568:	344d803a 	cmpltu	r6,r6,r17
  80356c:	41a7c83a 	sub	r19,r8,r6
  803570:	3825883a 	mov	r18,r7
  803574:	983f821e 	bne	r19,zero,803380 <__reset+0xff801b80>
  803578:	8809883a 	mov	r4,r17
  80357c:	080580c0 	call	80580c <__clzsi2>
  803580:	10800804 	addi	r2,r2,32
  803584:	10fffe04 	addi	r3,r2,-8
  803588:	010007c4 	movi	r4,31
  80358c:	20ff810e 	bge	r4,r3,803394 <__reset+0xff801b94>
  803590:	14fff604 	addi	r19,r2,-40
  803594:	8ce6983a 	sll	r19,r17,r19
  803598:	0023883a 	mov	r17,zero
  80359c:	1c3f840e 	bge	r3,r16,8033b0 <__reset+0xff801bb0>
  8035a0:	017fe034 	movhi	r5,65408
  8035a4:	297fffc4 	addi	r5,r5,-1
  8035a8:	80e1c83a 	sub	r16,r16,r3
  8035ac:	994a703a 	and	r5,r19,r5
  8035b0:	003f3006 	br	803274 <__reset+0xff801a74>
  8035b4:	0009883a 	mov	r4,zero
  8035b8:	0005883a 	mov	r2,zero
  8035bc:	003f4506 	br	8032d4 <__reset+0xff801ad4>
  8035c0:	418cb03a 	or	r6,r8,r6
  8035c4:	300cc03a 	cmpne	r6,r6,zero
  8035c8:	0007883a 	mov	r3,zero
  8035cc:	003f6106 	br	803354 <__reset+0xff801b54>
  8035d0:	2000921e 	bne	r4,zero,80381c <__adddf3+0x624>
  8035d4:	80800044 	addi	r2,r16,1
  8035d8:	11c1ffcc 	andi	r7,r2,2047
  8035dc:	01000044 	movi	r4,1
  8035e0:	21c0610e 	bge	r4,r7,803768 <__adddf3+0x570>
  8035e4:	0101ffc4 	movi	r4,2047
  8035e8:	1100a326 	beq	r2,r4,803878 <__adddf3+0x680>
  8035ec:	344d883a 	add	r6,r6,r17
  8035f0:	3463803a 	cmpltu	r17,r6,r17
  8035f4:	414b883a 	add	r5,r8,r5
  8035f8:	2c4b883a 	add	r5,r5,r17
  8035fc:	282297fa 	slli	r17,r5,31
  803600:	300cd07a 	srli	r6,r6,1
  803604:	280ad07a 	srli	r5,r5,1
  803608:	1021883a 	mov	r16,r2
  80360c:	89a2b03a 	or	r17,r17,r6
  803610:	003f1806 	br	803274 <__reset+0xff801a74>
  803614:	0081ffc4 	movi	r2,2047
  803618:	80bf411e 	bne	r16,r2,803320 <__reset+0xff801b20>
  80361c:	003f1506 	br	803274 <__reset+0xff801a74>
  803620:	80bff844 	addi	r2,r16,-31
  803624:	00c00804 	movi	r3,32
  803628:	9884d83a 	srl	r2,r19,r2
  80362c:	28c04a26 	beq	r5,r3,803758 <__adddf3+0x560>
  803630:	00c00fc4 	movi	r3,63
  803634:	1c21c83a 	sub	r16,r3,r16
  803638:	9c26983a 	sll	r19,r19,r16
  80363c:	9c62b03a 	or	r17,r19,r17
  803640:	8822c03a 	cmpne	r17,r17,zero
  803644:	88a2b03a 	or	r17,r17,r2
  803648:	000b883a 	mov	r5,zero
  80364c:	0021883a 	mov	r16,zero
  803650:	003fb406 	br	803524 <__reset+0xff801d24>
  803654:	18bff804 	addi	r2,r3,-32
  803658:	01000804 	movi	r4,32
  80365c:	4084d83a 	srl	r2,r8,r2
  803660:	19003f26 	beq	r3,r4,803760 <__adddf3+0x568>
  803664:	01001004 	movi	r4,64
  803668:	20c7c83a 	sub	r3,r4,r3
  80366c:	40d0983a 	sll	r8,r8,r3
  803670:	418cb03a 	or	r6,r8,r6
  803674:	300cc03a 	cmpne	r6,r6,zero
  803678:	308cb03a 	or	r6,r6,r2
  80367c:	0007883a 	mov	r3,zero
  803680:	003f3406 	br	803354 <__reset+0xff801b54>
  803684:	80002326 	beq	r16,zero,803714 <__adddf3+0x51c>
  803688:	0101ffc4 	movi	r4,2047
  80368c:	11005e26 	beq	r2,r4,803808 <__adddf3+0x610>
  803690:	00c7c83a 	sub	r3,zero,r3
  803694:	29402034 	orhi	r5,r5,128
  803698:	01000e04 	movi	r4,56
  80369c:	20c07216 	blt	r4,r3,803868 <__adddf3+0x670>
  8036a0:	010007c4 	movi	r4,31
  8036a4:	20c0ce16 	blt	r4,r3,8039e0 <__adddf3+0x7e8>
  8036a8:	01000804 	movi	r4,32
  8036ac:	20c9c83a 	sub	r4,r4,r3
  8036b0:	2914983a 	sll	r10,r5,r4
  8036b4:	88d2d83a 	srl	r9,r17,r3
  8036b8:	8908983a 	sll	r4,r17,r4
  8036bc:	28c6d83a 	srl	r3,r5,r3
  8036c0:	5262b03a 	or	r17,r10,r9
  8036c4:	2008c03a 	cmpne	r4,r4,zero
  8036c8:	8922b03a 	or	r17,r17,r4
  8036cc:	3463c83a 	sub	r17,r6,r17
  8036d0:	40c7c83a 	sub	r3,r8,r3
  8036d4:	344d803a 	cmpltu	r6,r6,r17
  8036d8:	198bc83a 	sub	r5,r3,r6
  8036dc:	1021883a 	mov	r16,r2
  8036e0:	3825883a 	mov	r18,r7
  8036e4:	003f2006 	br	803368 <__reset+0xff801b68>
  8036e8:	9886b03a 	or	r3,r19,r2
  8036ec:	1800141e 	bne	r3,zero,803740 <__adddf3+0x548>
  8036f0:	0007883a 	mov	r3,zero
  8036f4:	000b883a 	mov	r5,zero
  8036f8:	0023883a 	mov	r17,zero
  8036fc:	0021883a 	mov	r16,zero
  803700:	003f3c06 	br	8033f4 <__reset+0xff801bf4>
  803704:	418cb03a 	or	r6,r8,r6
  803708:	300cc03a 	cmpne	r6,r6,zero
  80370c:	0011883a 	mov	r8,zero
  803710:	003f5606 	br	80346c <__reset+0xff801c6c>
  803714:	2c48b03a 	or	r4,r5,r17
  803718:	20003b26 	beq	r4,zero,803808 <__adddf3+0x610>
  80371c:	00c6303a 	nor	r3,zero,r3
  803720:	1800371e 	bne	r3,zero,803800 <__adddf3+0x608>
  803724:	3463c83a 	sub	r17,r6,r17
  803728:	414bc83a 	sub	r5,r8,r5
  80372c:	344d803a 	cmpltu	r6,r6,r17
  803730:	298bc83a 	sub	r5,r5,r6
  803734:	1021883a 	mov	r16,r2
  803738:	3825883a 	mov	r18,r7
  80373c:	003f0a06 	br	803368 <__reset+0xff801b68>
  803740:	1023883a 	mov	r17,r2
  803744:	003f0d06 	br	80337c <__reset+0xff801b7c>
  803748:	0007883a 	mov	r3,zero
  80374c:	000b883a 	mov	r5,zero
  803750:	0023883a 	mov	r17,zero
  803754:	003f2706 	br	8033f4 <__reset+0xff801bf4>
  803758:	0027883a 	mov	r19,zero
  80375c:	003fb706 	br	80363c <__reset+0xff801e3c>
  803760:	0011883a 	mov	r8,zero
  803764:	003fc206 	br	803670 <__reset+0xff801e70>
  803768:	2c44b03a 	or	r2,r5,r17
  80376c:	8000871e 	bne	r16,zero,80398c <__adddf3+0x794>
  803770:	1000b126 	beq	r2,zero,803a38 <__adddf3+0x840>
  803774:	4184b03a 	or	r2,r8,r6
  803778:	103ebe26 	beq	r2,zero,803274 <__reset+0xff801a74>
  80377c:	3445883a 	add	r2,r6,r17
  803780:	1463803a 	cmpltu	r17,r2,r17
  803784:	414b883a 	add	r5,r8,r5
  803788:	2c4b883a 	add	r5,r5,r17
  80378c:	28c0202c 	andhi	r3,r5,128
  803790:	1023883a 	mov	r17,r2
  803794:	183f6326 	beq	r3,zero,803524 <__reset+0xff801d24>
  803798:	00bfe034 	movhi	r2,65408
  80379c:	10bfffc4 	addi	r2,r2,-1
  8037a0:	2021883a 	mov	r16,r4
  8037a4:	288a703a 	and	r5,r5,r2
  8037a8:	003eb206 	br	803274 <__reset+0xff801a74>
  8037ac:	2c44b03a 	or	r2,r5,r17
  8037b0:	8000251e 	bne	r16,zero,803848 <__adddf3+0x650>
  8037b4:	10004b1e 	bne	r2,zero,8038e4 <__adddf3+0x6ec>
  8037b8:	4184b03a 	or	r2,r8,r6
  8037bc:	103fe226 	beq	r2,zero,803748 <__reset+0xff801f48>
  8037c0:	400b883a 	mov	r5,r8
  8037c4:	3023883a 	mov	r17,r6
  8037c8:	3825883a 	mov	r18,r7
  8037cc:	003ea906 	br	803274 <__reset+0xff801a74>
  8037d0:	20bff804 	addi	r2,r4,-32
  8037d4:	01c00804 	movi	r7,32
  8037d8:	4084d83a 	srl	r2,r8,r2
  8037dc:	21c07e26 	beq	r4,r7,8039d8 <__adddf3+0x7e0>
  8037e0:	01c01004 	movi	r7,64
  8037e4:	3909c83a 	sub	r4,r7,r4
  8037e8:	4110983a 	sll	r8,r8,r4
  8037ec:	418cb03a 	or	r6,r8,r6
  8037f0:	300cc03a 	cmpne	r6,r6,zero
  8037f4:	308cb03a 	or	r6,r6,r2
  8037f8:	0011883a 	mov	r8,zero
  8037fc:	003f1b06 	br	80346c <__reset+0xff801c6c>
  803800:	0101ffc4 	movi	r4,2047
  803804:	113fa41e 	bne	r2,r4,803698 <__reset+0xff801e98>
  803808:	400b883a 	mov	r5,r8
  80380c:	3023883a 	mov	r17,r6
  803810:	1021883a 	mov	r16,r2
  803814:	3825883a 	mov	r18,r7
  803818:	003e9606 	br	803274 <__reset+0xff801a74>
  80381c:	80001a1e 	bne	r16,zero,803888 <__adddf3+0x690>
  803820:	2c4eb03a 	or	r7,r5,r17
  803824:	38005526 	beq	r7,zero,80397c <__adddf3+0x784>
  803828:	0108303a 	nor	r4,zero,r4
  80382c:	2000511e 	bne	r4,zero,803974 <__adddf3+0x77c>
  803830:	89a3883a 	add	r17,r17,r6
  803834:	414b883a 	add	r5,r8,r5
  803838:	898d803a 	cmpltu	r6,r17,r6
  80383c:	298b883a 	add	r5,r5,r6
  803840:	1021883a 	mov	r16,r2
  803844:	003f0e06 	br	803480 <__reset+0xff801c80>
  803848:	1000341e 	bne	r2,zero,80391c <__adddf3+0x724>
  80384c:	4184b03a 	or	r2,r8,r6
  803850:	10006f26 	beq	r2,zero,803a10 <__adddf3+0x818>
  803854:	400b883a 	mov	r5,r8
  803858:	3023883a 	mov	r17,r6
  80385c:	3825883a 	mov	r18,r7
  803860:	0401ffc4 	movi	r16,2047
  803864:	003e8306 	br	803274 <__reset+0xff801a74>
  803868:	2c62b03a 	or	r17,r5,r17
  80386c:	8822c03a 	cmpne	r17,r17,zero
  803870:	0007883a 	mov	r3,zero
  803874:	003f9506 	br	8036cc <__reset+0xff801ecc>
  803878:	1021883a 	mov	r16,r2
  80387c:	000b883a 	mov	r5,zero
  803880:	0023883a 	mov	r17,zero
  803884:	003edb06 	br	8033f4 <__reset+0xff801bf4>
  803888:	01c1ffc4 	movi	r7,2047
  80388c:	11c03b26 	beq	r2,r7,80397c <__adddf3+0x784>
  803890:	0109c83a 	sub	r4,zero,r4
  803894:	29402034 	orhi	r5,r5,128
  803898:	01c00e04 	movi	r7,56
  80389c:	39006216 	blt	r7,r4,803a28 <__adddf3+0x830>
  8038a0:	01c007c4 	movi	r7,31
  8038a4:	39006b16 	blt	r7,r4,803a54 <__adddf3+0x85c>
  8038a8:	01c00804 	movi	r7,32
  8038ac:	390fc83a 	sub	r7,r7,r4
  8038b0:	29d4983a 	sll	r10,r5,r7
  8038b4:	8912d83a 	srl	r9,r17,r4
  8038b8:	89ce983a 	sll	r7,r17,r7
  8038bc:	2908d83a 	srl	r4,r5,r4
  8038c0:	5262b03a 	or	r17,r10,r9
  8038c4:	380ac03a 	cmpne	r5,r7,zero
  8038c8:	8962b03a 	or	r17,r17,r5
  8038cc:	89a3883a 	add	r17,r17,r6
  8038d0:	2211883a 	add	r8,r4,r8
  8038d4:	898d803a 	cmpltu	r6,r17,r6
  8038d8:	418b883a 	add	r5,r8,r6
  8038dc:	1021883a 	mov	r16,r2
  8038e0:	003ee706 	br	803480 <__reset+0xff801c80>
  8038e4:	4184b03a 	or	r2,r8,r6
  8038e8:	103e6226 	beq	r2,zero,803274 <__reset+0xff801a74>
  8038ec:	8987c83a 	sub	r3,r17,r6
  8038f0:	88c9803a 	cmpltu	r4,r17,r3
  8038f4:	2a05c83a 	sub	r2,r5,r8
  8038f8:	1105c83a 	sub	r2,r2,r4
  8038fc:	1100202c 	andhi	r4,r2,128
  803900:	203f0426 	beq	r4,zero,803514 <__reset+0xff801d14>
  803904:	3463c83a 	sub	r17,r6,r17
  803908:	414bc83a 	sub	r5,r8,r5
  80390c:	344d803a 	cmpltu	r6,r6,r17
  803910:	298bc83a 	sub	r5,r5,r6
  803914:	3825883a 	mov	r18,r7
  803918:	003e5606 	br	803274 <__reset+0xff801a74>
  80391c:	4184b03a 	or	r2,r8,r6
  803920:	10002b26 	beq	r2,zero,8039d0 <__adddf3+0x7d8>
  803924:	2804d0fa 	srli	r2,r5,3
  803928:	8822d0fa 	srli	r17,r17,3
  80392c:	280a977a 	slli	r5,r5,29
  803930:	10c0022c 	andhi	r3,r2,8
  803934:	2c62b03a 	or	r17,r5,r17
  803938:	18000826 	beq	r3,zero,80395c <__adddf3+0x764>
  80393c:	4008d0fa 	srli	r4,r8,3
  803940:	20c0022c 	andhi	r3,r4,8
  803944:	1800051e 	bne	r3,zero,80395c <__adddf3+0x764>
  803948:	300cd0fa 	srli	r6,r6,3
  80394c:	4010977a 	slli	r8,r8,29
  803950:	2005883a 	mov	r2,r4
  803954:	3825883a 	mov	r18,r7
  803958:	41a2b03a 	or	r17,r8,r6
  80395c:	880ad77a 	srli	r5,r17,29
  803960:	100490fa 	slli	r2,r2,3
  803964:	882290fa 	slli	r17,r17,3
  803968:	0401ffc4 	movi	r16,2047
  80396c:	288ab03a 	or	r5,r5,r2
  803970:	003e4006 	br	803274 <__reset+0xff801a74>
  803974:	01c1ffc4 	movi	r7,2047
  803978:	11ffc71e 	bne	r2,r7,803898 <__reset+0xff802098>
  80397c:	400b883a 	mov	r5,r8
  803980:	3023883a 	mov	r17,r6
  803984:	1021883a 	mov	r16,r2
  803988:	003e3a06 	br	803274 <__reset+0xff801a74>
  80398c:	10002d26 	beq	r2,zero,803a44 <__adddf3+0x84c>
  803990:	4184b03a 	or	r2,r8,r6
  803994:	10000e26 	beq	r2,zero,8039d0 <__adddf3+0x7d8>
  803998:	2804d0fa 	srli	r2,r5,3
  80399c:	8822d0fa 	srli	r17,r17,3
  8039a0:	280a977a 	slli	r5,r5,29
  8039a4:	10c0022c 	andhi	r3,r2,8
  8039a8:	2c62b03a 	or	r17,r5,r17
  8039ac:	183feb26 	beq	r3,zero,80395c <__reset+0xff80215c>
  8039b0:	4008d0fa 	srli	r4,r8,3
  8039b4:	20c0022c 	andhi	r3,r4,8
  8039b8:	183fe81e 	bne	r3,zero,80395c <__reset+0xff80215c>
  8039bc:	300cd0fa 	srli	r6,r6,3
  8039c0:	4010977a 	slli	r8,r8,29
  8039c4:	2005883a 	mov	r2,r4
  8039c8:	41a2b03a 	or	r17,r8,r6
  8039cc:	003fe306 	br	80395c <__reset+0xff80215c>
  8039d0:	0401ffc4 	movi	r16,2047
  8039d4:	003e2706 	br	803274 <__reset+0xff801a74>
  8039d8:	0011883a 	mov	r8,zero
  8039dc:	003f8306 	br	8037ec <__reset+0xff801fec>
  8039e0:	193ff804 	addi	r4,r3,-32
  8039e4:	02400804 	movi	r9,32
  8039e8:	2908d83a 	srl	r4,r5,r4
  8039ec:	1a402526 	beq	r3,r9,803a84 <__adddf3+0x88c>
  8039f0:	02401004 	movi	r9,64
  8039f4:	48c7c83a 	sub	r3,r9,r3
  8039f8:	28ca983a 	sll	r5,r5,r3
  8039fc:	2c62b03a 	or	r17,r5,r17
  803a00:	8822c03a 	cmpne	r17,r17,zero
  803a04:	8922b03a 	or	r17,r17,r4
  803a08:	0007883a 	mov	r3,zero
  803a0c:	003f2f06 	br	8036cc <__reset+0xff801ecc>
  803a10:	01402034 	movhi	r5,128
  803a14:	0007883a 	mov	r3,zero
  803a18:	297fffc4 	addi	r5,r5,-1
  803a1c:	047ffe04 	movi	r17,-8
  803a20:	0401ffc4 	movi	r16,2047
  803a24:	003e7306 	br	8033f4 <__reset+0xff801bf4>
  803a28:	2c62b03a 	or	r17,r5,r17
  803a2c:	8822c03a 	cmpne	r17,r17,zero
  803a30:	0009883a 	mov	r4,zero
  803a34:	003fa506 	br	8038cc <__reset+0xff8020cc>
  803a38:	400b883a 	mov	r5,r8
  803a3c:	3023883a 	mov	r17,r6
  803a40:	003e0c06 	br	803274 <__reset+0xff801a74>
  803a44:	400b883a 	mov	r5,r8
  803a48:	3023883a 	mov	r17,r6
  803a4c:	0401ffc4 	movi	r16,2047
  803a50:	003e0806 	br	803274 <__reset+0xff801a74>
  803a54:	21fff804 	addi	r7,r4,-32
  803a58:	02400804 	movi	r9,32
  803a5c:	29ced83a 	srl	r7,r5,r7
  803a60:	22400a26 	beq	r4,r9,803a8c <__adddf3+0x894>
  803a64:	02401004 	movi	r9,64
  803a68:	4909c83a 	sub	r4,r9,r4
  803a6c:	290a983a 	sll	r5,r5,r4
  803a70:	2c62b03a 	or	r17,r5,r17
  803a74:	8822c03a 	cmpne	r17,r17,zero
  803a78:	89e2b03a 	or	r17,r17,r7
  803a7c:	0009883a 	mov	r4,zero
  803a80:	003f9206 	br	8038cc <__reset+0xff8020cc>
  803a84:	000b883a 	mov	r5,zero
  803a88:	003fdc06 	br	8039fc <__reset+0xff8021fc>
  803a8c:	000b883a 	mov	r5,zero
  803a90:	003ff706 	br	803a70 <__reset+0xff802270>

00803a94 <__divdf3>:
  803a94:	defff004 	addi	sp,sp,-64
  803a98:	dc800815 	stw	r18,32(sp)
  803a9c:	2824d53a 	srli	r18,r5,20
  803aa0:	dd800c15 	stw	r22,48(sp)
  803aa4:	282cd7fa 	srli	r22,r5,31
  803aa8:	dc000615 	stw	r16,24(sp)
  803aac:	04000434 	movhi	r16,16
  803ab0:	df000e15 	stw	fp,56(sp)
  803ab4:	dd000a15 	stw	r20,40(sp)
  803ab8:	dcc00915 	stw	r19,36(sp)
  803abc:	dc400715 	stw	r17,28(sp)
  803ac0:	843fffc4 	addi	r16,r16,-1
  803ac4:	dfc00f15 	stw	ra,60(sp)
  803ac8:	ddc00d15 	stw	r23,52(sp)
  803acc:	dd400b15 	stw	r21,44(sp)
  803ad0:	9481ffcc 	andi	r18,r18,2047
  803ad4:	2029883a 	mov	r20,r4
  803ad8:	2027883a 	mov	r19,r4
  803adc:	2c22703a 	and	r17,r5,r16
  803ae0:	b7003fcc 	andi	fp,r22,255
  803ae4:	90005e26 	beq	r18,zero,803c60 <__divdf3+0x1cc>
  803ae8:	0081ffc4 	movi	r2,2047
  803aec:	90803526 	beq	r18,r2,803bc4 <__divdf3+0x130>
  803af0:	8c000434 	orhi	r16,r17,16
  803af4:	2004d77a 	srli	r2,r4,29
  803af8:	802090fa 	slli	r16,r16,3
  803afc:	202690fa 	slli	r19,r4,3
  803b00:	94bf0044 	addi	r18,r18,-1023
  803b04:	80a2b03a 	or	r17,r16,r2
  803b08:	0029883a 	mov	r20,zero
  803b0c:	0011883a 	mov	r8,zero
  803b10:	380ad53a 	srli	r5,r7,20
  803b14:	382ed7fa 	srli	r23,r7,31
  803b18:	04000434 	movhi	r16,16
  803b1c:	843fffc4 	addi	r16,r16,-1
  803b20:	2941ffcc 	andi	r5,r5,2047
  803b24:	302b883a 	mov	r21,r6
  803b28:	3c20703a 	and	r16,r7,r16
  803b2c:	ba403fcc 	andi	r9,r23,255
  803b30:	28006726 	beq	r5,zero,803cd0 <__divdf3+0x23c>
  803b34:	0081ffc4 	movi	r2,2047
  803b38:	28805f26 	beq	r5,r2,803cb8 <__divdf3+0x224>
  803b3c:	84000434 	orhi	r16,r16,16
  803b40:	3004d77a 	srli	r2,r6,29
  803b44:	802090fa 	slli	r16,r16,3
  803b48:	302a90fa 	slli	r21,r6,3
  803b4c:	297f0044 	addi	r5,r5,-1023
  803b50:	80a0b03a 	or	r16,r16,r2
  803b54:	000f883a 	mov	r7,zero
  803b58:	3d06b03a 	or	r3,r7,r20
  803b5c:	180690ba 	slli	r3,r3,2
  803b60:	00802034 	movhi	r2,128
  803b64:	108ee104 	addi	r2,r2,15236
  803b68:	1885883a 	add	r2,r3,r2
  803b6c:	10800017 	ldw	r2,0(r2)
  803b70:	b5c8f03a 	xor	r4,r22,r23
  803b74:	200d883a 	mov	r6,r4
  803b78:	25003fcc 	andi	r20,r4,255
  803b7c:	9165c83a 	sub	r18,r18,r5
  803b80:	1000683a 	jmp	r2
  803b84:	00803dcc 	andi	r2,zero,247
  803b88:	00803bfc 	xorhi	r2,zero,239
  803b8c:	00803d90 	cmplti	r2,zero,246
  803b90:	00803be0 	cmpeqi	r2,zero,239
  803b94:	00803d90 	cmplti	r2,zero,246
  803b98:	00803d64 	muli	r2,zero,245
  803b9c:	00803d90 	cmplti	r2,zero,246
  803ba0:	00803be0 	cmpeqi	r2,zero,239
  803ba4:	00803bfc 	xorhi	r2,zero,239
  803ba8:	00803bfc 	xorhi	r2,zero,239
  803bac:	00803d64 	muli	r2,zero,245
  803bb0:	00803be0 	cmpeqi	r2,zero,239
  803bb4:	00803bf0 	cmpltui	r2,zero,239
  803bb8:	00803bf0 	cmpltui	r2,zero,239
  803bbc:	00803bf0 	cmpltui	r2,zero,239
  803bc0:	00803da0 	cmpeqi	r2,zero,246
  803bc4:	8904b03a 	or	r2,r17,r4
  803bc8:	1000631e 	bne	r2,zero,803d58 <__divdf3+0x2c4>
  803bcc:	05000204 	movi	r20,8
  803bd0:	0023883a 	mov	r17,zero
  803bd4:	0027883a 	mov	r19,zero
  803bd8:	02000084 	movi	r8,2
  803bdc:	003fcc06 	br	803b10 <__reset+0xff802310>
  803be0:	8023883a 	mov	r17,r16
  803be4:	a827883a 	mov	r19,r21
  803be8:	4839883a 	mov	fp,r9
  803bec:	3811883a 	mov	r8,r7
  803bf0:	00800084 	movi	r2,2
  803bf4:	4081531e 	bne	r8,r2,804144 <__divdf3+0x6b0>
  803bf8:	e029883a 	mov	r20,fp
  803bfc:	a180004c 	andi	r6,r20,1
  803c00:	0201ffc4 	movi	r8,2047
  803c04:	000b883a 	mov	r5,zero
  803c08:	0027883a 	mov	r19,zero
  803c0c:	4010953a 	slli	r8,r8,20
  803c10:	30c03fcc 	andi	r3,r6,255
  803c14:	04000434 	movhi	r16,16
  803c18:	180697fa 	slli	r3,r3,31
  803c1c:	843fffc4 	addi	r16,r16,-1
  803c20:	2c20703a 	and	r16,r5,r16
  803c24:	8220b03a 	or	r16,r16,r8
  803c28:	80c6b03a 	or	r3,r16,r3
  803c2c:	9805883a 	mov	r2,r19
  803c30:	dfc00f17 	ldw	ra,60(sp)
  803c34:	df000e17 	ldw	fp,56(sp)
  803c38:	ddc00d17 	ldw	r23,52(sp)
  803c3c:	dd800c17 	ldw	r22,48(sp)
  803c40:	dd400b17 	ldw	r21,44(sp)
  803c44:	dd000a17 	ldw	r20,40(sp)
  803c48:	dcc00917 	ldw	r19,36(sp)
  803c4c:	dc800817 	ldw	r18,32(sp)
  803c50:	dc400717 	ldw	r17,28(sp)
  803c54:	dc000617 	ldw	r16,24(sp)
  803c58:	dec01004 	addi	sp,sp,64
  803c5c:	f800283a 	ret
  803c60:	8904b03a 	or	r2,r17,r4
  803c64:	10003726 	beq	r2,zero,803d44 <__divdf3+0x2b0>
  803c68:	88014d26 	beq	r17,zero,8041a0 <__divdf3+0x70c>
  803c6c:	8809883a 	mov	r4,r17
  803c70:	d9800215 	stw	r6,8(sp)
  803c74:	d9c00515 	stw	r7,20(sp)
  803c78:	080580c0 	call	80580c <__clzsi2>
  803c7c:	d9800217 	ldw	r6,8(sp)
  803c80:	d9c00517 	ldw	r7,20(sp)
  803c84:	1007883a 	mov	r3,r2
  803c88:	01000a04 	movi	r4,40
  803c8c:	1cfffe04 	addi	r19,r3,-8
  803c90:	20c9c83a 	sub	r4,r4,r3
  803c94:	8cca983a 	sll	r5,r17,r19
  803c98:	a108d83a 	srl	r4,r20,r4
  803c9c:	a4e6983a 	sll	r19,r20,r19
  803ca0:	2162b03a 	or	r17,r4,r5
  803ca4:	04bf0344 	movi	r18,-1011
  803ca8:	90e5c83a 	sub	r18,r18,r3
  803cac:	0029883a 	mov	r20,zero
  803cb0:	0011883a 	mov	r8,zero
  803cb4:	003f9606 	br	803b10 <__reset+0xff802310>
  803cb8:	8184b03a 	or	r2,r16,r6
  803cbc:	10001f1e 	bne	r2,zero,803d3c <__divdf3+0x2a8>
  803cc0:	0021883a 	mov	r16,zero
  803cc4:	002b883a 	mov	r21,zero
  803cc8:	01c00084 	movi	r7,2
  803ccc:	003fa206 	br	803b58 <__reset+0xff802358>
  803cd0:	8184b03a 	or	r2,r16,r6
  803cd4:	10001526 	beq	r2,zero,803d2c <__divdf3+0x298>
  803cd8:	80013d26 	beq	r16,zero,8041d0 <__divdf3+0x73c>
  803cdc:	8009883a 	mov	r4,r16
  803ce0:	d9800215 	stw	r6,8(sp)
  803ce4:	da000315 	stw	r8,12(sp)
  803ce8:	da400415 	stw	r9,16(sp)
  803cec:	080580c0 	call	80580c <__clzsi2>
  803cf0:	d9800217 	ldw	r6,8(sp)
  803cf4:	da000317 	ldw	r8,12(sp)
  803cf8:	da400417 	ldw	r9,16(sp)
  803cfc:	1007883a 	mov	r3,r2
  803d00:	01000a04 	movi	r4,40
  803d04:	1d7ffe04 	addi	r21,r3,-8
  803d08:	20c9c83a 	sub	r4,r4,r3
  803d0c:	8560983a 	sll	r16,r16,r21
  803d10:	3108d83a 	srl	r4,r6,r4
  803d14:	356a983a 	sll	r21,r6,r21
  803d18:	2420b03a 	or	r16,r4,r16
  803d1c:	017f0344 	movi	r5,-1011
  803d20:	28cbc83a 	sub	r5,r5,r3
  803d24:	000f883a 	mov	r7,zero
  803d28:	003f8b06 	br	803b58 <__reset+0xff802358>
  803d2c:	0021883a 	mov	r16,zero
  803d30:	002b883a 	mov	r21,zero
  803d34:	01c00044 	movi	r7,1
  803d38:	003f8706 	br	803b58 <__reset+0xff802358>
  803d3c:	01c000c4 	movi	r7,3
  803d40:	003f8506 	br	803b58 <__reset+0xff802358>
  803d44:	05000104 	movi	r20,4
  803d48:	0023883a 	mov	r17,zero
  803d4c:	0027883a 	mov	r19,zero
  803d50:	02000044 	movi	r8,1
  803d54:	003f6e06 	br	803b10 <__reset+0xff802310>
  803d58:	05000304 	movi	r20,12
  803d5c:	020000c4 	movi	r8,3
  803d60:	003f6b06 	br	803b10 <__reset+0xff802310>
  803d64:	01400434 	movhi	r5,16
  803d68:	000d883a 	mov	r6,zero
  803d6c:	297fffc4 	addi	r5,r5,-1
  803d70:	04ffffc4 	movi	r19,-1
  803d74:	0201ffc4 	movi	r8,2047
  803d78:	003fa406 	br	803c0c <__reset+0xff80240c>
  803d7c:	043f0084 	movi	r16,-1022
  803d80:	84a1c83a 	sub	r16,r16,r18
  803d84:	00800e04 	movi	r2,56
  803d88:	14014d0e 	bge	r2,r16,8042c0 <__divdf3+0x82c>
  803d8c:	a180004c 	andi	r6,r20,1
  803d90:	0011883a 	mov	r8,zero
  803d94:	000b883a 	mov	r5,zero
  803d98:	0027883a 	mov	r19,zero
  803d9c:	003f9b06 	br	803c0c <__reset+0xff80240c>
  803da0:	8880022c 	andhi	r2,r17,8
  803da4:	1000f026 	beq	r2,zero,804168 <__divdf3+0x6d4>
  803da8:	8080022c 	andhi	r2,r16,8
  803dac:	1000ee1e 	bne	r2,zero,804168 <__divdf3+0x6d4>
  803db0:	00800434 	movhi	r2,16
  803db4:	81400234 	orhi	r5,r16,8
  803db8:	10bfffc4 	addi	r2,r2,-1
  803dbc:	b80d883a 	mov	r6,r23
  803dc0:	288a703a 	and	r5,r5,r2
  803dc4:	a827883a 	mov	r19,r21
  803dc8:	003fea06 	br	803d74 <__reset+0xff802574>
  803dcc:	84411c36 	bltu	r16,r17,804240 <__divdf3+0x7ac>
  803dd0:	8c011a26 	beq	r17,r16,80423c <__divdf3+0x7a8>
  803dd4:	94bfffc4 	addi	r18,r18,-1
  803dd8:	dcc00015 	stw	r19,0(sp)
  803ddc:	8811883a 	mov	r8,r17
  803de0:	002d883a 	mov	r22,zero
  803de4:	a80cd63a 	srli	r6,r21,24
  803de8:	8020923a 	slli	r16,r16,8
  803dec:	a82a923a 	slli	r21,r21,8
  803df0:	4009883a 	mov	r4,r8
  803df4:	342eb03a 	or	r23,r6,r16
  803df8:	dd400115 	stw	r21,4(sp)
  803dfc:	b82ad43a 	srli	r21,r23,16
  803e00:	da000315 	stw	r8,12(sp)
  803e04:	bcffffcc 	andi	r19,r23,65535
  803e08:	a80b883a 	mov	r5,r21
  803e0c:	08031c00 	call	8031c0 <__udivsi3>
  803e10:	1009883a 	mov	r4,r2
  803e14:	980b883a 	mov	r5,r19
  803e18:	1023883a 	mov	r17,r2
  803e1c:	08031d00 	call	8031d0 <__mulsi3>
  803e20:	da000317 	ldw	r8,12(sp)
  803e24:	a80b883a 	mov	r5,r21
  803e28:	1039883a 	mov	fp,r2
  803e2c:	4009883a 	mov	r4,r8
  803e30:	08031c80 	call	8031c8 <__umodsi3>
  803e34:	d8c00017 	ldw	r3,0(sp)
  803e38:	1004943a 	slli	r2,r2,16
  803e3c:	1810d43a 	srli	r8,r3,16
  803e40:	120eb03a 	or	r7,r2,r8
  803e44:	3f00062e 	bgeu	r7,fp,803e60 <__divdf3+0x3cc>
  803e48:	3dcf883a 	add	r7,r7,r23
  803e4c:	88bfffc4 	addi	r2,r17,-1
  803e50:	3dc10a36 	bltu	r7,r23,80427c <__divdf3+0x7e8>
  803e54:	3f01092e 	bgeu	r7,fp,80427c <__divdf3+0x7e8>
  803e58:	8c7fff84 	addi	r17,r17,-2
  803e5c:	3dcf883a 	add	r7,r7,r23
  803e60:	3f39c83a 	sub	fp,r7,fp
  803e64:	e009883a 	mov	r4,fp
  803e68:	a80b883a 	mov	r5,r21
  803e6c:	08031c00 	call	8031c0 <__udivsi3>
  803e70:	1009883a 	mov	r4,r2
  803e74:	980b883a 	mov	r5,r19
  803e78:	1021883a 	mov	r16,r2
  803e7c:	08031d00 	call	8031d0 <__mulsi3>
  803e80:	e009883a 	mov	r4,fp
  803e84:	a80b883a 	mov	r5,r21
  803e88:	d8800315 	stw	r2,12(sp)
  803e8c:	08031c80 	call	8031c8 <__umodsi3>
  803e90:	d9000017 	ldw	r4,0(sp)
  803e94:	1004943a 	slli	r2,r2,16
  803e98:	da000317 	ldw	r8,12(sp)
  803e9c:	20ffffcc 	andi	r3,r4,65535
  803ea0:	10ceb03a 	or	r7,r2,r3
  803ea4:	3a00062e 	bgeu	r7,r8,803ec0 <__divdf3+0x42c>
  803ea8:	3dcf883a 	add	r7,r7,r23
  803eac:	80bfffc4 	addi	r2,r16,-1
  803eb0:	3dc0f036 	bltu	r7,r23,804274 <__divdf3+0x7e0>
  803eb4:	3a00ef2e 	bgeu	r7,r8,804274 <__divdf3+0x7e0>
  803eb8:	843fff84 	addi	r16,r16,-2
  803ebc:	3dcf883a 	add	r7,r7,r23
  803ec0:	d8c00117 	ldw	r3,4(sp)
  803ec4:	8822943a 	slli	r17,r17,16
  803ec8:	3a0fc83a 	sub	r7,r7,r8
  803ecc:	1806d43a 	srli	r3,r3,16
  803ed0:	8462b03a 	or	r17,r16,r17
  803ed4:	8affffcc 	andi	r11,r17,65535
  803ed8:	d8c00015 	stw	r3,0(sp)
  803edc:	d8c00117 	ldw	r3,4(sp)
  803ee0:	8820d43a 	srli	r16,r17,16
  803ee4:	5809883a 	mov	r4,r11
  803ee8:	1f3fffcc 	andi	fp,r3,65535
  803eec:	e00b883a 	mov	r5,fp
  803ef0:	d9c00515 	stw	r7,20(sp)
  803ef4:	dac00215 	stw	r11,8(sp)
  803ef8:	08031d00 	call	8031d0 <__mulsi3>
  803efc:	8009883a 	mov	r4,r16
  803f00:	e00b883a 	mov	r5,fp
  803f04:	d8800415 	stw	r2,16(sp)
  803f08:	08031d00 	call	8031d0 <__mulsi3>
  803f0c:	d9400017 	ldw	r5,0(sp)
  803f10:	8009883a 	mov	r4,r16
  803f14:	d8800315 	stw	r2,12(sp)
  803f18:	08031d00 	call	8031d0 <__mulsi3>
  803f1c:	dac00217 	ldw	r11,8(sp)
  803f20:	d9400017 	ldw	r5,0(sp)
  803f24:	d8800215 	stw	r2,8(sp)
  803f28:	5809883a 	mov	r4,r11
  803f2c:	08031d00 	call	8031d0 <__mulsi3>
  803f30:	da400417 	ldw	r9,16(sp)
  803f34:	da800317 	ldw	r10,12(sp)
  803f38:	d9c00517 	ldw	r7,20(sp)
  803f3c:	480ad43a 	srli	r5,r9,16
  803f40:	5085883a 	add	r2,r10,r2
  803f44:	db000217 	ldw	r12,8(sp)
  803f48:	1151883a 	add	r8,r2,r5
  803f4c:	4280022e 	bgeu	r8,r10,803f58 <__divdf3+0x4c4>
  803f50:	00800074 	movhi	r2,1
  803f54:	6099883a 	add	r12,r12,r2
  803f58:	400ad43a 	srli	r5,r8,16
  803f5c:	4010943a 	slli	r8,r8,16
  803f60:	4c3fffcc 	andi	r16,r9,65535
  803f64:	6149883a 	add	r4,r12,r5
  803f68:	4411883a 	add	r8,r8,r16
  803f6c:	3900a736 	bltu	r7,r4,80420c <__divdf3+0x778>
  803f70:	3900c426 	beq	r7,r4,804284 <__divdf3+0x7f0>
  803f74:	3909c83a 	sub	r4,r7,r4
  803f78:	b221c83a 	sub	r16,r22,r8
  803f7c:	b42d803a 	cmpltu	r22,r22,r16
  803f80:	25adc83a 	sub	r22,r4,r22
  803f84:	b5c0c626 	beq	r22,r23,8042a0 <__divdf3+0x80c>
  803f88:	b009883a 	mov	r4,r22
  803f8c:	a80b883a 	mov	r5,r21
  803f90:	08031c00 	call	8031c0 <__udivsi3>
  803f94:	1009883a 	mov	r4,r2
  803f98:	980b883a 	mov	r5,r19
  803f9c:	d8800315 	stw	r2,12(sp)
  803fa0:	08031d00 	call	8031d0 <__mulsi3>
  803fa4:	a80b883a 	mov	r5,r21
  803fa8:	b009883a 	mov	r4,r22
  803fac:	d8800415 	stw	r2,16(sp)
  803fb0:	08031c80 	call	8031c8 <__umodsi3>
  803fb4:	1004943a 	slli	r2,r2,16
  803fb8:	800ed43a 	srli	r7,r16,16
  803fbc:	da400417 	ldw	r9,16(sp)
  803fc0:	da000317 	ldw	r8,12(sp)
  803fc4:	11cab03a 	or	r5,r2,r7
  803fc8:	2a40062e 	bgeu	r5,r9,803fe4 <__divdf3+0x550>
  803fcc:	2dcb883a 	add	r5,r5,r23
  803fd0:	40bfffc4 	addi	r2,r8,-1
  803fd4:	2dc0b436 	bltu	r5,r23,8042a8 <__divdf3+0x814>
  803fd8:	2a40b32e 	bgeu	r5,r9,8042a8 <__divdf3+0x814>
  803fdc:	423fff84 	addi	r8,r8,-2
  803fe0:	2dcb883a 	add	r5,r5,r23
  803fe4:	2a6dc83a 	sub	r22,r5,r9
  803fe8:	b009883a 	mov	r4,r22
  803fec:	a80b883a 	mov	r5,r21
  803ff0:	da000315 	stw	r8,12(sp)
  803ff4:	08031c00 	call	8031c0 <__udivsi3>
  803ff8:	980b883a 	mov	r5,r19
  803ffc:	1009883a 	mov	r4,r2
  804000:	d8800415 	stw	r2,16(sp)
  804004:	08031d00 	call	8031d0 <__mulsi3>
  804008:	b009883a 	mov	r4,r22
  80400c:	a80b883a 	mov	r5,r21
  804010:	1027883a 	mov	r19,r2
  804014:	08031c80 	call	8031c8 <__umodsi3>
  804018:	1004943a 	slli	r2,r2,16
  80401c:	843fffcc 	andi	r16,r16,65535
  804020:	da000317 	ldw	r8,12(sp)
  804024:	140eb03a 	or	r7,r2,r16
  804028:	da400417 	ldw	r9,16(sp)
  80402c:	3cc0062e 	bgeu	r7,r19,804048 <__divdf3+0x5b4>
  804030:	3dcf883a 	add	r7,r7,r23
  804034:	48bfffc4 	addi	r2,r9,-1
  804038:	3dc09d36 	bltu	r7,r23,8042b0 <__divdf3+0x81c>
  80403c:	3cc09c2e 	bgeu	r7,r19,8042b0 <__divdf3+0x81c>
  804040:	4a7fff84 	addi	r9,r9,-2
  804044:	3dcf883a 	add	r7,r7,r23
  804048:	4010943a 	slli	r8,r8,16
  80404c:	3cebc83a 	sub	r21,r7,r19
  804050:	e00b883a 	mov	r5,fp
  804054:	4a26b03a 	or	r19,r9,r8
  804058:	99ffffcc 	andi	r7,r19,65535
  80405c:	9820d43a 	srli	r16,r19,16
  804060:	3809883a 	mov	r4,r7
  804064:	d9c00515 	stw	r7,20(sp)
  804068:	08031d00 	call	8031d0 <__mulsi3>
  80406c:	8009883a 	mov	r4,r16
  804070:	e00b883a 	mov	r5,fp
  804074:	102d883a 	mov	r22,r2
  804078:	08031d00 	call	8031d0 <__mulsi3>
  80407c:	d9400017 	ldw	r5,0(sp)
  804080:	8009883a 	mov	r4,r16
  804084:	1039883a 	mov	fp,r2
  804088:	08031d00 	call	8031d0 <__mulsi3>
  80408c:	d9c00517 	ldw	r7,20(sp)
  804090:	d9400017 	ldw	r5,0(sp)
  804094:	1021883a 	mov	r16,r2
  804098:	3809883a 	mov	r4,r7
  80409c:	08031d00 	call	8031d0 <__mulsi3>
  8040a0:	b008d43a 	srli	r4,r22,16
  8040a4:	e085883a 	add	r2,fp,r2
  8040a8:	1109883a 	add	r4,r2,r4
  8040ac:	2700022e 	bgeu	r4,fp,8040b8 <__divdf3+0x624>
  8040b0:	00800074 	movhi	r2,1
  8040b4:	80a1883a 	add	r16,r16,r2
  8040b8:	200ad43a 	srli	r5,r4,16
  8040bc:	2008943a 	slli	r4,r4,16
  8040c0:	b5bfffcc 	andi	r22,r22,65535
  8040c4:	8145883a 	add	r2,r16,r5
  8040c8:	2589883a 	add	r4,r4,r22
  8040cc:	a8802c36 	bltu	r21,r2,804180 <__divdf3+0x6ec>
  8040d0:	a880a426 	beq	r21,r2,804364 <__divdf3+0x8d0>
  8040d4:	9cc00054 	ori	r19,r19,1
  8040d8:	9200ffc4 	addi	r8,r18,1023
  8040dc:	023f270e 	bge	zero,r8,803d7c <__reset+0xff80257c>
  8040e0:	988001cc 	andi	r2,r19,7
  8040e4:	10000726 	beq	r2,zero,804104 <__divdf3+0x670>
  8040e8:	990003cc 	andi	r4,r19,15
  8040ec:	00800104 	movi	r2,4
  8040f0:	20800426 	beq	r4,r2,804104 <__divdf3+0x670>
  8040f4:	9885883a 	add	r2,r19,r2
  8040f8:	14e7803a 	cmpltu	r19,r2,r19
  8040fc:	8ce3883a 	add	r17,r17,r19
  804100:	1027883a 	mov	r19,r2
  804104:	8880402c 	andhi	r2,r17,256
  804108:	10000426 	beq	r2,zero,80411c <__divdf3+0x688>
  80410c:	00bfc034 	movhi	r2,65280
  804110:	10bfffc4 	addi	r2,r2,-1
  804114:	92010004 	addi	r8,r18,1024
  804118:	88a2703a 	and	r17,r17,r2
  80411c:	0081ff84 	movi	r2,2046
  804120:	123eb616 	blt	r2,r8,803bfc <__reset+0xff8023fc>
  804124:	9826d0fa 	srli	r19,r19,3
  804128:	8804977a 	slli	r2,r17,29
  80412c:	8820927a 	slli	r16,r17,9
  804130:	4201ffcc 	andi	r8,r8,2047
  804134:	14e6b03a 	or	r19,r2,r19
  804138:	800ad33a 	srli	r5,r16,12
  80413c:	a180004c 	andi	r6,r20,1
  804140:	003eb206 	br	803c0c <__reset+0xff80240c>
  804144:	008000c4 	movi	r2,3
  804148:	4080ac26 	beq	r8,r2,8043fc <__divdf3+0x968>
  80414c:	00800044 	movi	r2,1
  804150:	4080591e 	bne	r8,r2,8042b8 <__divdf3+0x824>
  804154:	e00d883a 	mov	r6,fp
  804158:	0011883a 	mov	r8,zero
  80415c:	000b883a 	mov	r5,zero
  804160:	0027883a 	mov	r19,zero
  804164:	003ea906 	br	803c0c <__reset+0xff80240c>
  804168:	00800434 	movhi	r2,16
  80416c:	89400234 	orhi	r5,r17,8
  804170:	10bfffc4 	addi	r2,r2,-1
  804174:	b00d883a 	mov	r6,r22
  804178:	288a703a 	and	r5,r5,r2
  80417c:	003efd06 	br	803d74 <__reset+0xff802574>
  804180:	adcf883a 	add	r7,r21,r23
  804184:	997fffc4 	addi	r5,r19,-1
  804188:	3dc0412e 	bgeu	r7,r23,804290 <__divdf3+0x7fc>
  80418c:	2827883a 	mov	r19,r5
  804190:	38bfd01e 	bne	r7,r2,8040d4 <__reset+0xff8028d4>
  804194:	d8c00117 	ldw	r3,4(sp)
  804198:	193fce1e 	bne	r3,r4,8040d4 <__reset+0xff8028d4>
  80419c:	003fce06 	br	8040d8 <__reset+0xff8028d8>
  8041a0:	d9800215 	stw	r6,8(sp)
  8041a4:	d9c00515 	stw	r7,20(sp)
  8041a8:	080580c0 	call	80580c <__clzsi2>
  8041ac:	10c00804 	addi	r3,r2,32
  8041b0:	010009c4 	movi	r4,39
  8041b4:	d9800217 	ldw	r6,8(sp)
  8041b8:	d9c00517 	ldw	r7,20(sp)
  8041bc:	20feb20e 	bge	r4,r3,803c88 <__reset+0xff802488>
  8041c0:	117ffe04 	addi	r5,r2,-8
  8041c4:	a162983a 	sll	r17,r20,r5
  8041c8:	0027883a 	mov	r19,zero
  8041cc:	003eb506 	br	803ca4 <__reset+0xff8024a4>
  8041d0:	3009883a 	mov	r4,r6
  8041d4:	d9800215 	stw	r6,8(sp)
  8041d8:	da000315 	stw	r8,12(sp)
  8041dc:	da400415 	stw	r9,16(sp)
  8041e0:	080580c0 	call	80580c <__clzsi2>
  8041e4:	10c00804 	addi	r3,r2,32
  8041e8:	010009c4 	movi	r4,39
  8041ec:	d9800217 	ldw	r6,8(sp)
  8041f0:	da000317 	ldw	r8,12(sp)
  8041f4:	da400417 	ldw	r9,16(sp)
  8041f8:	20fec10e 	bge	r4,r3,803d00 <__reset+0xff802500>
  8041fc:	10bffe04 	addi	r2,r2,-8
  804200:	a8a0983a 	sll	r16,r21,r2
  804204:	002b883a 	mov	r21,zero
  804208:	003ec406 	br	803d1c <__reset+0xff80251c>
  80420c:	d8c00117 	ldw	r3,4(sp)
  804210:	b0ed883a 	add	r22,r22,r3
  804214:	b0c5803a 	cmpltu	r2,r22,r3
  804218:	15c5883a 	add	r2,r2,r23
  80421c:	11cf883a 	add	r7,r2,r7
  804220:	88bfffc4 	addi	r2,r17,-1
  804224:	b9c00d2e 	bgeu	r23,r7,80425c <__divdf3+0x7c8>
  804228:	39003f36 	bltu	r7,r4,804328 <__divdf3+0x894>
  80422c:	21c06a26 	beq	r4,r7,8043d8 <__divdf3+0x944>
  804230:	3909c83a 	sub	r4,r7,r4
  804234:	1023883a 	mov	r17,r2
  804238:	003f4f06 	br	803f78 <__reset+0xff802778>
  80423c:	9d7ee536 	bltu	r19,r21,803dd4 <__reset+0xff8025d4>
  804240:	982ed07a 	srli	r23,r19,1
  804244:	880497fa 	slli	r2,r17,31
  804248:	8810d07a 	srli	r8,r17,1
  80424c:	982c97fa 	slli	r22,r19,31
  804250:	b884b03a 	or	r2,r23,r2
  804254:	d8800015 	stw	r2,0(sp)
  804258:	003ee206 	br	803de4 <__reset+0xff8025e4>
  80425c:	3dfff41e 	bne	r7,r23,804230 <__reset+0xff802a30>
  804260:	d8c00117 	ldw	r3,4(sp)
  804264:	b0fff02e 	bgeu	r22,r3,804228 <__reset+0xff802a28>
  804268:	b909c83a 	sub	r4,r23,r4
  80426c:	1023883a 	mov	r17,r2
  804270:	003f4106 	br	803f78 <__reset+0xff802778>
  804274:	1021883a 	mov	r16,r2
  804278:	003f1106 	br	803ec0 <__reset+0xff8026c0>
  80427c:	1023883a 	mov	r17,r2
  804280:	003ef706 	br	803e60 <__reset+0xff802660>
  804284:	b23fe136 	bltu	r22,r8,80420c <__reset+0xff802a0c>
  804288:	0009883a 	mov	r4,zero
  80428c:	003f3a06 	br	803f78 <__reset+0xff802778>
  804290:	38802c36 	bltu	r7,r2,804344 <__divdf3+0x8b0>
  804294:	11c05326 	beq	r2,r7,8043e4 <__divdf3+0x950>
  804298:	2827883a 	mov	r19,r5
  80429c:	003f8d06 	br	8040d4 <__reset+0xff8028d4>
  8042a0:	04ffffc4 	movi	r19,-1
  8042a4:	003f8c06 	br	8040d8 <__reset+0xff8028d8>
  8042a8:	1011883a 	mov	r8,r2
  8042ac:	003f4d06 	br	803fe4 <__reset+0xff8027e4>
  8042b0:	1013883a 	mov	r9,r2
  8042b4:	003f6406 	br	804048 <__reset+0xff802848>
  8042b8:	e029883a 	mov	r20,fp
  8042bc:	003f8606 	br	8040d8 <__reset+0xff8028d8>
  8042c0:	008007c4 	movi	r2,31
  8042c4:	14002a16 	blt	r2,r16,804370 <__divdf3+0x8dc>
  8042c8:	91410784 	addi	r5,r18,1054
  8042cc:	9c0cd83a 	srl	r6,r19,r16
  8042d0:	8948983a 	sll	r4,r17,r5
  8042d4:	9944983a 	sll	r2,r19,r5
  8042d8:	8c20d83a 	srl	r16,r17,r16
  8042dc:	3108b03a 	or	r4,r6,r4
  8042e0:	1004c03a 	cmpne	r2,r2,zero
  8042e4:	2084b03a 	or	r2,r4,r2
  8042e8:	110001cc 	andi	r4,r2,7
  8042ec:	20000726 	beq	r4,zero,80430c <__divdf3+0x878>
  8042f0:	114003cc 	andi	r5,r2,15
  8042f4:	01000104 	movi	r4,4
  8042f8:	29000426 	beq	r5,r4,80430c <__divdf3+0x878>
  8042fc:	11000104 	addi	r4,r2,4
  804300:	2085803a 	cmpltu	r2,r4,r2
  804304:	80a1883a 	add	r16,r16,r2
  804308:	2005883a 	mov	r2,r4
  80430c:	8100202c 	andhi	r4,r16,128
  804310:	20002d26 	beq	r4,zero,8043c8 <__divdf3+0x934>
  804314:	a180004c 	andi	r6,r20,1
  804318:	02000044 	movi	r8,1
  80431c:	000b883a 	mov	r5,zero
  804320:	0027883a 	mov	r19,zero
  804324:	003e3906 	br	803c0c <__reset+0xff80240c>
  804328:	d8c00117 	ldw	r3,4(sp)
  80432c:	8c7fff84 	addi	r17,r17,-2
  804330:	b0ed883a 	add	r22,r22,r3
  804334:	b0c5803a 	cmpltu	r2,r22,r3
  804338:	15c5883a 	add	r2,r2,r23
  80433c:	11cf883a 	add	r7,r2,r7
  804340:	003f0c06 	br	803f74 <__reset+0xff802774>
  804344:	d8c00117 	ldw	r3,4(sp)
  804348:	997fff84 	addi	r5,r19,-2
  80434c:	18d1883a 	add	r8,r3,r3
  804350:	40c7803a 	cmpltu	r3,r8,r3
  804354:	1dcd883a 	add	r6,r3,r23
  804358:	398f883a 	add	r7,r7,r6
  80435c:	da000115 	stw	r8,4(sp)
  804360:	003f8a06 	br	80418c <__reset+0xff80298c>
  804364:	203f861e 	bne	r4,zero,804180 <__reset+0xff802980>
  804368:	d8000115 	stw	zero,4(sp)
  80436c:	003f8906 	br	804194 <__reset+0xff802994>
  804370:	00bef884 	movi	r2,-1054
  804374:	1485c83a 	sub	r2,r2,r18
  804378:	01000804 	movi	r4,32
  80437c:	8884d83a 	srl	r2,r17,r2
  804380:	81001c26 	beq	r16,r4,8043f4 <__divdf3+0x960>
  804384:	91010f84 	addi	r4,r18,1086
  804388:	8908983a 	sll	r4,r17,r4
  80438c:	24c8b03a 	or	r4,r4,r19
  804390:	2008c03a 	cmpne	r4,r4,zero
  804394:	2084b03a 	or	r2,r4,r2
  804398:	140001cc 	andi	r16,r2,7
  80439c:	8000061e 	bne	r16,zero,8043b8 <__divdf3+0x924>
  8043a0:	000b883a 	mov	r5,zero
  8043a4:	1004d0fa 	srli	r2,r2,3
  8043a8:	a180004c 	andi	r6,r20,1
  8043ac:	0011883a 	mov	r8,zero
  8043b0:	1426b03a 	or	r19,r2,r16
  8043b4:	003e1506 	br	803c0c <__reset+0xff80240c>
  8043b8:	114003cc 	andi	r5,r2,15
  8043bc:	01000104 	movi	r4,4
  8043c0:	0021883a 	mov	r16,zero
  8043c4:	293fcd1e 	bne	r5,r4,8042fc <__reset+0xff802afc>
  8043c8:	800a927a 	slli	r5,r16,9
  8043cc:	8020977a 	slli	r16,r16,29
  8043d0:	280ad33a 	srli	r5,r5,12
  8043d4:	003ff306 	br	8043a4 <__reset+0xff802ba4>
  8043d8:	b23fd336 	bltu	r22,r8,804328 <__reset+0xff802b28>
  8043dc:	1023883a 	mov	r17,r2
  8043e0:	003fa906 	br	804288 <__reset+0xff802a88>
  8043e4:	d8c00117 	ldw	r3,4(sp)
  8043e8:	193fd636 	bltu	r3,r4,804344 <__reset+0xff802b44>
  8043ec:	2827883a 	mov	r19,r5
  8043f0:	003f6806 	br	804194 <__reset+0xff802994>
  8043f4:	0009883a 	mov	r4,zero
  8043f8:	003fe406 	br	80438c <__reset+0xff802b8c>
  8043fc:	00800434 	movhi	r2,16
  804400:	89400234 	orhi	r5,r17,8
  804404:	10bfffc4 	addi	r2,r2,-1
  804408:	e00d883a 	mov	r6,fp
  80440c:	288a703a 	and	r5,r5,r2
  804410:	003e5806 	br	803d74 <__reset+0xff802574>

00804414 <__eqdf2>:
  804414:	2804d53a 	srli	r2,r5,20
  804418:	3806d53a 	srli	r3,r7,20
  80441c:	02000434 	movhi	r8,16
  804420:	423fffc4 	addi	r8,r8,-1
  804424:	1081ffcc 	andi	r2,r2,2047
  804428:	0241ffc4 	movi	r9,2047
  80442c:	2a14703a 	and	r10,r5,r8
  804430:	18c1ffcc 	andi	r3,r3,2047
  804434:	3a10703a 	and	r8,r7,r8
  804438:	280ad7fa 	srli	r5,r5,31
  80443c:	380ed7fa 	srli	r7,r7,31
  804440:	12400f26 	beq	r2,r9,804480 <__eqdf2+0x6c>
  804444:	0241ffc4 	movi	r9,2047
  804448:	1a400326 	beq	r3,r9,804458 <__eqdf2+0x44>
  80444c:	10c00526 	beq	r2,r3,804464 <__eqdf2+0x50>
  804450:	00800044 	movi	r2,1
  804454:	f800283a 	ret
  804458:	4192b03a 	or	r9,r8,r6
  80445c:	483ffc1e 	bne	r9,zero,804450 <__reset+0xff802c50>
  804460:	10fffb1e 	bne	r2,r3,804450 <__reset+0xff802c50>
  804464:	523ffa1e 	bne	r10,r8,804450 <__reset+0xff802c50>
  804468:	21bff91e 	bne	r4,r6,804450 <__reset+0xff802c50>
  80446c:	29c00826 	beq	r5,r7,804490 <__eqdf2+0x7c>
  804470:	103ff71e 	bne	r2,zero,804450 <__reset+0xff802c50>
  804474:	5104b03a 	or	r2,r10,r4
  804478:	1004c03a 	cmpne	r2,r2,zero
  80447c:	f800283a 	ret
  804480:	5112b03a 	or	r9,r10,r4
  804484:	483fef26 	beq	r9,zero,804444 <__reset+0xff802c44>
  804488:	00800044 	movi	r2,1
  80448c:	f800283a 	ret
  804490:	0005883a 	mov	r2,zero
  804494:	f800283a 	ret

00804498 <__gedf2>:
  804498:	2804d53a 	srli	r2,r5,20
  80449c:	3806d53a 	srli	r3,r7,20
  8044a0:	02000434 	movhi	r8,16
  8044a4:	423fffc4 	addi	r8,r8,-1
  8044a8:	0241ffc4 	movi	r9,2047
  8044ac:	1081ffcc 	andi	r2,r2,2047
  8044b0:	2a14703a 	and	r10,r5,r8
  8044b4:	1a46703a 	and	r3,r3,r9
  8044b8:	3a10703a 	and	r8,r7,r8
  8044bc:	280ad7fa 	srli	r5,r5,31
  8044c0:	380ed7fa 	srli	r7,r7,31
  8044c4:	12400b26 	beq	r2,r9,8044f4 <__gedf2+0x5c>
  8044c8:	1a401626 	beq	r3,r9,804524 <__gedf2+0x8c>
  8044cc:	10000c1e 	bne	r2,zero,804500 <__gedf2+0x68>
  8044d0:	5112b03a 	or	r9,r10,r4
  8044d4:	4813003a 	cmpeq	r9,r9,zero
  8044d8:	4817883a 	mov	r11,r9
  8044dc:	18000c1e 	bne	r3,zero,804510 <__gedf2+0x78>
  8044e0:	4198b03a 	or	r12,r8,r6
  8044e4:	60000a1e 	bne	r12,zero,804510 <__gedf2+0x78>
  8044e8:	48001326 	beq	r9,zero,804538 <__gedf2+0xa0>
  8044ec:	0005883a 	mov	r2,zero
  8044f0:	f800283a 	ret
  8044f4:	5112b03a 	or	r9,r10,r4
  8044f8:	4800191e 	bne	r9,zero,804560 <__gedf2+0xc8>
  8044fc:	18800926 	beq	r3,r2,804524 <__gedf2+0x8c>
  804500:	18000b1e 	bne	r3,zero,804530 <__gedf2+0x98>
  804504:	4192b03a 	or	r9,r8,r6
  804508:	0017883a 	mov	r11,zero
  80450c:	48000a26 	beq	r9,zero,804538 <__gedf2+0xa0>
  804510:	39c03fcc 	andi	r7,r7,255
  804514:	58000726 	beq	r11,zero,804534 <__gedf2+0x9c>
  804518:	3800081e 	bne	r7,zero,80453c <__gedf2+0xa4>
  80451c:	00bfffc4 	movi	r2,-1
  804520:	f800283a 	ret
  804524:	4192b03a 	or	r9,r8,r6
  804528:	48000d1e 	bne	r9,zero,804560 <__gedf2+0xc8>
  80452c:	103fe826 	beq	r2,zero,8044d0 <__reset+0xff802cd0>
  804530:	39c03fcc 	andi	r7,r7,255
  804534:	29c00326 	beq	r5,r7,804544 <__gedf2+0xac>
  804538:	283ff81e 	bne	r5,zero,80451c <__reset+0xff802d1c>
  80453c:	00800044 	movi	r2,1
  804540:	f800283a 	ret
  804544:	18bffc16 	blt	r3,r2,804538 <__reset+0xff802d38>
  804548:	10c00316 	blt	r2,r3,804558 <__gedf2+0xc0>
  80454c:	42bffa36 	bltu	r8,r10,804538 <__reset+0xff802d38>
  804550:	52000526 	beq	r10,r8,804568 <__gedf2+0xd0>
  804554:	523fe52e 	bgeu	r10,r8,8044ec <__reset+0xff802cec>
  804558:	283ff026 	beq	r5,zero,80451c <__reset+0xff802d1c>
  80455c:	003ff706 	br	80453c <__reset+0xff802d3c>
  804560:	00bfff84 	movi	r2,-2
  804564:	f800283a 	ret
  804568:	313ff336 	bltu	r6,r4,804538 <__reset+0xff802d38>
  80456c:	21bfdf2e 	bgeu	r4,r6,8044ec <__reset+0xff802cec>
  804570:	283fea26 	beq	r5,zero,80451c <__reset+0xff802d1c>
  804574:	003ff106 	br	80453c <__reset+0xff802d3c>

00804578 <__muldf3>:
  804578:	deffee04 	addi	sp,sp,-72
  80457c:	dd000c15 	stw	r20,48(sp)
  804580:	2828d53a 	srli	r20,r5,20
  804584:	dd400d15 	stw	r21,52(sp)
  804588:	282ad7fa 	srli	r21,r5,31
  80458c:	dc000815 	stw	r16,32(sp)
  804590:	04000434 	movhi	r16,16
  804594:	ddc00f15 	stw	r23,60(sp)
  804598:	dcc00b15 	stw	r19,44(sp)
  80459c:	dc800a15 	stw	r18,40(sp)
  8045a0:	843fffc4 	addi	r16,r16,-1
  8045a4:	dfc01115 	stw	ra,68(sp)
  8045a8:	df001015 	stw	fp,64(sp)
  8045ac:	dd800e15 	stw	r22,56(sp)
  8045b0:	dc400915 	stw	r17,36(sp)
  8045b4:	a501ffcc 	andi	r20,r20,2047
  8045b8:	2025883a 	mov	r18,r4
  8045bc:	202f883a 	mov	r23,r4
  8045c0:	2c20703a 	and	r16,r5,r16
  8045c4:	a827883a 	mov	r19,r21
  8045c8:	aa403fcc 	andi	r9,r21,255
  8045cc:	a0005926 	beq	r20,zero,804734 <__muldf3+0x1bc>
  8045d0:	0081ffc4 	movi	r2,2047
  8045d4:	a0803426 	beq	r20,r2,8046a8 <__muldf3+0x130>
  8045d8:	84000434 	orhi	r16,r16,16
  8045dc:	2004d77a 	srli	r2,r4,29
  8045e0:	802090fa 	slli	r16,r16,3
  8045e4:	202e90fa 	slli	r23,r4,3
  8045e8:	a53f0044 	addi	r20,r20,-1023
  8045ec:	80a0b03a 	or	r16,r16,r2
  8045f0:	000b883a 	mov	r5,zero
  8045f4:	0039883a 	mov	fp,zero
  8045f8:	3806d53a 	srli	r3,r7,20
  8045fc:	382cd7fa 	srli	r22,r7,31
  804600:	00800434 	movhi	r2,16
  804604:	10bfffc4 	addi	r2,r2,-1
  804608:	18c1ffcc 	andi	r3,r3,2047
  80460c:	3025883a 	mov	r18,r6
  804610:	38a2703a 	and	r17,r7,r2
  804614:	b2803fcc 	andi	r10,r22,255
  804618:	18006426 	beq	r3,zero,8047ac <__muldf3+0x234>
  80461c:	0081ffc4 	movi	r2,2047
  804620:	18805c26 	beq	r3,r2,804794 <__muldf3+0x21c>
  804624:	8c400434 	orhi	r17,r17,16
  804628:	3004d77a 	srli	r2,r6,29
  80462c:	882290fa 	slli	r17,r17,3
  804630:	302490fa 	slli	r18,r6,3
  804634:	18ff0044 	addi	r3,r3,-1023
  804638:	88a2b03a 	or	r17,r17,r2
  80463c:	000f883a 	mov	r7,zero
  804640:	394ab03a 	or	r5,r7,r5
  804644:	280a90ba 	slli	r5,r5,2
  804648:	00802034 	movhi	r2,128
  80464c:	10919a04 	addi	r2,r2,18024
  804650:	288b883a 	add	r5,r5,r2
  804654:	28800017 	ldw	r2,0(r5)
  804658:	a0c7883a 	add	r3,r20,r3
  80465c:	b54cf03a 	xor	r6,r22,r21
  804660:	1a000044 	addi	r8,r3,1
  804664:	1000683a 	jmp	r2
  804668:	008048ac 	andhi	r2,zero,290
  80466c:	00804898 	cmpnei	r2,zero,290
  804670:	00804898 	cmpnei	r2,zero,290
  804674:	00804884 	movi	r2,290
  804678:	008046c4 	movi	r2,283
  80467c:	008046c4 	movi	r2,283
  804680:	0080486c 	andhi	r2,zero,289
  804684:	00804884 	movi	r2,290
  804688:	008046c4 	movi	r2,283
  80468c:	0080486c 	andhi	r2,zero,289
  804690:	008046c4 	movi	r2,283
  804694:	00804884 	movi	r2,290
  804698:	008046c8 	cmpgei	r2,zero,283
  80469c:	008046c8 	cmpgei	r2,zero,283
  8046a0:	008046c8 	cmpgei	r2,zero,283
  8046a4:	00804be8 	cmpgeui	r2,zero,303
  8046a8:	8104b03a 	or	r2,r16,r4
  8046ac:	10006c1e 	bne	r2,zero,804860 <__muldf3+0x2e8>
  8046b0:	01400204 	movi	r5,8
  8046b4:	0021883a 	mov	r16,zero
  8046b8:	002f883a 	mov	r23,zero
  8046bc:	07000084 	movi	fp,2
  8046c0:	003fcd06 	br	8045f8 <__reset+0xff802df8>
  8046c4:	3013883a 	mov	r9,r6
  8046c8:	00800084 	movi	r2,2
  8046cc:	e080501e 	bne	fp,r2,804810 <__muldf3+0x298>
  8046d0:	4cc0004c 	andi	r19,r9,1
  8046d4:	0101ffc4 	movi	r4,2047
  8046d8:	0021883a 	mov	r16,zero
  8046dc:	002f883a 	mov	r23,zero
  8046e0:	2008953a 	slli	r4,r4,20
  8046e4:	98c03fcc 	andi	r3,r19,255
  8046e8:	04400434 	movhi	r17,16
  8046ec:	8c7fffc4 	addi	r17,r17,-1
  8046f0:	180697fa 	slli	r3,r3,31
  8046f4:	8460703a 	and	r16,r16,r17
  8046f8:	8120b03a 	or	r16,r16,r4
  8046fc:	80c6b03a 	or	r3,r16,r3
  804700:	b805883a 	mov	r2,r23
  804704:	dfc01117 	ldw	ra,68(sp)
  804708:	df001017 	ldw	fp,64(sp)
  80470c:	ddc00f17 	ldw	r23,60(sp)
  804710:	dd800e17 	ldw	r22,56(sp)
  804714:	dd400d17 	ldw	r21,52(sp)
  804718:	dd000c17 	ldw	r20,48(sp)
  80471c:	dcc00b17 	ldw	r19,44(sp)
  804720:	dc800a17 	ldw	r18,40(sp)
  804724:	dc400917 	ldw	r17,36(sp)
  804728:	dc000817 	ldw	r16,32(sp)
  80472c:	dec01204 	addi	sp,sp,72
  804730:	f800283a 	ret
  804734:	8104b03a 	or	r2,r16,r4
  804738:	10004426 	beq	r2,zero,80484c <__muldf3+0x2d4>
  80473c:	80014b26 	beq	r16,zero,804c6c <__muldf3+0x6f4>
  804740:	8009883a 	mov	r4,r16
  804744:	d9800715 	stw	r6,28(sp)
  804748:	d9c00215 	stw	r7,8(sp)
  80474c:	da400415 	stw	r9,16(sp)
  804750:	080580c0 	call	80580c <__clzsi2>
  804754:	d9800717 	ldw	r6,28(sp)
  804758:	d9c00217 	ldw	r7,8(sp)
  80475c:	da400417 	ldw	r9,16(sp)
  804760:	1007883a 	mov	r3,r2
  804764:	01000a04 	movi	r4,40
  804768:	1dfffe04 	addi	r23,r3,-8
  80476c:	20c9c83a 	sub	r4,r4,r3
  804770:	85e0983a 	sll	r16,r16,r23
  804774:	9108d83a 	srl	r4,r18,r4
  804778:	95ee983a 	sll	r23,r18,r23
  80477c:	2420b03a 	or	r16,r4,r16
  804780:	053f0344 	movi	r20,-1011
  804784:	a0e9c83a 	sub	r20,r20,r3
  804788:	000b883a 	mov	r5,zero
  80478c:	0039883a 	mov	fp,zero
  804790:	003f9906 	br	8045f8 <__reset+0xff802df8>
  804794:	8984b03a 	or	r2,r17,r6
  804798:	10002a1e 	bne	r2,zero,804844 <__muldf3+0x2cc>
  80479c:	0023883a 	mov	r17,zero
  8047a0:	0025883a 	mov	r18,zero
  8047a4:	01c00084 	movi	r7,2
  8047a8:	003fa506 	br	804640 <__reset+0xff802e40>
  8047ac:	8984b03a 	or	r2,r17,r6
  8047b0:	10002026 	beq	r2,zero,804834 <__muldf3+0x2bc>
  8047b4:	88011c26 	beq	r17,zero,804c28 <__muldf3+0x6b0>
  8047b8:	8809883a 	mov	r4,r17
  8047bc:	d9400215 	stw	r5,8(sp)
  8047c0:	d9800715 	stw	r6,28(sp)
  8047c4:	da400415 	stw	r9,16(sp)
  8047c8:	da800315 	stw	r10,12(sp)
  8047cc:	080580c0 	call	80580c <__clzsi2>
  8047d0:	d9400217 	ldw	r5,8(sp)
  8047d4:	d9800717 	ldw	r6,28(sp)
  8047d8:	da400417 	ldw	r9,16(sp)
  8047dc:	da800317 	ldw	r10,12(sp)
  8047e0:	1007883a 	mov	r3,r2
  8047e4:	01000a04 	movi	r4,40
  8047e8:	1cbffe04 	addi	r18,r3,-8
  8047ec:	20c9c83a 	sub	r4,r4,r3
  8047f0:	8ca2983a 	sll	r17,r17,r18
  8047f4:	3108d83a 	srl	r4,r6,r4
  8047f8:	34a4983a 	sll	r18,r6,r18
  8047fc:	2462b03a 	or	r17,r4,r17
  804800:	00bf0344 	movi	r2,-1011
  804804:	10c7c83a 	sub	r3,r2,r3
  804808:	000f883a 	mov	r7,zero
  80480c:	003f8c06 	br	804640 <__reset+0xff802e40>
  804810:	008000c4 	movi	r2,3
  804814:	e0816d26 	beq	fp,r2,804dcc <__muldf3+0x854>
  804818:	00800044 	movi	r2,1
  80481c:	e081321e 	bne	fp,r2,804ce8 <__muldf3+0x770>
  804820:	48a6703a 	and	r19,r9,r2
  804824:	0009883a 	mov	r4,zero
  804828:	0021883a 	mov	r16,zero
  80482c:	002f883a 	mov	r23,zero
  804830:	003fab06 	br	8046e0 <__reset+0xff802ee0>
  804834:	0023883a 	mov	r17,zero
  804838:	0025883a 	mov	r18,zero
  80483c:	01c00044 	movi	r7,1
  804840:	003f7f06 	br	804640 <__reset+0xff802e40>
  804844:	01c000c4 	movi	r7,3
  804848:	003f7d06 	br	804640 <__reset+0xff802e40>
  80484c:	01400104 	movi	r5,4
  804850:	0021883a 	mov	r16,zero
  804854:	002f883a 	mov	r23,zero
  804858:	07000044 	movi	fp,1
  80485c:	003f6606 	br	8045f8 <__reset+0xff802df8>
  804860:	01400304 	movi	r5,12
  804864:	070000c4 	movi	fp,3
  804868:	003f6306 	br	8045f8 <__reset+0xff802df8>
  80486c:	04000434 	movhi	r16,16
  804870:	0027883a 	mov	r19,zero
  804874:	843fffc4 	addi	r16,r16,-1
  804878:	05ffffc4 	movi	r23,-1
  80487c:	0101ffc4 	movi	r4,2047
  804880:	003f9706 	br	8046e0 <__reset+0xff802ee0>
  804884:	8821883a 	mov	r16,r17
  804888:	902f883a 	mov	r23,r18
  80488c:	5013883a 	mov	r9,r10
  804890:	3839883a 	mov	fp,r7
  804894:	003f8c06 	br	8046c8 <__reset+0xff802ec8>
  804898:	8821883a 	mov	r16,r17
  80489c:	902f883a 	mov	r23,r18
  8048a0:	3013883a 	mov	r9,r6
  8048a4:	3839883a 	mov	fp,r7
  8048a8:	003f8706 	br	8046c8 <__reset+0xff802ec8>
  8048ac:	b82ad43a 	srli	r21,r23,16
  8048b0:	9038d43a 	srli	fp,r18,16
  8048b4:	bdffffcc 	andi	r23,r23,65535
  8048b8:	94bfffcc 	andi	r18,r18,65535
  8048bc:	9009883a 	mov	r4,r18
  8048c0:	b80b883a 	mov	r5,r23
  8048c4:	d8c00515 	stw	r3,20(sp)
  8048c8:	d9800715 	stw	r6,28(sp)
  8048cc:	da000615 	stw	r8,24(sp)
  8048d0:	08031d00 	call	8031d0 <__mulsi3>
  8048d4:	9009883a 	mov	r4,r18
  8048d8:	a80b883a 	mov	r5,r21
  8048dc:	1029883a 	mov	r20,r2
  8048e0:	08031d00 	call	8031d0 <__mulsi3>
  8048e4:	e009883a 	mov	r4,fp
  8048e8:	a80b883a 	mov	r5,r21
  8048ec:	102d883a 	mov	r22,r2
  8048f0:	08031d00 	call	8031d0 <__mulsi3>
  8048f4:	e009883a 	mov	r4,fp
  8048f8:	b80b883a 	mov	r5,r23
  8048fc:	1027883a 	mov	r19,r2
  804900:	08031d00 	call	8031d0 <__mulsi3>
  804904:	a008d43a 	srli	r4,r20,16
  804908:	b085883a 	add	r2,r22,r2
  80490c:	d8c00517 	ldw	r3,20(sp)
  804910:	110f883a 	add	r7,r2,r4
  804914:	d9800717 	ldw	r6,28(sp)
  804918:	da000617 	ldw	r8,24(sp)
  80491c:	3d80022e 	bgeu	r7,r22,804928 <__muldf3+0x3b0>
  804920:	00800074 	movhi	r2,1
  804924:	98a7883a 	add	r19,r19,r2
  804928:	3804943a 	slli	r2,r7,16
  80492c:	380ed43a 	srli	r7,r7,16
  804930:	882cd43a 	srli	r22,r17,16
  804934:	a53fffcc 	andi	r20,r20,65535
  804938:	8c7fffcc 	andi	r17,r17,65535
  80493c:	1529883a 	add	r20,r2,r20
  804940:	8809883a 	mov	r4,r17
  804944:	b80b883a 	mov	r5,r23
  804948:	d8c00515 	stw	r3,20(sp)
  80494c:	d9800715 	stw	r6,28(sp)
  804950:	da000615 	stw	r8,24(sp)
  804954:	d9c00015 	stw	r7,0(sp)
  804958:	dd000115 	stw	r20,4(sp)
  80495c:	08031d00 	call	8031d0 <__mulsi3>
  804960:	a80b883a 	mov	r5,r21
  804964:	8809883a 	mov	r4,r17
  804968:	d8800415 	stw	r2,16(sp)
  80496c:	08031d00 	call	8031d0 <__mulsi3>
  804970:	a80b883a 	mov	r5,r21
  804974:	b009883a 	mov	r4,r22
  804978:	1029883a 	mov	r20,r2
  80497c:	08031d00 	call	8031d0 <__mulsi3>
  804980:	b009883a 	mov	r4,r22
  804984:	b80b883a 	mov	r5,r23
  804988:	102b883a 	mov	r21,r2
  80498c:	08031d00 	call	8031d0 <__mulsi3>
  804990:	da400417 	ldw	r9,16(sp)
  804994:	a085883a 	add	r2,r20,r2
  804998:	d8c00517 	ldw	r3,20(sp)
  80499c:	4808d43a 	srli	r4,r9,16
  8049a0:	d9800717 	ldw	r6,28(sp)
  8049a4:	da000617 	ldw	r8,24(sp)
  8049a8:	1109883a 	add	r4,r2,r4
  8049ac:	2500022e 	bgeu	r4,r20,8049b8 <__muldf3+0x440>
  8049b0:	00800074 	movhi	r2,1
  8049b4:	a8ab883a 	add	r21,r21,r2
  8049b8:	200e943a 	slli	r7,r4,16
  8049bc:	2004d43a 	srli	r2,r4,16
  8049c0:	802ed43a 	srli	r23,r16,16
  8049c4:	843fffcc 	andi	r16,r16,65535
  8049c8:	4d3fffcc 	andi	r20,r9,65535
  8049cc:	9009883a 	mov	r4,r18
  8049d0:	800b883a 	mov	r5,r16
  8049d4:	3d29883a 	add	r20,r7,r20
  8049d8:	d8c00515 	stw	r3,20(sp)
  8049dc:	d9800715 	stw	r6,28(sp)
  8049e0:	da000615 	stw	r8,24(sp)
  8049e4:	a8ab883a 	add	r21,r21,r2
  8049e8:	08031d00 	call	8031d0 <__mulsi3>
  8049ec:	9009883a 	mov	r4,r18
  8049f0:	b80b883a 	mov	r5,r23
  8049f4:	d8800315 	stw	r2,12(sp)
  8049f8:	08031d00 	call	8031d0 <__mulsi3>
  8049fc:	e009883a 	mov	r4,fp
  804a00:	b80b883a 	mov	r5,r23
  804a04:	1025883a 	mov	r18,r2
  804a08:	08031d00 	call	8031d0 <__mulsi3>
  804a0c:	e009883a 	mov	r4,fp
  804a10:	800b883a 	mov	r5,r16
  804a14:	d8800215 	stw	r2,8(sp)
  804a18:	08031d00 	call	8031d0 <__mulsi3>
  804a1c:	da800317 	ldw	r10,12(sp)
  804a20:	d9400017 	ldw	r5,0(sp)
  804a24:	9085883a 	add	r2,r18,r2
  804a28:	5008d43a 	srli	r4,r10,16
  804a2c:	a153883a 	add	r9,r20,r5
  804a30:	d8c00517 	ldw	r3,20(sp)
  804a34:	1109883a 	add	r4,r2,r4
  804a38:	d9800717 	ldw	r6,28(sp)
  804a3c:	da000617 	ldw	r8,24(sp)
  804a40:	dac00217 	ldw	r11,8(sp)
  804a44:	2480022e 	bgeu	r4,r18,804a50 <__muldf3+0x4d8>
  804a48:	00800074 	movhi	r2,1
  804a4c:	5897883a 	add	r11,r11,r2
  804a50:	200e943a 	slli	r7,r4,16
  804a54:	2038d43a 	srli	fp,r4,16
  804a58:	52bfffcc 	andi	r10,r10,65535
  804a5c:	3a8f883a 	add	r7,r7,r10
  804a60:	8809883a 	mov	r4,r17
  804a64:	800b883a 	mov	r5,r16
  804a68:	d8c00515 	stw	r3,20(sp)
  804a6c:	d9800715 	stw	r6,28(sp)
  804a70:	d9c00215 	stw	r7,8(sp)
  804a74:	da000615 	stw	r8,24(sp)
  804a78:	da400415 	stw	r9,16(sp)
  804a7c:	5f39883a 	add	fp,r11,fp
  804a80:	08031d00 	call	8031d0 <__mulsi3>
  804a84:	8809883a 	mov	r4,r17
  804a88:	b80b883a 	mov	r5,r23
  804a8c:	1025883a 	mov	r18,r2
  804a90:	08031d00 	call	8031d0 <__mulsi3>
  804a94:	b009883a 	mov	r4,r22
  804a98:	b80b883a 	mov	r5,r23
  804a9c:	d8800315 	stw	r2,12(sp)
  804aa0:	08031d00 	call	8031d0 <__mulsi3>
  804aa4:	b009883a 	mov	r4,r22
  804aa8:	800b883a 	mov	r5,r16
  804aac:	1023883a 	mov	r17,r2
  804ab0:	08031d00 	call	8031d0 <__mulsi3>
  804ab4:	da800317 	ldw	r10,12(sp)
  804ab8:	9008d43a 	srli	r4,r18,16
  804abc:	d8c00517 	ldw	r3,20(sp)
  804ac0:	5085883a 	add	r2,r10,r2
  804ac4:	1109883a 	add	r4,r2,r4
  804ac8:	d9800717 	ldw	r6,28(sp)
  804acc:	d9c00217 	ldw	r7,8(sp)
  804ad0:	da000617 	ldw	r8,24(sp)
  804ad4:	da400417 	ldw	r9,16(sp)
  804ad8:	2280022e 	bgeu	r4,r10,804ae4 <__muldf3+0x56c>
  804adc:	00800074 	movhi	r2,1
  804ae0:	88a3883a 	add	r17,r17,r2
  804ae4:	2004943a 	slli	r2,r4,16
  804ae8:	94bfffcc 	andi	r18,r18,65535
  804aec:	4ce7883a 	add	r19,r9,r19
  804af0:	14a5883a 	add	r18,r2,r18
  804af4:	9d29803a 	cmpltu	r20,r19,r20
  804af8:	9565883a 	add	r18,r18,r21
  804afc:	9505883a 	add	r2,r18,r20
  804b00:	99e7883a 	add	r19,r19,r7
  804b04:	99cf803a 	cmpltu	r7,r19,r7
  804b08:	e08b883a 	add	r5,fp,r2
  804b0c:	2008d43a 	srli	r4,r4,16
  804b10:	29ef883a 	add	r23,r5,r7
  804b14:	1529803a 	cmpltu	r20,r2,r20
  804b18:	956b803a 	cmpltu	r21,r18,r21
  804b1c:	b9cf803a 	cmpltu	r7,r23,r7
  804b20:	a564b03a 	or	r18,r20,r21
  804b24:	2f39803a 	cmpltu	fp,r5,fp
  804b28:	9125883a 	add	r18,r18,r4
  804b2c:	3f38b03a 	or	fp,r7,fp
  804b30:	9725883a 	add	r18,r18,fp
  804b34:	9804927a 	slli	r2,r19,9
  804b38:	9463883a 	add	r17,r18,r17
  804b3c:	d9000117 	ldw	r4,4(sp)
  804b40:	b820d5fa 	srli	r16,r23,23
  804b44:	8822927a 	slli	r17,r17,9
  804b48:	9826d5fa 	srli	r19,r19,23
  804b4c:	1104b03a 	or	r2,r2,r4
  804b50:	b82e927a 	slli	r23,r23,9
  804b54:	1004c03a 	cmpne	r2,r2,zero
  804b58:	8c20b03a 	or	r16,r17,r16
  804b5c:	14e6b03a 	or	r19,r2,r19
  804b60:	8080402c 	andhi	r2,r16,256
  804b64:	9deeb03a 	or	r23,r19,r23
  804b68:	10000726 	beq	r2,zero,804b88 <__muldf3+0x610>
  804b6c:	b804d07a 	srli	r2,r23,1
  804b70:	800697fa 	slli	r3,r16,31
  804b74:	bdc0004c 	andi	r23,r23,1
  804b78:	8020d07a 	srli	r16,r16,1
  804b7c:	b8aeb03a 	or	r23,r23,r2
  804b80:	b8eeb03a 	or	r23,r23,r3
  804b84:	4007883a 	mov	r3,r8
  804b88:	1900ffc4 	addi	r4,r3,1023
  804b8c:	01004d0e 	bge	zero,r4,804cc4 <__muldf3+0x74c>
  804b90:	b88001cc 	andi	r2,r23,7
  804b94:	10000726 	beq	r2,zero,804bb4 <__muldf3+0x63c>
  804b98:	b94003cc 	andi	r5,r23,15
  804b9c:	00800104 	movi	r2,4
  804ba0:	28800426 	beq	r5,r2,804bb4 <__muldf3+0x63c>
  804ba4:	b885883a 	add	r2,r23,r2
  804ba8:	15ef803a 	cmpltu	r23,r2,r23
  804bac:	85e1883a 	add	r16,r16,r23
  804bb0:	102f883a 	mov	r23,r2
  804bb4:	8080402c 	andhi	r2,r16,256
  804bb8:	10000426 	beq	r2,zero,804bcc <__muldf3+0x654>
  804bbc:	00bfc034 	movhi	r2,65280
  804bc0:	10bfffc4 	addi	r2,r2,-1
  804bc4:	19010004 	addi	r4,r3,1024
  804bc8:	80a0703a 	and	r16,r16,r2
  804bcc:	0081ff84 	movi	r2,2046
  804bd0:	1100340e 	bge	r2,r4,804ca4 <__muldf3+0x72c>
  804bd4:	34c0004c 	andi	r19,r6,1
  804bd8:	0101ffc4 	movi	r4,2047
