
sterli_gen2.elf:     file format elf32-littlenios2
sterli_gen2.elf
architecture: nios2:r1, flags 0x00000112:
EXEC_P, HAS_SYMS, D_PAGED
start address 0x00800240

Program Header:
    LOAD off    0x00001020 vaddr 0x00800020 paddr 0x00800020 align 2**12
         filesz 0x0001d4a0 memsz 0x000208a4 flags rwx
    LOAD off    0x0001f000 vaddr 0x01001000 paddr 0x01001000 align 2**12
         filesz 0x00000000 memsz 0x00000000 flags r-x

Sections:
Idx Name          Size      VMA       LMA       File off  Algn
  0 .entry        00000000  01001000  01001000  0001f000  2**5
                  CONTENTS, ALLOC, LOAD, READONLY, CODE
  1 .exceptions   00000220  00800020  00800020  00001020  2**2
                  CONTENTS, ALLOC, LOAD, READONLY, CODE
  2 .text         00012a70  00800240  00800240  00001240  2**2
                  CONTENTS, ALLOC, LOAD, READONLY, CODE
  3 .rodata       0000806c  00812cb0  00812cb0  00013cb0  2**2
                  CONTENTS, ALLOC, LOAD, READONLY, DATA
  4 .rwdata       000027a4  0081ad1c  0081ad1c  0001bd1c  2**2
                  CONTENTS, ALLOC, LOAD, DATA, SMALL_DATA
  5 .bss          00003404  0081d4c0  0081d4c0  0001e4c0  2**2
                  ALLOC, SMALL_DATA
  6 .sdram        00000000  008208c4  008208c4  0001f000  2**0
                  CONTENTS
  7 .flash        00000000  01001020  01001020  0001f000  2**0
                  CONTENTS
  8 .comment      00000023  00000000  00000000  0001f000  2**0
                  CONTENTS, READONLY
  9 .debug_aranges 000009e0  00000000  00000000  0001f028  2**3
                  CONTENTS, READONLY, DEBUGGING
 10 .debug_info   00017552  00000000  00000000  0001fa08  2**0
                  CONTENTS, READONLY, DEBUGGING
 11 .debug_abbrev 00005e80  00000000  00000000  00036f5a  2**0
                  CONTENTS, READONLY, DEBUGGING
 12 .debug_line   00007310  00000000  00000000  0003cdda  2**0
                  CONTENTS, READONLY, DEBUGGING
 13 .debug_frame  000029fc  00000000  00000000  000440ec  2**2
                  CONTENTS, READONLY, DEBUGGING
 14 .debug_str    000042de  00000000  00000000  00046ae8  2**0
                  CONTENTS, READONLY, DEBUGGING
 15 .debug_loc    00006e4c  00000000  00000000  0004adc6  2**0
                  CONTENTS, READONLY, DEBUGGING
 16 .debug_alt_sim_info 00000050  00000000  00000000  00051c14  2**2
                  CONTENTS, READONLY, DEBUGGING
 17 .debug_ranges 000009f0  00000000  00000000  00051c68  2**3
                  CONTENTS, READONLY, DEBUGGING
 18 .thread_model 00000006  00000000  00000000  000574f4  2**0
                  CONTENTS, READONLY
 19 .cpu          00000006  00000000  00000000  000574fa  2**0
                  CONTENTS, READONLY
 20 .qsys         00000001  00000000  00000000  00057500  2**0
                  CONTENTS, READONLY
 21 .simulation_enabled 00000001  00000000  00000000  00057501  2**0
                  CONTENTS, READONLY
 22 .sysid_hash   00000004  00000000  00000000  00057502  2**0
                  CONTENTS, READONLY
 23 .sysid_base   00000004  00000000  00000000  00057506  2**0
                  CONTENTS, READONLY
 24 .sysid_time   00000004  00000000  00000000  0005750a  2**0
                  CONTENTS, READONLY
 25 .stderr_dev   00000004  00000000  00000000  0005750e  2**0
                  CONTENTS, READONLY
 26 .stdin_dev    00000004  00000000  00000000  00057512  2**0
                  CONTENTS, READONLY
 27 .stdout_dev   00000004  00000000  00000000  00057516  2**0
                  CONTENTS, READONLY
 28 .sopc_system_name 00000007  00000000  00000000  0005751a  2**0
                  CONTENTS, READONLY
 29 .quartus_project_dir 00000014  00000000  00000000  00057521  2**0
                  CONTENTS, READONLY
 30 .jdi          000039ab  00000000  00000000  00057535  2**0
                  CONTENTS, READONLY
 31 .sopcinfo     0009c407  00000000  00000000  0005aee0  2**0
                  CONTENTS, READONLY
SYMBOL TABLE:
01001000 l    d  .entry	00000000 .entry
00800020 l    d  .exceptions	00000000 .exceptions
00800240 l    d  .text	00000000 .text
00812cb0 l    d  .rodata	00000000 .rodata
0081ad1c l    d  .rwdata	00000000 .rwdata
0081d4c0 l    d  .bss	00000000 .bss
008208c4 l    d  .sdram	00000000 .sdram
01001020 l    d  .flash	00000000 .flash
00000000 l    d  .comment	00000000 .comment
00000000 l    d  .debug_aranges	00000000 .debug_aranges
00000000 l    d  .debug_info	00000000 .debug_info
00000000 l    d  .debug_abbrev	00000000 .debug_abbrev
00000000 l    d  .debug_line	00000000 .debug_line
00000000 l    d  .debug_frame	00000000 .debug_frame
00000000 l    d  .debug_str	00000000 .debug_str
00000000 l    d  .debug_loc	00000000 .debug_loc
00000000 l    d  .debug_alt_sim_info	00000000 .debug_alt_sim_info
00000000 l    d  .debug_ranges	00000000 .debug_ranges
00000000 l    df *ABS*	00000000 ../sterli_gen2_bsp//obj/HAL/src/crt0.o
00800284 l       .text	00000000 alt_after_alt_main
00000000 l    df *ABS*	00000000 alt_irq_handler.c
00000000 l    df *ABS*	00000000 alt_instruction_exception_entry.c
00000000 l    df *ABS*	00000000 AsciiLib.c
00812cb0 l     O .rodata	000005f0 AsciiLib
00000000 l    df *ABS*	00000000 LCD32.c
0081d4c0 l     O .bss	00000001 LCD_Code
00000000 l    df *ABS*	00000000 main.c
00000000 l    df *ABS*	00000000 tahomabold_20.c
008132b0 l     O .rodata	000000b6 tahomabold_20_33
00813366 l     O .rodata	00000104 tahomabold_20_34
0081346a l     O .rodata	000001a0 tahomabold_20_35
0081360a l     O .rodata	00000152 tahomabold_20_36
0081375c l     O .rodata	00000270 tahomabold_20_37
008139cc l     O .rodata	000001ba tahomabold_20_38
00813b86 l     O .rodata	0000009c tahomabold_20_39
00813c22 l     O .rodata	000000ea tahomabold_20_40
00813d0c l     O .rodata	000000ea tahomabold_20_41
00813df6 l     O .rodata	00000152 tahomabold_20_42
00813f48 l     O .rodata	000001a0 tahomabold_20_43
008140e8 l     O .rodata	0000009c tahomabold_20_44
00814184 l     O .rodata	000000ea tahomabold_20_45
0081426e l     O .rodata	0000009c tahomabold_20_46
0081430a l     O .rodata	00000138 tahomabold_20_47
00814442 l     O .rodata	00000152 tahomabold_20_48
00814594 l     O .rodata	00000152 tahomabold_20_49
008146e6 l     O .rodata	00000152 tahomabold_20_50
00814838 l     O .rodata	00000152 tahomabold_20_51
0081498a l     O .rodata	00000152 tahomabold_20_52
00814adc l     O .rodata	00000152 tahomabold_20_53
00814c2e l     O .rodata	00000152 tahomabold_20_54
00814d80 l     O .rodata	00000152 tahomabold_20_55
00814ed2 l     O .rodata	00000152 tahomabold_20_56
00815024 l     O .rodata	00000152 tahomabold_20_57
00815176 l     O .rodata	000000b6 tahomabold_20_58
0081522c l     O .rodata	000000b6 tahomabold_20_59
008152e2 l     O .rodata	000001a0 tahomabold_20_60
00815482 l     O .rodata	000001a0 tahomabold_20_61
00815622 l     O .rodata	000001a0 tahomabold_20_62
008157c2 l     O .rodata	0000011e tahomabold_20_63
008158e0 l     O .rodata	000001d4 tahomabold_20_64
00815ab4 l     O .rodata	0000016c tahomabold_20_65
00815c20 l     O .rodata	0000016c tahomabold_20_66
00815d8c l     O .rodata	00000152 tahomabold_20_67
00815ede l     O .rodata	00000186 tahomabold_20_68
00816064 l     O .rodata	00000138 tahomabold_20_69
0081619c l     O .rodata	00000138 tahomabold_20_70
008162d4 l     O .rodata	00000186 tahomabold_20_71
0081645a l     O .rodata	00000186 tahomabold_20_72
008165e0 l     O .rodata	00000104 tahomabold_20_73
008166e4 l     O .rodata	00000104 tahomabold_20_74
008167e8 l     O .rodata	0000016c tahomabold_20_75
00816954 l     O .rodata	0000011e tahomabold_20_76
00816a72 l     O .rodata	000001d4 tahomabold_20_77
00816c46 l     O .rodata	00000186 tahomabold_20_78
00816dcc l     O .rodata	00000186 tahomabold_20_79
00816f52 l     O .rodata	00000152 tahomabold_20_80
008170a4 l     O .rodata	00000186 tahomabold_20_81
0081722a l     O .rodata	00000186 tahomabold_20_82
008173b0 l     O .rodata	00000152 tahomabold_20_83
00817502 l     O .rodata	00000138 tahomabold_20_84
0081763a l     O .rodata	00000186 tahomabold_20_85
008177c0 l     O .rodata	0000016c tahomabold_20_86
0081792c l     O .rodata	00000222 tahomabold_20_87
00817b4e l     O .rodata	0000016c tahomabold_20_88
00817cba l     O .rodata	0000016c tahomabold_20_89
00817e26 l     O .rodata	00000138 tahomabold_20_90
00817f5e l     O .rodata	000000ea tahomabold_20_91
00818048 l     O .rodata	00000138 tahomabold_20_92
00818180 l     O .rodata	000000ea tahomabold_20_93
0081826a l     O .rodata	000001a0 tahomabold_20_94
0081840a l     O .rodata	00000152 tahomabold_20_95
0081855c l     O .rodata	0000011e tahomabold_20_96
0081867a l     O .rodata	00000138 tahomabold_20_97
008187b2 l     O .rodata	00000152 tahomabold_20_98
00818904 l     O .rodata	0000011e tahomabold_20_99
00818a22 l     O .rodata	00000152 tahomabold_20_100
00818b74 l     O .rodata	00000138 tahomabold_20_101
00818cac l     O .rodata	000000d0 tahomabold_20_102
00818d7c l     O .rodata	00000152 tahomabold_20_103
00818ece l     O .rodata	00000152 tahomabold_20_104
00819020 l     O .rodata	0000009c tahomabold_20_105
008190bc l     O .rodata	000000ea tahomabold_20_106
008191a6 l     O .rodata	00000138 tahomabold_20_107
008192de l     O .rodata	0000009c tahomabold_20_108
0081937a l     O .rodata	000001ee tahomabold_20_109
00819568 l     O .rodata	00000152 tahomabold_20_110
008196ba l     O .rodata	00000138 tahomabold_20_111
008197f2 l     O .rodata	00000152 tahomabold_20_112
00819944 l     O .rodata	00000152 tahomabold_20_113
00819a96 l     O .rodata	000000ea tahomabold_20_114
00819b80 l     O .rodata	00000104 tahomabold_20_115
00819c84 l     O .rodata	000000d0 tahomabold_20_116
00819d54 l     O .rodata	00000152 tahomabold_20_117
00819ea6 l     O .rodata	00000138 tahomabold_20_118
00819fde l     O .rodata	000001d4 tahomabold_20_119
0081a1b2 l     O .rodata	00000138 tahomabold_20_120
0081a2ea l     O .rodata	00000138 tahomabold_20_121
0081a422 l     O .rodata	0000011e tahomabold_20_122
0081a540 l     O .rodata	00000138 tahomabold_20_123
0081a678 l     O .rodata	00000152 tahomabold_20_124
0081a7ca l     O .rodata	00000138 tahomabold_20_125
0081a902 l     O .rodata	000001a0 tahomabold_20_126
00000000 l    df *ABS*	00000000 touch.c
0081d4c8 l     O .bss	00000004 screen.1958
00000000 l    df *ABS*	00000000 libgcc2.c
00000000 l    df *ABS*	00000000 adddf3.c
00000000 l    df *ABS*	00000000 divdf3.c
00000000 l    df *ABS*	00000000 eqdf2.c
00000000 l    df *ABS*	00000000 gedf2.c
00000000 l    df *ABS*	00000000 muldf3.c
00000000 l    df *ABS*	00000000 subdf3.c
00000000 l    df *ABS*	00000000 fixdfsi.c
00000000 l    df *ABS*	00000000 floatsidf.c
00000000 l    df *ABS*	00000000 libgcc2.c
00000000 l    df *ABS*	00000000 lib2-divmod.c
00806b3c l     F .text	0000006c udivmodsi4
00000000 l    df *ABS*	00000000 libgcc2.c
00000000 l    df *ABS*	00000000 memcpy.c
00000000 l    df *ABS*	00000000 rand.c
00000000 l    df *ABS*	00000000 impure.c
0081bd00 l     O .rwdata	00000424 impure_data
00000000 l    df *ABS*	00000000 libgcc2.c
00000000 l    df *ABS*	00000000 alt_main.c
00000000 l    df *ABS*	00000000 alt_usleep.c
00000000 l    df *ABS*	00000000 alt_env_lock.c
0081d418 l     O .rwdata	00000004 lockid
0081d4e4 l     O .bss	00000004 locks
00000000 l    df *ABS*	00000000 alt_malloc_lock.c
0081d41c l     O .rwdata	00000004 lockid
0081d4ec l     O .bss	00000004 locks
00000000 l    df *ABS*	00000000 os_core.c
00808950 l     F .text	00000044 OS_InitMisc
00808994 l     F .text	00000068 OS_InitRdyList
00808af4 l     F .text	000000e0 OS_InitTCBList
00808874 l     F .text	000000dc OS_InitEventList
008089fc l     F .text	0000007c OS_InitTaskIdle
00808a78 l     F .text	0000007c OS_InitTaskStat
00808d54 l     F .text	00000070 OS_SchedNew
00000000 l    df *ABS*	00000000 os_dbg.c
00000000 l    df *ABS*	00000000 os_flag.c
0080ab3c l     F .text	00000110 OS_FlagTaskRdy
0080a894 l     F .text	000001c4 OS_FlagBlock
00000000 l    df *ABS*	00000000 os_mem.c
00000000 l    df *ABS*	00000000 os_q.c
00000000 l    df *ABS*	00000000 os_sem.c
00000000 l    df *ABS*	00000000 os_task.c
00000000 l    df *ABS*	00000000 os_time.c
00000000 l    df *ABS*	00000000 alt_sys_init.c
0080efcc l     F .text	00000038 alt_dev_reg
0081c124 l     O .rwdata	0000106c jtag
0081d190 l     O .rwdata	000000cc flash
00000000 l    df *ABS*	00000000 altera_avalon_epcs_flash_controller.c
0080f0a8 l     F .text	00000038 alt_flash_device_register
0080f134 l     F .text	00000290 alt_epcs_flash_query
0080f3c4 l     F .text	000000e8 alt_epcs_flash_memcmp
0080f798 l     F .text	00000094 alt_epcs_test_address
00000000 l    df *ABS*	00000000 altera_avalon_jtag_uart_fd.c
00000000 l    df *ABS*	00000000 altera_avalon_jtag_uart_init.c
0080fce8 l     F .text	000002a4 altera_avalon_jtag_uart_irq
0080ff8c l     F .text	00000110 altera_avalon_jtag_uart_timeout
00000000 l    df *ABS*	00000000 altera_avalon_jtag_uart_ioctl.c
00000000 l    df *ABS*	00000000 altera_avalon_jtag_uart_read.c
00000000 l    df *ABS*	00000000 altera_avalon_jtag_uart_write.c
00000000 l    df *ABS*	00000000 altera_avalon_spi.c
00000000 l    df *ABS*	00000000 altera_avalon_timer_sc.c
00810968 l     F .text	00000074 alt_avalon_timer_sc_irq
00000000 l    df *ABS*	00000000 epcs_commands.c
00810ac0 l     F .text	00000038 epcs_test_wip
00810af8 l     F .text	00000038 epcs_await_wip_released
00000000 l    df *ABS*	00000000 alt_alarm_start.c
00000000 l    df *ABS*	00000000 alt_busy_sleep.c
00000000 l    df *ABS*	00000000 alt_close.c
008112f8 l     F .text	00000050 alt_get_errno
00000000 l    df *ABS*	00000000 alt_dev.c
00811418 l     F .text	0000002c alt_dev_null_write
00000000 l    df *ABS*	00000000 alt_dev_llist_insert.c
00811444 l     F .text	00000050 alt_get_errno
00000000 l    df *ABS*	00000000 alt_do_ctors.c
00000000 l    df *ABS*	00000000 alt_do_dtors.c
00000000 l    df *ABS*	00000000 alt_errno.c
00000000 l    df *ABS*	00000000 alt_flash_dev.c
00000000 l    df *ABS*	00000000 alt_iic.c
00000000 l    df *ABS*	00000000 alt_iic_isr_register.c
00000000 l    df *ABS*	00000000 alt_io_redirect.c
00811978 l     F .text	000000c0 alt_open_fd
00000000 l    df *ABS*	00000000 alt_irq_vars.c
00000000 l    df *ABS*	00000000 alt_open.c
00811ab0 l     F .text	00000050 alt_get_errno
00811b00 l     F .text	000000cc alt_file_locked
00000000 l    df *ABS*	00000000 alt_release_fd.c
00000000 l    df *ABS*	00000000 alt_tick.c
00000000 l    df *ABS*	00000000 altera_nios2_gen2_irq.c
00000000 l    df *ABS*	00000000 os_cpu_a.o
00000040 l       *ABS*	00000000 OSCtxSw_SWITCH_PC
00000000 l    df *ABS*	00000000 os_cpu_c.c
00000014 l       *ABS*	00000000 OSTCBNext_OFFSET
00000032 l       *ABS*	00000000 OSTCBPrio_OFFSET
00000000 l       *ABS*	00000000 OSTCBStkPtr_OFFSET
00000000 l    df *ABS*	00000000 alt_find_dev.c
00000000 l    df *ABS*	00000000 alt_find_file.c
00000000 l    df *ABS*	00000000 alt_get_fd.c
00000000 l    df *ABS*	00000000 atexit.c
00000000 l    df *ABS*	00000000 exit.c
00000000 l    df *ABS*	00000000 int_errno.c
00000000 l    df *ABS*	00000000 memcmp.c
00000000 l    df *ABS*	00000000 memset.c
00000000 l    df *ABS*	00000000 strlen.c
00000000 l    df *ABS*	00000000 __atexit.c
00000000 l    df *ABS*	00000000 __call_atexit.c
00000000 l    df *ABS*	00000000 alt_exit.c
0081d554 g     O .bss	00000004 alt_instruction_exception_handler
00801784 g     F .text	00000074 vid_draw_horiz_line
0081d4c4 g     O .bss	00000004 STATE_touch
0081d46a g     O .rwdata	00000002 OSTaskNameSize
0080f70c g     F .text	0000008c alt_epcs_flash_get_info
00806e7c g     F .text	000000d4 alt_main
008207c4 g     O .bss	00000100 alt_irq
0080b3a0 g     F .text	000000d0 OS_MemInit
0080ef68 g     F .text	00000064 OSTimeSet
00805828 g     F .text	00000084 .hidden __eqdf2
008075cc g     F .text	00000610 OSEventPendMulti
00812304 g     F .text	00000020 OSTaskCreateHook
0081d442 g     O .rwdata	00000002 OSMboxEn
00807c30 g     F .text	0000007c OSIntEnter
0081d452 g     O .rwdata	00000002 OSQEn
01001000 g       *ABS*	00000000 __alt_mem_flash
008003e4 g     F .text	000000a0 LCD_ReadData
008072a0 g     F .text	000000d0 __malloc_unlock
00812360 g     F .text	0000001c OSTaskStatHook
00801a60 g     F .text	00000120 vid_draw_box
0081d4f4 g     O .bss	00000001 OSLockNesting
0081d490 g     O .rwdata	00000002 OSDataSize
0081d4f5 g     O .bss	00000001 OSRunning
008015a8 g     F .text	000000d0 GUI_Text
00802628 g     F .text	00000244 vid_print_string_alpha
00812398 g     F .text	0000001c OSInitHookBegin
0081d488 g     O .rwdata	00000002 OSTmrSize
0081ad1c g     O .rwdata	00000415 cour10_font_array
0081d4f8 g     O .bss	00000004 OSIdleCtr
008058ac g     F .text	000000e0 .hidden __gtdf2
00811f20 g     F .text	00000020 altera_nios2_gen2_irq_init
00811fec g       .text	00000000 OSStartTsk
00000000  w      *UND*	00000000 __errno
00809070 g     F .text	000002d4 OS_TCBInit
00810b30 g     F .text	000000f8 epcs_sector_erase
00802e4c g     F .text	000000e0 vid_string_pixel_length_alpha
01001000 g     F .entry	00000000 __reset
0081d48e g     O .rwdata	00000002 OSTmrWheelTblSize
00800d28 g     F .text	00000118 LCD_Clear
0081d42e g     O .rwdata	00000002 OSEventSize
0081d4fc g     O .bss	00000001 OSPrioHighRdy
008030b0 g     F .text	0000003c TP_Init
00812324 g     F .text	00000020 OSTaskDelHook
00804544 g     F .text	00000108 event_is_up
0081d558 g     O .bss	00000004 errno
00811fcc g       .text	00000000 OSStartHighRdy
0080d884 g     F .text	000001ec OSTaskCreateExt
008044a4 g     F .text	000000a0 auto_calibration
0080a3e0 g     F .text	00000068 OSFlagPendGetFlagsRdy
0081d46e g     O .rwdata	00000002 OSTaskStatStkSize
008094d0 g     F .text	00000308 OSFlagAccept
0080ba74 g     F .text	000000b8 OSQFlush
0080b470 g     F .text	00000140 OSQAccept
0081d4dc g     O .bss	00000004 alt_argv
00825404 g       *ABS*	00000000 _gp
00806f50 g     F .text	00000114 usleep
0080d6c8 g     F .text	000001bc OSTaskCreate
0080d188 g     F .text	00000540 OSTaskChangePrio
0081d4f0 g     O .bss	00000004 alt_heapsem
00809344 g     F .text	0000018c OSDebugInit
0080da70 g     F .text	000003e0 OSTaskDel
0080286c g     F .text	00000148 seperate_color_channels
0081d284 g     O .rwdata	00000180 alt_fd_list
0081d5a0 g     O .bss	00000370 OSFlagTbl
0080069c g     F .text	0000068c LCD_Initializtion
00808660 g     F .text	000000b4 OS_EventTaskRemove
00810d6c g     F .text	00000068 epcs_write_status_register
00803018 g     F .text	00000098 init_system_
0081240c g     F .text	00000090 alt_find_dev
00806c68 g     F .text	00000138 memcpy
0081d458 g     O .rwdata	00000002 OSRdyTblSize
00806a08 g     F .text	000000d0 .hidden __floatsidf
00801f28 g     F .text	000006a8 vid_round_corner_points
00811a38 g     F .text	00000078 alt_io_redirect
00812cb0 g       *ABS*	00000000 __DTOR_END__
0081d40c g     O .rwdata	00000004 y2_touch
008126ac g     F .text	0000009c alt_exception_cause_generated_bad_addr
00807370 g     F .text	00000120 OSEventNameGet
0081d43c g     O .rwdata	00000002 OSFlagMax
0080f8a0 g     F .text	00000100 alt_epcs_flash_write_block
00807cac g     F .text	000000f4 OSIntExit
00800288 g     F .text	00000064 GetASCIICode
0081d476 g     O .rwdata	00000002 OSTCBSize
0081d4fd g     O .bss	00000001 OSPrioCur
008101f0 g     F .text	000002b4 altera_avalon_jtag_uart_read
008011d8 g     F .text	000002a0 LCD_DrawLine
00000000  w      *UND*	00000000 malloc
00806c58 g     F .text	00000008 .hidden __udivsi3
0081d45c g     O .rwdata	00000002 OSStkWidth
0081d450 g     O .rwdata	00000002 OSPtrSize
0081d430 g     O .rwdata	00000002 OSEventTblSize
0080464c g     F .text	00000074 .hidden __fixunsdfsi
00811f40 g       .text	00000000 OSCtxSw
0081d500 g     O .bss	00000004 OSTCBList
0081d544 g     O .bss	00000004 alt_fd_list_lock
0081d910 g     O .bss	00000c30 OSMemTbl
0081d504 g     O .bss	00000001 OSTickStepState
0081d454 g     O .rwdata	00000002 OSQMax
0081e540 g     O .bss	00000800 OSTaskStatStk
0080afd0 g     F .text	000000f8 OSMemNameGet
0081d434 g     O .rwdata	00000002 OSFlagEn
0081d47a g     O .rwdata	00000002 OSTimeTickHookEn
0080bf94 g     F .text	00000168 OSQPost
0080ac4c g     F .text	000000a0 OS_FlagUnlink
0081d4cc g     O .bss	00000004 x_touch
0081d4a4 g     O .rwdata	00000004 alt_max_fd
00808c24 g     F .text	00000064 OS_MemCopy
00808c88 g     F .text	000000cc OS_Sched
0080aee0 g     F .text	000000f0 OSMemGet
0080e150 g     F .text	000001c0 OSTaskNameSet
0081d508 g     O .bss	00000004 OSCtxSwCtr
0081237c g     F .text	0000001c OSTimeTickHook
0081d43e g     O .rwdata	00000002 OSFlagNameSize
00808714 g     F .text	000000fc OS_EventTaskRemoveMulti
008046c0 g     F .text	0000089c .hidden __adddf3
00808514 g     F .text	0000014c OS_EventTaskWaitMulti
0080f82c g     F .text	00000074 alt_epcs_flash_erase_block
0081d456 g     O .rwdata	00000002 OSQSize
0080ca98 g     F .text	00000268 OSSemPend
0081d410 g     O .rwdata	00000004 _global_impure_ptr
00801dfc g     F .text	0000012c vid_draw_circle
00811034 g     F .text	0000005c epcs_exit_4_bytes_mode
0081d440 g     O .rwdata	00000002 OSLowestPrio
008208c4 g       *ABS*	00000000 __bss_end
00811888 g     F .text	000000f0 alt_iic_isr_register
0081d4d0 g     O .bss	00000004 display
008123ec g     F .text	00000020 OSTCBInitHook
0081d486 g     O .rwdata	00000002 OSTmrCfgTicksPerSec
00811e1c g     F .text	00000104 alt_tick
008030ec g     F .text	00000030 DelayUS
0081d428 g     O .rwdata	00000002 OSEventEn
0081d482 g     O .rwdata	00000002 OSTmrCfgNameSize
008017f8 g     F .text	00000268 vid_draw_sloped_line
008033b8 g     F .text	0000030c DrawCross
0081183c g     F .text	0000004c alt_ic_irq_enabled
00801160 g     F .text	00000078 LCD_SetPoint
0080aa58 g     F .text	000000e4 OS_FlagInit
00811d84 g     F .text	00000098 alt_alarm_stop
0081d464 g     O .rwdata	00000002 OSTaskIdleStkSize
0081d548 g     O .bss	00000004 alt_irq_active
0080c680 g     F .text	000000b0 OSSemAccept
0080b1e0 g     F .text	000000d8 OSMemPut
0080acec g     F .text	000001f4 OSMemCreate
0081d50c g     O .bss	00000004 OSIdleCtrMax
008000fc g     F .exceptions	000000d0 alt_irq_handler
0081d25c g     O .rwdata	00000028 alt_dev_null
0081d478 g     O .rwdata	00000002 OSTicksPerSec
0081d4d4 g     O .bss	00000004 x2
00811f40 g       .text	00000000 OSIntCtxSw
00806980 g     F .text	00000088 .hidden __fixdfsi
0080407c g     F .text	000002f0 getDisplayPoint
00800e40 g     F .text	00000134 LCD_show_test
0081d510 g     O .bss	00000004 OSTCBFreeList
0080cd00 g     F .text	0000016c OSSemPendAbort
0081d49c g     O .rwdata	00000008 alt_dev_list
0081d47c g     O .rwdata	00000002 OSVersionNbr
0081d424 g     O .rwdata	00000004 OSEndiannessTest
00806c60 g     F .text	00000008 .hidden __umodsi3
008032a4 g     F .text	00000068 Read_Y
00810ef0 g     F .text	00000068 epcs_read_electronic_signature
0081d436 g     O .rwdata	00000002 OSFlagGrpSize
008208c4 g       *ABS*	00000000 end
0080fb9c g     F .text	0000014c altera_avalon_jtag_uart_init
00808ee8 g     F .text	000000c0 OS_TaskStat
008001cc g     F .exceptions	00000074 alt_instruction_exception_entry
00801c10 g     F .text	000000ec vid_print_char
00812cb0 g       *ABS*	00000000 __CTOR_LIST__
01000000 g       *ABS*	00000000 __alt_stack_pointer
008109dc g     F .text	00000088 alt_avalon_timer_sc_init
00806ad8 g     F .text	00000064 .hidden __clzsi2
008104a4 g     F .text	000002c0 altera_avalon_jtag_uart_write
00801678 g     F .text	000000b8 vid_draw_line
00808bd4 g     F .text	00000050 OS_MemClr
00812010 g     F .text	000002f4 OSTaskStkInit
0080330c g     F .text	0000005c TP_GetAdXY
0080311c g     F .text	00000054 WR_CMD
00800554 g     F .text	00000148 LCD_SetCursor
00808270 g     F .text	00000198 OS_EventTaskRdy
00812ae0 g     F .text	00000194 __call_exitprocs
0081d514 g     O .bss	00000001 OSCPUUsage
00800240 g     F .text	00000048 _start
0081d54c g     O .bss	00000004 _alt_tick_rate
0080bb2c g     F .text	000002fc OSQPend
0080ea7c g     F .text	00000148 OSTimeDly
00806db8 g     F .text	00000064 rand
00810764 g     F .text	00000204 alt_avalon_spi_command
0081d550 g     O .bss	00000004 _alt_nticks
0080f038 g     F .text	00000070 alt_sys_init
0080436c g     F .text	00000138 TouchPanel_Calibrate
008129cc g     F .text	00000114 __register_exitproc
0081d515 g     O .bss	00000001 OSTaskCtr
0080ebc4 g     F .text	00000150 OSTimeDlyHMSM
00801b80 g     F .text	00000090 vid_paint_block
0081009c g     F .text	00000068 altera_avalon_jtag_uart_close
0081d42a g     O .rwdata	00000002 OSEventMax
0080ce6c g     F .text	00000110 OSSemPost
00810a64 g     F .text	0000005c epcs_read_status_register
00807e28 g     F .text	000000d8 OSSchedUnlock
0080fa38 g     F .text	00000060 altera_avalon_jtag_uart_read_fd
008125b0 g     F .text	000000fc alt_get_fd
0081d518 g     O .bss	00000004 OSMemFreeList
00807f6c g     F .text	000000ac OSStatInit
008111d0 g     F .text	00000128 alt_busy_sleep
0080a7d0 g     F .text	000000c4 OSFlagQuery
008002ec g     F .text	00000084 LCD_WriteIndex
0081d460 g     O .rwdata	00000002 OSTaskCreateExtEn
00802ae4 g     F .text	000001c8 alpha_blending
00810f58 g     F .text	00000080 epcs_read_device_id
00812794 g     F .text	0000007c memcmp
00808254 g     F .text	0000001c OS_Dummy
0080faf8 g     F .text	00000050 altera_avalon_jtag_uart_close_fd
008208c4 g       *ABS*	00000000 __alt_stack_base
0080fb48 g     F .text	00000054 altera_avalon_jtag_uart_ioctl_fd
0081ed40 g     O .bss	000001e0 OSQTbl
00804f5c g     F .text	000008cc .hidden __divdf3
0081d408 g     O .rwdata	00000004 y_touch
0081d51c g     O .bss	00000004 OSTCBHighRdy
0080598c g     F .text	00000724 .hidden __muldf3
0081d55c g     O .bss	0000000c ScreenSample
0081d520 g     O .bss	00000004 OSQFreeList
0081249c g     F .text	00000114 alt_find_file
00811494 g     F .text	000000a4 alt_dev_llist_insert
00807180 g     F .text	00000120 __malloc_lock
00807490 g     F .text	0000013c OSEventNameSet
0081d524 g     O .bss	00000001 OSRdyGrp
0081d4ac g     O .rwdata	00000008 alt_flash_dev_list
0081d4c0 g       *ABS*	00000000 __bss_start
00812810 g     F .text	00000124 memset
00802f2c g     F .text	000000ec main
008025d0 g     F .text	00000058 delay_ms
0081d4e0 g     O .bss	00000004 alt_envp
0080fa98 g     F .text	00000060 altera_avalon_jtag_uart_write_fd
00806da0 g     F .text	00000018 srand
0081abd4 g     O .rodata	00000100 OSUnMapTbl
0081b134 g     O .rwdata	00000bc0 tahomabold_20
0081d45a g     O .rwdata	00000002 OSSemEn
0080a448 g     F .text	00000388 OSFlagPost
00802cac g     F .text	000001a0 vid_print_char_alpha
00808408 g     F .text	0000010c OS_EventTaskWait
0081d404 g     O .rwdata	00000004 cour10_font
00808fa8 g     F .text	000000c8 OS_TaskStatStkChk
0080de50 g     F .text	00000158 OSTaskDelReq
0081d4a8 g     O .rwdata	00000004 alt_errno
00807f00 g     F .text	0000006c OSStart
00807124 g     F .text	0000005c __env_unlock
0080e310 g     F .text	000001f8 OSTaskResume
0080b2b8 g     F .text	000000e8 OSMemQuery
0081d568 g     O .bss	00000038 matrix
0081d46c g     O .rwdata	00000002 OSTaskStatEn
0081bcf4 g     O .rwdata	0000000c DisplaySample
0081d446 g     O .rwdata	00000002 OSMemMax
0080c0fc g     F .text	00000170 OSQPostFront
00806ba8 g     F .text	00000054 .hidden __divsi3
0081d525 g     O .bss	00000003 OSRdyTbl
0081d420 g     O .rwdata	00000002 OSDebugEn
00812cb0 g       *ABS*	00000000 __CTOR_END__
0081d438 g     O .rwdata	00000002 OSFlagNodeSize
0081d480 g     O .rwdata	00000002 OSTmrCfgMax
0080f4ac g     F .text	00000260 alt_epcs_flash_write
0080b5b0 g     F .text	000001fc OSQCreate
0080dfa8 g     F .text	000001a8 OSTaskNameGet
0080c26c g     F .text	0000020c OSQPostOpt
00808018 g     F .text	0000021c OSTimeTick
0081d468 g     O .rwdata	00000002 OSTaskMax
00812cb0 g       *ABS*	00000000 __DTOR_LIST__
0080c730 g     F .text	00000100 OSSemCreate
0081d48c g     O .rwdata	00000002 OSTmrWheelSize
00805828 g     F .text	00000084 .hidden __nedf2
0081d462 g     O .rwdata	00000002 OSTaskDelEn
0080cf7c g     F .text	00000110 OSSemQuery
0080b7ac g     F .text	000002c8 OSQDel
0080be28 g     F .text	0000016c OSQPendAbort
0080f004 g     F .text	00000034 alt_irq_init
00811d24 g     F .text	00000060 alt_release_fd
0081aac4 g     O .rodata	00000100 .hidden __clz_tab
00812748 g     F .text	00000014 atexit
00807da0 g     F .text	00000088 OSSchedLock
00800484 g     F .text	0000006c LCD_WriteReg
008097d8 g     F .text	00000128 OSFlagCreate
00801478 g     F .text	00000130 PutChar
0081d414 g     O .rwdata	00000004 _impure_ptr
0081d4d8 g     O .bss	00000004 alt_argc
00811594 g     F .text	0000005c _do_dtors
0081d432 g     O .rwdata	00000002 OSEventMultiEn
00809900 g     F .text	00000270 OSFlagDel
0081d528 g     O .bss	00000004 OSEventFreeList
00800020 g       .exceptions	00000000 alt_irq_entry
00809df0 g     F .text	000005f0 OSFlagPend
0081d47e g     O .rwdata	00000002 OSTmrEn
00800370 g     F .text	00000074 LCD_WriteData
0081d494 g     O .rwdata	00000008 alt_fs_list
00808dc4 g     F .text	00000074 OS_StrCopy
00801cfc g     F .text	00000100 vid_print_string
00803368 g     F .text	00000050 TP_DrawPoint
0081d448 g     O .rwdata	00000002 OSMemNameSize
008123b4 g     F .text	0000001c OSInitHookEnd
0081d474 g     O .rwdata	00000002 OSTCBPrioTblMax
00810c28 g     F .text	000000f4 epcs_read_buffer
0081d470 g     O .rwdata	00000002 OSTaskStatStkChkEn
0080f0e0 g     F .text	00000054 alt_epcs_flash_init
008116a8 g     F .text	00000050 alt_ic_isr_register
0081d444 g     O .rwdata	00000002 OSMemEn
0080323c g     F .text	00000068 Read_X
0081d44e g     O .rwdata	00000002 OSMutexEn
0081d4c0 g       *ABS*	00000000 _edata
008208c4 g       *ABS*	00000000 _end
008115f0 g     F .text	00000068 alt_flash_open_dev
0081d52c g     O .bss	00000001 OSIntNesting
00810104 g     F .text	000000ec altera_avalon_jtag_uart_ioctl
0080ed14 g     F .text	000001f0 OSTimeDlyResume
00809ca0 g     F .text	00000150 OSFlagNameSet
00803a44 g     F .text	00000638 setCalibrationMatrix
0080e508 g     F .text	000001c8 OSTaskStkChk
00811798 g     F .text	000000a4 alt_ic_irq_disable
00810fd8 g     F .text	0000005c epcs_enter_4_bytes_mode
0081d44a g     O .rwdata	00000002 OSMemSize
0081d530 g     O .bss	00000004 OSTCBCur
008132a0 g     O .rodata	00000010 colorfol1
0081275c g     F .text	00000038 exit
0081d44c g     O .rwdata	00000002 OSMemTblSize
00811658 g     F .text	00000050 alt_flash_close_dev
00806bfc g     F .text	0000005c .hidden __modsi3
00803170 g     F .text	000000cc RD_AD
01000000 g       *ABS*	00000000 __alt_data_end
00800020 g     F .exceptions	00000000 alt_exception
00807bdc g     F .text	00000054 OSInit
00800fec g     F .text	00000174 LCD_GetPoint
00800000 g       *ABS*	00000000 __alt_mem_sdram
0080e8e4 g     F .text	0000012c OSTaskQuery
0080c5d4 g     F .text	000000ac OS_QInit
00808e38 g     F .text	00000054 OS_StrLen
0080b0c8 g     F .text	00000118 OSMemNameSet
00801730 g     F .text	00000054 vid_set_pixel
0081d466 g     O .rwdata	00000002 OSTaskProfileEn
0081d534 g     O .bss	00000004 OSTime
0081ef20 g     O .bss	00000800 OSTaskIdleStk
00812c74 g     F .text	0000003c _exit
00811090 g     F .text	00000140 alt_alarm_start
00809b70 g     F .text	00000130 OSFlagNameGet
0080ef04 g     F .text	00000064 OSTimeGet
00806e1c g     F .text	00000060 .hidden __muldi3
00812934 g     F .text	00000098 strlen
00810d1c g     F .text	00000050 epcs_write_enable
00812344 g     F .text	0000001c OSTaskSwHook
00811bcc g     F .text	00000158 open
0081f720 g     O .bss	00000b40 OSEventTbl
008058ac g     F .text	000000e0 .hidden __gedf2
00820260 g     O .bss	00000510 OSTCBTbl
0080d08c g     F .text	000000fc OSSemSet
008036c4 g     F .text	00000380 Read_Ads7846
0081d4b4 g     O .rwdata	00000004 alt_priority_mask
0080c830 g     F .text	00000268 OSSemDel
0081d538 g     O .bss	00000004 OSFlagFreeList
008116f8 g     F .text	000000a0 alt_ic_irq_enable
0081d42c g     O .rwdata	00000002 OSEventNameSize
0081d53c g     O .bss	00000001 OSStatRdy
00820770 g     O .bss	00000054 OSTCBPrioTbl
00807064 g     F .text	000000c0 __env_lock
0081d472 g     O .rwdata	00000002 OSTaskSwHookEn
008060b0 g     F .text	000008d0 .hidden __subdf3
0080f9a0 g     F .text	00000098 alt_epcs_flash_read
0081d4b8 g     O .rwdata	00000008 alt_alarm_list
0081d43a g     O .rwdata	00000002 OSFlagWidth
00811538 g     F .text	0000005c _do_ctors
008029b4 g     F .text	00000130 merge_color_channels
00811348 g     F .text	000000d0 close
0081d4e8 g     O .bss	00000004 alt_envsem
0081d540 g     O .bss	00000004 OSIdleCtrRun
008004f0 g     F .text	00000064 LCD_ReadReg
00808234 g     F .text	00000020 OSVersion
0081d484 g     O .rwdata	00000002 OSTmrCfgWheelSize
0080ea10 g     F .text	0000006c OS_TaskStkClr
0081d45e g     O .rwdata	00000002 OSTaskCreateEn
00808810 g     F .text	00000064 OS_EventWaitListInit
00800f74 g     F .text	00000078 LCD_BGR2RGB
008123d0 g     F .text	0000001c OSTaskIdleHook
00000000  w      *UND*	00000000 free
00810dd4 g     F .text	0000011c epcs_write_buffer
0080e6d0 g     F .text	00000214 OSTaskSuspend
00808e8c g     F .text	0000005c OS_TaskIdle
0081d48a g     O .rwdata	00000002 OSTmrTblSize
0080c478 g     F .text	0000015c OSQQuery



Disassembly of section .exceptions:

00800020 <alt_exception>:

#else /* ALT_EXCEPTION_STACK disabled */
        /* 
         * Reserve space on normal stack for registers about to be pushed.
         */
        addi  sp, sp, -76
  800020:	deffed04 	addi	sp,sp,-76
         * documentation for details).
         *
         * Leave a gap in the stack frame at 4(sp) for the muldiv handler to
         * store zero into.
         */
        stw   ra,  0(sp)
  800024:	dfc00015 	stw	ra,0(sp)
        stw   r1,   8(sp)
  800028:	d8400215 	stw	at,8(sp)
        stw   r2,  12(sp)
  80002c:	d8800315 	stw	r2,12(sp)
        stw   r3,  16(sp)
  800030:	d8c00415 	stw	r3,16(sp)
        stw   r4,  20(sp)
  800034:	d9000515 	stw	r4,20(sp)
        stw   r5,  24(sp)
  800038:	d9400615 	stw	r5,24(sp)
        stw   r6,  28(sp)
  80003c:	d9800715 	stw	r6,28(sp)
        stw   r7,  32(sp)
  800040:	d9c00815 	stw	r7,32(sp)
        rdctl r5, estatus   /* Read early to avoid usage stall */
  800044:	000b307a 	rdctl	r5,estatus
        stw   r8,  36(sp)
  800048:	da000915 	stw	r8,36(sp)
        stw   r9,  40(sp)
  80004c:	da400a15 	stw	r9,40(sp)
        stw   r10, 44(sp)
  800050:	da800b15 	stw	r10,44(sp)
        stw   r11, 48(sp)
  800054:	dac00c15 	stw	r11,48(sp)
        stw   r12, 52(sp)
  800058:	db000d15 	stw	r12,52(sp)
        stw   r13, 56(sp)
  80005c:	db400e15 	stw	r13,56(sp)
        stw   r14, 60(sp)
  800060:	db800f15 	stw	r14,60(sp)
        stw   r15, 64(sp)
  800064:	dbc01015 	stw	r15,64(sp)
        /*
         * ea-4 contains the address of the instruction being executed
         * when the exception occured. For interrupt exceptions, we will
         * will be re-issue the isntruction. Store it in 72(sp)
         */
        stw   r5,  68(sp)  /* estatus */
  800068:	d9401115 	stw	r5,68(sp)
        addi  r15, ea, -4  /* instruction that caused exception */
  80006c:	ebffff04 	addi	r15,ea,-4
        stw   r15,  72(sp)
  800070:	dbc01215 	stw	r15,72(sp)
#else
        /*
         * Test to see if the exception was a software exception or caused 
         * by an external interrupt, and vector accordingly.
         */
        rdctl r4, ipending
  800074:	0009313a 	rdctl	r4,ipending
        andi  r2, r5, 1
  800078:	2880004c 	andi	r2,r5,1
        beq   r2, zero, .Lnot_irq
  80007c:	10000326 	beq	r2,zero,80008c <alt_exception+0x6c>
        beq   r4, zero, .Lnot_irq
  800080:	20000226 	beq	r4,zero,80008c <alt_exception+0x6c>
        /*
         * Now that all necessary registers have been preserved, call 
         * alt_irq_handler() to process the interrupts.
         */

        call alt_irq_handler
  800084:	08000fc0 	call	8000fc <alt_irq_handler>

        .section .exceptions.irqreturn, "xa"

        br    .Lexception_exit
  800088:	00000706 	br	8000a8 <alt_exception+0x88>
         * upon completion, so we write ea (address of instruction *after*
         * the one where the exception occured) into 72(sp). The actual
         * instruction that caused the exception is written in r2, which these
         * handlers will utilize.
         */
        stw   ea,  72(sp)  /* Don't re-issue */
  80008c:	df401215 	stw	ea,72(sp)
        ldhu.n  r2, 0(r4)
        ldhu.n  r3, 2(r4)
        slli.n  r3, r3, 16
        or.n    r2, r2, r3 /* Instruction that caused exception */
#else
        ldw   r2, -4(ea)   /* Instruction that caused exception */
  800090:	e8bfff17 	ldw	r2,-4(ea)
         * debugger is present) or go into an infinite loop since the
         * handling behavior is undefined; in that case we will not return here.
         */

        /* Load exception-causing address as first argument (r4) */
        addi   r4, ea, -4
  800094:	e93fff04 	addi	r4,ea,-4

        /* Call the instruction-exception entry */
        call   alt_instruction_exception_entry
  800098:	08001cc0 	call	8001cc <alt_instruction_exception_entry>
         * instruction
         *
         * Return code was 0: Skip. The instruction after the exception is
         * already stored in 72(sp).
         */
        bne   r2, r0, .Lexception_exit
  80009c:	1000021e 	bne	r2,zero,8000a8 <alt_exception+0x88>

        /*
         * Otherwise, modify 72(sp) to re-issue the instruction that caused the
         * exception.
         */
        addi  r15, ea, -4  /* instruction that caused exception */
  8000a0:	ebffff04 	addi	r15,ea,-4
        stw   r15,  72(sp)
  8000a4:	dbc01215 	stw	r15,72(sp)
        /* 
         * Restore the saved registers, so that all general purpose registers 
         * have been restored to their state at the time the interrupt occured.
         */

        ldw   r5,  68(sp)
  8000a8:	d9401117 	ldw	r5,68(sp)
        ldw   ea,  72(sp)  /* This becomes the PC once eret is executed */
  8000ac:	df401217 	ldw	ea,72(sp)
        ldw   ra,   0(sp)
  8000b0:	dfc00017 	ldw	ra,0(sp)

        wrctl estatus, r5
  8000b4:	2801707a 	wrctl	estatus,r5

        ldw   r1,   8(sp)
  8000b8:	d8400217 	ldw	at,8(sp)
        ldw   r2,  12(sp)
  8000bc:	d8800317 	ldw	r2,12(sp)
        ldw   r3,  16(sp)
  8000c0:	d8c00417 	ldw	r3,16(sp)
        ldw   r4,  20(sp)
  8000c4:	d9000517 	ldw	r4,20(sp)
        ldw   r5,  24(sp)
  8000c8:	d9400617 	ldw	r5,24(sp)
        ldw   r6,  28(sp)
  8000cc:	d9800717 	ldw	r6,28(sp)
        ldw   r7,  32(sp)
  8000d0:	d9c00817 	ldw	r7,32(sp)

#if defined(ALT_EXCEPTION_STACK) && defined(ALT_STACK_CHECK)
        ldw   et, %gprel(alt_exception_old_stack_limit)(gp)
#endif

        ldw   r8,  36(sp)
  8000d4:	da000917 	ldw	r8,36(sp)
        ldw   r9,  40(sp)
  8000d8:	da400a17 	ldw	r9,40(sp)
        ldw   r10, 44(sp)
  8000dc:	da800b17 	ldw	r10,44(sp)
        ldw   r11, 48(sp)
  8000e0:	dac00c17 	ldw	r11,48(sp)
        ldw   r12, 52(sp)
  8000e4:	db000d17 	ldw	r12,52(sp)
        ldw   r13, 56(sp)
  8000e8:	db400e17 	ldw	r13,56(sp)
        ldw   r14, 60(sp)
  8000ec:	db800f17 	ldw	r14,60(sp)
        ldw   r15, 64(sp)
  8000f0:	dbc01017 	ldw	r15,64(sp)
        stw   et, %gprel(alt_stack_limit_value)(gp)
        stw   zero, %gprel(alt_exception_old_stack_limit)(gp)
#endif /* ALT_STACK_CHECK */
        ldw   sp,  76(sp)
#else /* ALT_EXCEPTION_STACK disabled */
        addi  sp, sp, 76
  8000f4:	dec01304 	addi	sp,sp,76

        /*
         * Return to the interrupted instruction.
         */

        eret
  8000f8:	ef80083a 	eret

008000fc <alt_irq_handler>:
 * instruction is present if the macro ALT_CI_INTERRUPT_VECTOR defined.
 */

void alt_irq_handler (void) __attribute__ ((section (".exceptions")));
void alt_irq_handler (void)
{
  8000fc:	defff904 	addi	sp,sp,-28
  800100:	dfc00615 	stw	ra,24(sp)
  800104:	df000515 	stw	fp,20(sp)
  800108:	df000504 	addi	fp,sp,20
  
  /*
   * Notify the operating system that we are at interrupt level.
   */ 
  
  ALT_OS_INT_ENTER();
  80010c:	0807c300 	call	807c30 <OSIntEnter>
#ifndef NIOS2_EIC_PRESENT
static ALT_INLINE alt_u32 ALT_ALWAYS_INLINE alt_irq_pending (void)
{
  alt_u32 active;

  NIOS2_READ_IPENDING (active);
  800110:	0005313a 	rdctl	r2,ipending
  800114:	e0bffe15 	stw	r2,-8(fp)

  return active;
  800118:	e0bffe17 	ldw	r2,-8(fp)
   * Consider the case where the high priority interupt is asserted during
   * the interrupt entry sequence for a lower priority interrupt to see why
   * this is the case.
   */

  active = alt_irq_pending ();
  80011c:	e0bffb15 	stw	r2,-20(fp)

  do
  {
    i = 0;
  800120:	e03ffd15 	stw	zero,-12(fp)
    mask = 1;
  800124:	00800044 	movi	r2,1
  800128:	e0bffc15 	stw	r2,-16(fp)
     * called to clear the interrupt condition.
     */

    do
    {
      if (active & mask)
  80012c:	e0fffb17 	ldw	r3,-20(fp)
  800130:	e0bffc17 	ldw	r2,-16(fp)
  800134:	1884703a 	and	r2,r3,r2
  800138:	10001426 	beq	r2,zero,80018c <alt_irq_handler+0x90>
      { 
#ifdef ALT_ENHANCED_INTERRUPT_API_PRESENT
        alt_irq[i].handler(alt_irq[i].context); 
  80013c:	008020b4 	movhi	r2,130
  800140:	1081f104 	addi	r2,r2,1988
  800144:	e0fffd17 	ldw	r3,-12(fp)
  800148:	180690fa 	slli	r3,r3,3
  80014c:	10c5883a 	add	r2,r2,r3
  800150:	10c00017 	ldw	r3,0(r2)
  800154:	008020b4 	movhi	r2,130
  800158:	1081f104 	addi	r2,r2,1988
  80015c:	e13ffd17 	ldw	r4,-12(fp)
  800160:	200890fa 	slli	r4,r4,3
  800164:	1105883a 	add	r2,r2,r4
  800168:	10800104 	addi	r2,r2,4
  80016c:	10800017 	ldw	r2,0(r2)
  800170:	1009883a 	mov	r4,r2
  800174:	183ee83a 	callr	r3
#else
        alt_irq[i].handler(alt_irq[i].context, i); 
#endif
        break;
  800178:	0001883a 	nop
#ifndef NIOS2_EIC_PRESENT
static ALT_INLINE alt_u32 ALT_ALWAYS_INLINE alt_irq_pending (void)
{
  alt_u32 active;

  NIOS2_READ_IPENDING (active);
  80017c:	0005313a 	rdctl	r2,ipending
  800180:	e0bfff15 	stw	r2,-4(fp)

  return active;
  800184:	e0bfff17 	ldw	r2,-4(fp)
  800188:	00000706 	br	8001a8 <alt_irq_handler+0xac>
      }
      mask <<= 1;
  80018c:	e0bffc17 	ldw	r2,-16(fp)
  800190:	1085883a 	add	r2,r2,r2
  800194:	e0bffc15 	stw	r2,-16(fp)
      i++;
  800198:	e0bffd17 	ldw	r2,-12(fp)
  80019c:	10800044 	addi	r2,r2,1
  8001a0:	e0bffd15 	stw	r2,-12(fp)

    } while (1);
  8001a4:	003fe106 	br	80012c <__reset+0xff7ff12c>

    active = alt_irq_pending ();
  8001a8:	e0bffb15 	stw	r2,-20(fp)
    
  } while (active);
  8001ac:	e0bffb17 	ldw	r2,-20(fp)
  8001b0:	103fdb1e 	bne	r2,zero,800120 <__reset+0xff7ff120>

  /*
   * Notify the operating system that interrupt processing is complete.
   */ 

  ALT_OS_INT_EXIT();
  8001b4:	0807cac0 	call	807cac <OSIntExit>
}
  8001b8:	e037883a 	mov	sp,fp
  8001bc:	dfc00117 	ldw	ra,4(sp)
  8001c0:	df000017 	ldw	fp,0(sp)
  8001c4:	dec00204 	addi	sp,sp,8
  8001c8:	f800283a 	ret

008001cc <alt_instruction_exception_entry>:
 * that handler if it has been registered. Absent a handler, it will
 * break break or hang as discussed below.
 */
int 
alt_instruction_exception_entry (alt_u32 exception_pc)
{
  8001cc:	defffb04 	addi	sp,sp,-20
  8001d0:	dfc00415 	stw	ra,16(sp)
  8001d4:	df000315 	stw	fp,12(sp)
  8001d8:	df000304 	addi	fp,sp,12
  8001dc:	e13fff15 	stw	r4,-4(fp)
 * NIOS2_EXCEPTION_CAUSE_NOT_PRESENT. Your handling routine should
 * check the validity of the cause argument before proceeding.
 */
#ifdef NIOS2_HAS_EXTRA_EXCEPTION_INFO
  /* Get exception cause & "badaddr" */
  NIOS2_READ_EXCEPTION(cause);
  8001e0:	000531fa 	rdctl	r2,exception
  8001e4:	e0bffd15 	stw	r2,-12(fp)
  cause = ( (cause & NIOS2_EXCEPTION_REG_CAUSE_MASK) >>
  8001e8:	e0bffd17 	ldw	r2,-12(fp)
  8001ec:	10801f0c 	andi	r2,r2,124
  8001f0:	1004d0ba 	srli	r2,r2,2
  8001f4:	e0bffd15 	stw	r2,-12(fp)
              NIOS2_EXCEPTION_REG_CAUSE_OFST );

  NIOS2_READ_BADADDR(badaddr);
  8001f8:	0005333a 	rdctl	r2,badaddr
  8001fc:	e0bffe15 	stw	r2,-8(fp)
#else
  cause = NIOS2_EXCEPTION_CAUSE_NOT_PRESENT;
  badaddr = 0;
#endif /* NIOS2_HAS_EXTRA_EXCEPTION_INFO */

  if(alt_instruction_exception_handler) {
  800200:	d0a05417 	ldw	r2,-32432(gp)
  800204:	10000726 	beq	r2,zero,800224 <alt_instruction_exception_entry+0x58>
     * Call handler. Its return value indicates whether the exception-causing
     * instruction should be re-issued. The code that called us,
     * alt_eceptions_entry.S, will look at this value and adjust the ea
     * register as necessary
     */
    return alt_instruction_exception_handler(cause, exception_pc, badaddr);
  800208:	d0a05417 	ldw	r2,-32432(gp)
  80020c:	e0fffd17 	ldw	r3,-12(fp)
  800210:	1809883a 	mov	r4,r3
  800214:	e17fff17 	ldw	r5,-4(fp)
  800218:	e1bffe17 	ldw	r6,-8(fp)
  80021c:	103ee83a 	callr	r2
  800220:	00000206 	br	80022c <alt_instruction_exception_entry+0x60>
   *    (a peripheral which negates its interrupt output before its
   *    interrupt handler has been executed will cause spurious interrupts)
   */
  else {
#ifdef NIOS2_HAS_DEBUG_STUB
    NIOS2_BREAK();
  800224:	003da03a 	break	0
      ;
#endif /* NIOS2_HAS_DEBUG_STUB */
  }

  /* We should not get here. Remove compiler warning. */
  return NIOS2_EXCEPTION_RETURN_REISSUE_INST;
  800228:	0005883a 	mov	r2,zero
}
  80022c:	e037883a 	mov	sp,fp
  800230:	dfc00117 	ldw	ra,4(sp)
  800234:	df000017 	ldw	fp,0(sp)
  800238:	dec00204 	addi	sp,sp,8
  80023c:	f800283a 	ret

Disassembly of section .text:

00800240 <_start>:

    /* Assume the data cache size is always a power of two. */
#if NIOS2_DCACHE_SIZE > 0x8000
    movhi r2, %hi(NIOS2_DCACHE_SIZE)
#else
    movui r2, NIOS2_DCACHE_SIZE
  800240:	00820014 	movui	r2,2048
#endif

0:
    initd 0(r2)
  800244:	10000033 	initd	0(r2)
#ifdef NIOS2_ECC_PRESENT
    addi r2, r2, -4
#else
    addi r2, r2, -NIOS2_DCACHE_LINE_SIZE
  800248:	10bff804 	addi	r2,r2,-32
#endif
    bgt r2, zero, 0b
  80024c:	00bffd16 	blt	zero,r2,800244 <__reset+0xff7ff244>

    /*
     * Now that the caches are initialized, set up the stack pointer and global pointer.
     * The values provided by the linker are assumed to be correctly aligned.
     */
    movhi sp, %hi(__alt_stack_pointer)
  800250:	06c04034 	movhi	sp,256
    ori sp, sp, %lo(__alt_stack_pointer)
  800254:	dec00014 	ori	sp,sp,0
    movhi gp, %hi(_gp)
  800258:	068020b4 	movhi	gp,130
    ori gp, gp, %lo(_gp)
  80025c:	d6950114 	ori	gp,gp,21508
 */
#ifndef ALT_SIM_OPTIMIZE
    /* Log that the BSS is about to be cleared. */
    ALT_LOG_PUTS(alt_log_msg_bss)

    movhi r2, %hi(__bss_start)
  800260:	00802074 	movhi	r2,129
    ori r2, r2, %lo(__bss_start)
  800264:	10b53014 	ori	r2,r2,54464

    movhi r3, %hi(__bss_end)
  800268:	00c020b4 	movhi	r3,130
    ori r3, r3, %lo(__bss_end)
  80026c:	18c23114 	ori	r3,r3,2244

    beq r2, r3, 1f
  800270:	10c00326 	beq	r2,r3,800280 <_start+0x40>

0:
    stw zero, (r2)
  800274:	10000015 	stw	zero,0(r2)
    addi r2, r2, 4
  800278:	10800104 	addi	r2,r2,4
    bltu r2, r3, 0b
  80027c:	10fffd36 	bltu	r2,r3,800274 <__reset+0xff7ff274>

    /* Log that alt_main is about to be called. */
    ALT_LOG_PUTS(alt_log_msg_alt_main)

    /* Call the C entry point. It should never return. */
    call alt_main
  800280:	0806e7c0 	call	806e7c <alt_main>

00800284 <alt_after_alt_main>:

    /* Wait in infinite loop in case alt_main does return. */
alt_after_alt_main:
    br alt_after_alt_main
  800284:	003fff06 	br	800284 <__reset+0xff7ff284>

00800288 <GetASCIICode>:
* Output         : 
* Return         : None
* Attention      : None
*******************************************************************************/
void GetASCIICode(unsigned char* pBuffer,unsigned char ASCII)
{  
  800288:	defffc04 	addi	sp,sp,-16
  80028c:	dfc00315 	stw	ra,12(sp)
  800290:	df000215 	stw	fp,8(sp)
  800294:	df000204 	addi	fp,sp,8
  800298:	e13ffe15 	stw	r4,-8(fp)
  80029c:	2805883a 	mov	r2,r5
  8002a0:	e0bfff05 	stb	r2,-4(fp)
   memcpy(pBuffer,AsciiLib[(ASCII - 32)] ,16);
  8002a4:	e0bfff03 	ldbu	r2,-4(fp)
  8002a8:	10bff804 	addi	r2,r2,-32
  8002ac:	1006913a 	slli	r3,r2,4
  8002b0:	00802074 	movhi	r2,129
  8002b4:	108b2c04 	addi	r2,r2,11440
  8002b8:	1885883a 	add	r2,r3,r2
  8002bc:	e0fffe17 	ldw	r3,-8(fp)
  8002c0:	1809883a 	mov	r4,r3
  8002c4:	1007883a 	mov	r3,r2
  8002c8:	00800404 	movi	r2,16
  8002cc:	180b883a 	mov	r5,r3
  8002d0:	100d883a 	mov	r6,r2
  8002d4:	0806c680 	call	806c68 <memcpy>
}
  8002d8:	e037883a 	mov	sp,fp
  8002dc:	dfc00117 	ldw	ra,4(sp)
  8002e0:	df000017 	ldw	fp,0(sp)
  8002e4:	dec00204 	addi	sp,sp,8
  8002e8:	f800283a 	ret

008002ec <LCD_WriteIndex>:
* Output         : None
* Return         : None
* Attention      : None
*******************************************************************************/
__inline void LCD_WriteIndex(alt_u16 index)
{
  8002ec:	defffe04 	addi	sp,sp,-8
  8002f0:	df000115 	stw	fp,4(sp)
  8002f4:	df000104 	addi	fp,sp,4
  8002f8:	2005883a 	mov	r2,r4
  8002fc:	e0bfff0d 	sth	r2,-4(fp)
    Clr_Rs;
  800300:	0007883a 	mov	r3,zero
  800304:	00804034 	movhi	r2,256
  800308:	10882004 	addi	r2,r2,8320
  80030c:	10c00035 	stwio	r3,0(r2)
    Set_nRd;
  800310:	00c00044 	movi	r3,1
  800314:	00804034 	movhi	r2,256
  800318:	10883404 	addi	r2,r2,8400
  80031c:	10c00035 	stwio	r3,0(r2)
    
    IOWR_ALTERA_AVALON_PIO_DIRECTION(LCD32_DATA_BASE, 0XFFFF) ;  /* GPIO_Write(GPIOE,index); */
  800320:	00ffffd4 	movui	r3,65535
  800324:	00804034 	movhi	r2,256
  800328:	10883104 	addi	r2,r2,8388
  80032c:	10c00035 	stwio	r3,0(r2)
    IOWR_ALTERA_AVALON_PIO_DATA(LCD32_DATA_BASE, index);
  800330:	e0ffff0b 	ldhu	r3,-4(fp)
  800334:	00804034 	movhi	r2,256
  800338:	10883004 	addi	r2,r2,8384
  80033c:	10c00035 	stwio	r3,0(r2)
    
    Clr_nWr;
  800340:	0007883a 	mov	r3,zero
  800344:	00804034 	movhi	r2,256
  800348:	10882c04 	addi	r2,r2,8368
  80034c:	10c00035 	stwio	r3,0(r2)
    Set_nWr;
  800350:	00c00044 	movi	r3,1
  800354:	00804034 	movhi	r2,256
  800358:	10882c04 	addi	r2,r2,8368
  80035c:	10c00035 	stwio	r3,0(r2)
}
  800360:	e037883a 	mov	sp,fp
  800364:	df000017 	ldw	fp,0(sp)
  800368:	dec00104 	addi	sp,sp,4
  80036c:	f800283a 	ret

00800370 <LCD_WriteData>:
* Output         : None
* Return         : None
* Attention      : None
*******************************************************************************/
__inline void LCD_WriteData(alt_u16 data)
{
  800370:	defffe04 	addi	sp,sp,-8
  800374:	df000115 	stw	fp,4(sp)
  800378:	df000104 	addi	fp,sp,4
  80037c:	2005883a 	mov	r2,r4
  800380:	e0bfff0d 	sth	r2,-4(fp)
    Set_Rs;
  800384:	00c00044 	movi	r3,1
  800388:	00804034 	movhi	r2,256
  80038c:	10882004 	addi	r2,r2,8320
  800390:	10c00035 	stwio	r3,0(r2)
    
    IOWR_ALTERA_AVALON_PIO_DIRECTION(LCD32_DATA_BASE, 0XFFFF) ;  /* GPIO_Write(GPIOE,index); */
  800394:	00ffffd4 	movui	r3,65535
  800398:	00804034 	movhi	r2,256
  80039c:	10883104 	addi	r2,r2,8388
  8003a0:	10c00035 	stwio	r3,0(r2)
    IOWR_ALTERA_AVALON_PIO_DATA(LCD32_DATA_BASE, data);
  8003a4:	e0ffff0b 	ldhu	r3,-4(fp)
  8003a8:	00804034 	movhi	r2,256
  8003ac:	10883004 	addi	r2,r2,8384
  8003b0:	10c00035 	stwio	r3,0(r2)
    
    Clr_nWr;
  8003b4:	0007883a 	mov	r3,zero
  8003b8:	00804034 	movhi	r2,256
  8003bc:	10882c04 	addi	r2,r2,8368
  8003c0:	10c00035 	stwio	r3,0(r2)
    Set_nWr;
  8003c4:	00c00044 	movi	r3,1
  8003c8:	00804034 	movhi	r2,256
  8003cc:	10882c04 	addi	r2,r2,8368
  8003d0:	10c00035 	stwio	r3,0(r2)
}
  8003d4:	e037883a 	mov	sp,fp
  8003d8:	df000017 	ldw	fp,0(sp)
  8003dc:	dec00104 	addi	sp,sp,4
  8003e0:	f800283a 	ret

008003e4 <LCD_ReadData>:
* Output         : None
* Return         : 
* Attention      : None
*******************************************************************************/
__inline alt_u16 LCD_ReadData(void)
{
  8003e4:	defffe04 	addi	sp,sp,-8
  8003e8:	df000115 	stw	fp,4(sp)
  8003ec:	df000104 	addi	fp,sp,4
    alt_u16 value;

    Set_Rs;
  8003f0:	00c00044 	movi	r3,1
  8003f4:	00804034 	movhi	r2,256
  8003f8:	10882004 	addi	r2,r2,8320
  8003fc:	10c00035 	stwio	r3,0(r2)
    Set_nWr;
  800400:	00c00044 	movi	r3,1
  800404:	00804034 	movhi	r2,256
  800408:	10882c04 	addi	r2,r2,8368
  80040c:	10c00035 	stwio	r3,0(r2)
    Clr_nRd;
  800410:	0007883a 	mov	r3,zero
  800414:	00804034 	movhi	r2,256
  800418:	10883404 	addi	r2,r2,8400
  80041c:	10c00035 	stwio	r3,0(r2)
    GPIO_InitStructure.GPIO_Pin = GPIO_Pin_All;
    GPIO_InitStructure.GPIO_Speed = GPIO_Speed_50MHz;
    GPIO_InitStructure.GPIO_Mode = GPIO_Mode_IN_FLOATING;
    GPIO_Init(GPIOE, &GPIO_InitStructure);
*/
    IOWR_ALTERA_AVALON_PIO_DIRECTION(LCD32_DATA_BASE, 0X0000) ;  /* GPIO_Write(GPIOE,index); */
  800420:	0007883a 	mov	r3,zero
  800424:	00804034 	movhi	r2,256
  800428:	10883104 	addi	r2,r2,8388
  80042c:	10c00035 	stwio	r3,0(r2)
    value=IORD_ALTERA_AVALON_PIO_DATA(LCD32_DATA_BASE);
  800430:	00804034 	movhi	r2,256
  800434:	10883004 	addi	r2,r2,8384
  800438:	10800037 	ldwio	r2,0(r2)
  80043c:	e0bfff0d 	sth	r2,-4(fp)
     value=IORD_ALTERA_AVALON_PIO_DATA(LCD32_DATA_BASE);
  800440:	00804034 	movhi	r2,256
  800444:	10883004 	addi	r2,r2,8384
  800448:	10800037 	ldwio	r2,0(r2)
  80044c:	e0bfff0d 	sth	r2,-4(fp)
    
    IOWR_ALTERA_AVALON_PIO_DIRECTION(LCD32_DATA_BASE, 0XFFFF) ;
  800450:	00ffffd4 	movui	r3,65535
  800454:	00804034 	movhi	r2,256
  800458:	10883104 	addi	r2,r2,8388
  80045c:	10c00035 	stwio	r3,0(r2)

    Set_nRd;
  800460:	00c00044 	movi	r3,1
  800464:	00804034 	movhi	r2,256
  800468:	10883404 	addi	r2,r2,8400
  80046c:	10c00035 	stwio	r3,0(r2)

    return value;
  800470:	e0bfff0b 	ldhu	r2,-4(fp)
}
  800474:	e037883a 	mov	sp,fp
  800478:	df000017 	ldw	fp,0(sp)
  80047c:	dec00104 	addi	sp,sp,4
  800480:	f800283a 	ret

00800484 <LCD_WriteReg>:
* Output         : None
* Return         : None
* Attention      : None
*******************************************************************************/
__inline void LCD_WriteReg(alt_u16 LCD_Reg,alt_u16 LCD_RegValue)
{ 
  800484:	defffc04 	addi	sp,sp,-16
  800488:	dfc00315 	stw	ra,12(sp)
  80048c:	df000215 	stw	fp,8(sp)
  800490:	df000204 	addi	fp,sp,8
  800494:	2007883a 	mov	r3,r4
  800498:	2805883a 	mov	r2,r5
  80049c:	e0fffe0d 	sth	r3,-8(fp)
  8004a0:	e0bfff0d 	sth	r2,-4(fp)
    /* Write 16-bit Index, then Write Reg */  
    Clr_Cs;
  8004a4:	0007883a 	mov	r3,zero
  8004a8:	00804034 	movhi	r2,256
  8004ac:	10881804 	addi	r2,r2,8288
  8004b0:	10c00035 	stwio	r3,0(r2)
    LCD_WriteIndex(LCD_Reg);         
  8004b4:	e0bffe0b 	ldhu	r2,-8(fp)
  8004b8:	1009883a 	mov	r4,r2
  8004bc:	08002ec0 	call	8002ec <LCD_WriteIndex>
    /* Write 16-bit Reg */
    LCD_WriteData(LCD_RegValue);  
  8004c0:	e0bfff0b 	ldhu	r2,-4(fp)
  8004c4:	1009883a 	mov	r4,r2
  8004c8:	08003700 	call	800370 <LCD_WriteData>
    Set_Cs; 
  8004cc:	00c00044 	movi	r3,1
  8004d0:	00804034 	movhi	r2,256
  8004d4:	10881804 	addi	r2,r2,8288
  8004d8:	10c00035 	stwio	r3,0(r2)
}
  8004dc:	e037883a 	mov	sp,fp
  8004e0:	dfc00117 	ldw	ra,4(sp)
  8004e4:	df000017 	ldw	fp,0(sp)
  8004e8:	dec00204 	addi	sp,sp,8
  8004ec:	f800283a 	ret

008004f0 <LCD_ReadReg>:
* Output         : None
* Return         : LCD Register Value.
* Attention      : None
*******************************************************************************/
__inline alt_u16 LCD_ReadReg(alt_u16 LCD_Reg)
{
  8004f0:	defffc04 	addi	sp,sp,-16
  8004f4:	dfc00315 	stw	ra,12(sp)
  8004f8:	df000215 	stw	fp,8(sp)
  8004fc:	df000204 	addi	fp,sp,8
  800500:	2005883a 	mov	r2,r4
  800504:	e0bfff0d 	sth	r2,-4(fp)
    alt_u16 LCD_RAM;
    
    /* Write 16-bit Index (then Read Reg) */
    Clr_Cs;
  800508:	0007883a 	mov	r3,zero
  80050c:	00804034 	movhi	r2,256
  800510:	10881804 	addi	r2,r2,8288
  800514:	10c00035 	stwio	r3,0(r2)
    LCD_WriteIndex(LCD_Reg);
  800518:	e0bfff0b 	ldhu	r2,-4(fp)
  80051c:	1009883a 	mov	r4,r2
  800520:	08002ec0 	call	8002ec <LCD_WriteIndex>
    /* Read 16-bit Reg */
    LCD_RAM = LCD_ReadData();       
  800524:	08003e40 	call	8003e4 <LCD_ReadData>
  800528:	e0bffe0d 	sth	r2,-8(fp)
    Set_Cs;
  80052c:	00c00044 	movi	r3,1
  800530:	00804034 	movhi	r2,256
  800534:	10881804 	addi	r2,r2,8288
  800538:	10c00035 	stwio	r3,0(r2)
    return LCD_RAM;
  80053c:	e0bffe0b 	ldhu	r2,-8(fp)
}
  800540:	e037883a 	mov	sp,fp
  800544:	dfc00117 	ldw	ra,4(sp)
  800548:	df000017 	ldw	fp,0(sp)
  80054c:	dec00204 	addi	sp,sp,8
  800550:	f800283a 	ret

00800554 <LCD_SetCursor>:

      

void LCD_SetCursor( alt_u16 Xpos, alt_u16 Ypos )
{
  800554:	defffb04 	addi	sp,sp,-20
  800558:	dfc00415 	stw	ra,16(sp)
  80055c:	df000315 	stw	fp,12(sp)
  800560:	df000304 	addi	fp,sp,12
  800564:	2007883a 	mov	r3,r4
  800568:	2805883a 	mov	r2,r5
  80056c:	e0fffe0d 	sth	r3,-8(fp)
  800570:	e0bfff0d 	sth	r2,-4(fp)
    #if  ( DISP_ORIENTATION == 90 ) || ( DISP_ORIENTATION == 270 )
    
    alt_u16 temp = Xpos;
  800574:	e0bffe0b 	ldhu	r2,-8(fp)
  800578:	e0bffd0d 	sth	r2,-12(fp)

             Xpos = Ypos;
  80057c:	e0bfff0b 	ldhu	r2,-4(fp)
  800580:	e0bffe0d 	sth	r2,-8(fp)
             Ypos = ( MAX_X - 1 ) - temp;  
  800584:	e0bffd0b 	ldhu	r2,-12(fp)
  800588:	00c04fc4 	movi	r3,319
  80058c:	1885c83a 	sub	r2,r3,r2
  800590:	e0bfff0d 	sth	r2,-4(fp)

    #elif  ( DISP_ORIENTATION == 0 ) || ( DISP_ORIENTATION == 180 )
        
    #endif

  switch( LCD_Code )
  800594:	d0a02f03 	ldbu	r2,-32580(gp)
  800598:	10803fcc 	andi	r2,r2,255
  80059c:	10bfff04 	addi	r2,r2,-4
  8005a0:	10c002a8 	cmpgeui	r3,r2,10
  8005a4:	1800101e 	bne	r3,zero,8005e8 <LCD_SetCursor+0x94>
  8005a8:	100690ba 	slli	r3,r2,2
  8005ac:	00802034 	movhi	r2,128
  8005b0:	10817004 	addi	r2,r2,1472
  8005b4:	1885883a 	add	r2,r3,r2
  8005b8:	10800017 	ldw	r2,0(r2)
  8005bc:	1000683a 	jmp	r2
  8005c0:	0080060c 	andi	r2,zero,24
  8005c4:	0080060c 	andi	r2,zero,24
  8005c8:	008005e8 	cmpgeui	r2,zero,23
  8005cc:	008005e8 	cmpgeui	r2,zero,23
  8005d0:	008005e8 	cmpgeui	r2,zero,23
  8005d4:	008005e8 	cmpgeui	r2,zero,23
  8005d8:	00800630 	cmpltui	r2,zero,24
  8005dc:	00800630 	cmpltui	r2,zero,24
  8005e0:	008005e8 	cmpgeui	r2,zero,23
  8005e4:	00800684 	movi	r2,26
  {
     default:        /* 0x9320 0x9325 0x9328 0x9331 0x5408 0x1505 0x0505 0x7783 0x4531 0x4535 */
          LCD_WriteReg(0x0020, Xpos );     
  8005e8:	e0bffe0b 	ldhu	r2,-8(fp)
  8005ec:	01000804 	movi	r4,32
  8005f0:	100b883a 	mov	r5,r2
  8005f4:	08004840 	call	800484 <LCD_WriteReg>
          LCD_WriteReg(0x0021, Ypos );     
  8005f8:	e0bfff0b 	ldhu	r2,-4(fp)
  8005fc:	01000844 	movi	r4,33
  800600:	100b883a 	mov	r5,r2
  800604:	08004840 	call	800484 <LCD_WriteReg>
          break; 
  800608:	00001f06 	br	800688 <LCD_SetCursor+0x134>

     case SSD1298:   /* 0x8999 */
     case SSD1289:   /* 0x8989 */
          LCD_WriteReg(0x004e, Xpos );      
  80060c:	e0bffe0b 	ldhu	r2,-8(fp)
  800610:	01001384 	movi	r4,78
  800614:	100b883a 	mov	r5,r2
  800618:	08004840 	call	800484 <LCD_WriteReg>
        LCD_WriteReg(0x004f, Ypos );          
  80061c:	e0bfff0b 	ldhu	r2,-4(fp)
  800620:	010013c4 	movi	r4,79
  800624:	100b883a 	mov	r5,r2
  800628:	08004840 	call	800484 <LCD_WriteReg>
          break;  
  80062c:	00001606 	br	800688 <LCD_SetCursor+0x134>

     case HX8347A:   /* 0x0047 */
     case HX8347D:   /* 0x0047 */
          LCD_WriteReg(0x02, Xpos>>8 );                                                  
  800630:	e0bffe0b 	ldhu	r2,-8(fp)
  800634:	1004d23a 	srli	r2,r2,8
  800638:	10bfffcc 	andi	r2,r2,65535
  80063c:	01000084 	movi	r4,2
  800640:	100b883a 	mov	r5,r2
  800644:	08004840 	call	800484 <LCD_WriteReg>
          LCD_WriteReg(0x03, Xpos );  
  800648:	e0bffe0b 	ldhu	r2,-8(fp)
  80064c:	010000c4 	movi	r4,3
  800650:	100b883a 	mov	r5,r2
  800654:	08004840 	call	800484 <LCD_WriteReg>

          LCD_WriteReg(0x06, Ypos>>8 );                           
  800658:	e0bfff0b 	ldhu	r2,-4(fp)
  80065c:	1004d23a 	srli	r2,r2,8
  800660:	10bfffcc 	andi	r2,r2,65535
  800664:	01000184 	movi	r4,6
  800668:	100b883a 	mov	r5,r2
  80066c:	08004840 	call	800484 <LCD_WriteReg>
          LCD_WriteReg(0x07, Ypos );    
  800670:	e0bfff0b 	ldhu	r2,-4(fp)
  800674:	010001c4 	movi	r4,7
  800678:	100b883a 	mov	r5,r2
  80067c:	08004840 	call	800484 <LCD_WriteReg>
    
          break;     
  800680:	00000106 	br	800688 <LCD_SetCursor+0x134>
     case SSD2119:   /* 3.5 LCD 0x9919 */
          break; 
  800684:	0001883a 	nop
  }
}
  800688:	e037883a 	mov	sp,fp
  80068c:	dfc00117 	ldw	ra,4(sp)
  800690:	df000017 	ldw	fp,0(sp)
  800694:	dec00204 	addi	sp,sp,8
  800698:	f800283a 	ret

0080069c <LCD_Initializtion>:
* Output         : None
* Return         : None
* Attention      : None
*******************************************************************************/
void LCD_Initializtion(void)
{
  80069c:	defffd04 	addi	sp,sp,-12
  8006a0:	dfc00215 	stw	ra,8(sp)
  8006a4:	df000115 	stw	fp,4(sp)
  8006a8:	df000104 	addi	fp,sp,4
    alt_u16 DeviceCode;

   // LCD_Configuration();
     Clr_RST ;      /* LCD_RESET *////0
  8006ac:	0007883a 	mov	r3,zero
  8006b0:	00804034 	movhi	r2,256
  8006b4:	10882804 	addi	r2,r2,8352
  8006b8:	10c00035 	stwio	r3,0(r2)
    delay_ms(100);
  8006bc:	01001904 	movi	r4,100
  8006c0:	08025d00 	call	8025d0 <delay_ms>
     Set_RST;    /////////1
  8006c4:	00c00044 	movi	r3,1
  8006c8:	00804034 	movhi	r2,256
  8006cc:	10882804 	addi	r2,r2,8352
  8006d0:	10c00035 	stwio	r3,0(r2)

    /* Set MN(multipliers) of PLL, VCO = crystal freq * (N+1) */
    /* PLL freq = VCO/M with 250MHz < VCO < 800MHz */
    /* The max PLL freq is around 120MHz. To obtain 120MHz as the PLL freq */

    DeviceCode = LCD_ReadReg(0x0000);       /* Read LCD ID  */                 
  8006d4:	0009883a 	mov	r4,zero
  8006d8:	08004f00 	call	8004f0 <LCD_ReadReg>
  8006dc:	e0bfff0d 	sth	r2,-4(fp)
    
    /*For ILI9325*/ 
    if( DeviceCode == 0x9325 || DeviceCode == 0x9328 )  
  8006e0:	e0ffff0b 	ldhu	r3,-4(fp)
  8006e4:	00a4c954 	movui	r2,37669
  8006e8:	18800326 	beq	r3,r2,8006f8 <LCD_Initializtion+0x5c>
  8006ec:	e0ffff0b 	ldhu	r3,-4(fp)
  8006f0:	00a4ca14 	movui	r2,37672
  8006f4:	1880b71e 	bne	r3,r2,8009d4 <LCD_Initializtion+0x338>
    {
        LCD_Code = ILI9325;
  8006f8:	00800044 	movi	r2,1
  8006fc:	d0a02f05 	stb	r2,-32580(gp)
        LCD_WriteReg(0x00e7,0x0010);      
  800700:	010039c4 	movi	r4,231
  800704:	01400404 	movi	r5,16
  800708:	08004840 	call	800484 <LCD_WriteReg>
        LCD_WriteReg(0x0000,0x0001);    /* start internal osc */
  80070c:	0009883a 	mov	r4,zero
  800710:	01400044 	movi	r5,1
  800714:	08004840 	call	800484 <LCD_WriteReg>
        LCD_WriteReg(0x0001,0x0100);     
  800718:	01000044 	movi	r4,1
  80071c:	01404004 	movi	r5,256
  800720:	08004840 	call	800484 <LCD_WriteReg>
        LCD_WriteReg(0x0002,0x0700);    /* power on sequence */
  800724:	01000084 	movi	r4,2
  800728:	0141c004 	movi	r5,1792
  80072c:	08004840 	call	800484 <LCD_WriteReg>
        LCD_WriteReg(0x0003,(1<<12)|(1<<5)|(1<<4)|(0<<3) );     /* importance */
  800730:	010000c4 	movi	r4,3
  800734:	01440c04 	movi	r5,4144
  800738:	08004840 	call	800484 <LCD_WriteReg>
        LCD_WriteReg(0x0004,0x0000);                                   
  80073c:	01000104 	movi	r4,4
  800740:	000b883a 	mov	r5,zero
  800744:	08004840 	call	800484 <LCD_WriteReg>
        LCD_WriteReg(0x0008,0x0207);               
  800748:	01000204 	movi	r4,8
  80074c:	014081c4 	movi	r5,519
  800750:	08004840 	call	800484 <LCD_WriteReg>
        LCD_WriteReg(0x0009,0x0000);         
  800754:	01000244 	movi	r4,9
  800758:	000b883a 	mov	r5,zero
  80075c:	08004840 	call	800484 <LCD_WriteReg>
        LCD_WriteReg(0x000a,0x0000);    /* display setting */        
  800760:	01000284 	movi	r4,10
  800764:	000b883a 	mov	r5,zero
  800768:	08004840 	call	800484 <LCD_WriteReg>
        LCD_WriteReg(0x000c,0x0001);    /* display setting */        
  80076c:	01000304 	movi	r4,12
  800770:	01400044 	movi	r5,1
  800774:	08004840 	call	800484 <LCD_WriteReg>
        LCD_WriteReg(0x000d,0x0000);                    
  800778:	01000344 	movi	r4,13
  80077c:	000b883a 	mov	r5,zero
  800780:	08004840 	call	800484 <LCD_WriteReg>
        LCD_WriteReg(0x000f,0x0000);
  800784:	010003c4 	movi	r4,15
  800788:	000b883a 	mov	r5,zero
  80078c:	08004840 	call	800484 <LCD_WriteReg>
        /* Power On sequence */
        LCD_WriteReg(0x0010,0x0000);   
  800790:	01000404 	movi	r4,16
  800794:	000b883a 	mov	r5,zero
  800798:	08004840 	call	800484 <LCD_WriteReg>
        LCD_WriteReg(0x0011,0x0007);
  80079c:	01000444 	movi	r4,17
  8007a0:	014001c4 	movi	r5,7
  8007a4:	08004840 	call	800484 <LCD_WriteReg>
        LCD_WriteReg(0x0012,0x0000);                                                                 
  8007a8:	01000484 	movi	r4,18
  8007ac:	000b883a 	mov	r5,zero
  8007b0:	08004840 	call	800484 <LCD_WriteReg>
        LCD_WriteReg(0x0013,0x0000);                 
  8007b4:	010004c4 	movi	r4,19
  8007b8:	000b883a 	mov	r5,zero
  8007bc:	08004840 	call	800484 <LCD_WriteReg>
        delay_ms(50);  /* delay 50 ms */        
  8007c0:	01000c84 	movi	r4,50
  8007c4:	08025d00 	call	8025d0 <delay_ms>
        LCD_WriteReg(0x0010,0x1590);   
  8007c8:	01000404 	movi	r4,16
  8007cc:	01456404 	movi	r5,5520
  8007d0:	08004840 	call	800484 <LCD_WriteReg>
        LCD_WriteReg(0x0011,0x0227);
  8007d4:	01000444 	movi	r4,17
  8007d8:	014089c4 	movi	r5,551
  8007dc:	08004840 	call	800484 <LCD_WriteReg>
        delay_ms(50);  /* delay 50 ms */        
  8007e0:	01000c84 	movi	r4,50
  8007e4:	08025d00 	call	8025d0 <delay_ms>
        LCD_WriteReg(0x0012,0x009c);                  
  8007e8:	01000484 	movi	r4,18
  8007ec:	01402704 	movi	r5,156
  8007f0:	08004840 	call	800484 <LCD_WriteReg>
        delay_ms(50);  /* delay 50 ms */        
  8007f4:	01000c84 	movi	r4,50
  8007f8:	08025d00 	call	8025d0 <delay_ms>
        LCD_WriteReg(0x0013,0x1900);   
  8007fc:	010004c4 	movi	r4,19
  800800:	01464004 	movi	r5,6400
  800804:	08004840 	call	800484 <LCD_WriteReg>
        LCD_WriteReg(0x0029,0x0023);
  800808:	01000a44 	movi	r4,41
  80080c:	014008c4 	movi	r5,35
  800810:	08004840 	call	800484 <LCD_WriteReg>
        LCD_WriteReg(0x002b,0x000e);
  800814:	01000ac4 	movi	r4,43
  800818:	01400384 	movi	r5,14
  80081c:	08004840 	call	800484 <LCD_WriteReg>
        delay_ms(50);  /* delay 50 ms */        
  800820:	01000c84 	movi	r4,50
  800824:	08025d00 	call	8025d0 <delay_ms>
        LCD_WriteReg(0x0020,0x0000);                                                            
  800828:	01000804 	movi	r4,32
  80082c:	000b883a 	mov	r5,zero
  800830:	08004840 	call	800484 <LCD_WriteReg>
        LCD_WriteReg(0x0021,0x0000);           
  800834:	01000844 	movi	r4,33
  800838:	000b883a 	mov	r5,zero
  80083c:	08004840 	call	800484 <LCD_WriteReg>
        delay_ms(50);  /* delay 50 ms */        
  800840:	01000c84 	movi	r4,50
  800844:	08025d00 	call	8025d0 <delay_ms>
        LCD_WriteReg(0x0030,0x0007); 
  800848:	01000c04 	movi	r4,48
  80084c:	014001c4 	movi	r5,7
  800850:	08004840 	call	800484 <LCD_WriteReg>
        LCD_WriteReg(0x0031,0x0707);   
  800854:	01000c44 	movi	r4,49
  800858:	0141c1c4 	movi	r5,1799
  80085c:	08004840 	call	800484 <LCD_WriteReg>
        LCD_WriteReg(0x0032,0x0006);
  800860:	01000c84 	movi	r4,50
  800864:	01400184 	movi	r5,6
  800868:	08004840 	call	800484 <LCD_WriteReg>
        LCD_WriteReg(0x0035,0x0704);
  80086c:	01000d44 	movi	r4,53
  800870:	0141c104 	movi	r5,1796
  800874:	08004840 	call	800484 <LCD_WriteReg>
        LCD_WriteReg(0x0036,0x1f04); 
  800878:	01000d84 	movi	r4,54
  80087c:	0147c104 	movi	r5,7940
  800880:	08004840 	call	800484 <LCD_WriteReg>
        LCD_WriteReg(0x0037,0x0004);
  800884:	01000dc4 	movi	r4,55
  800888:	01400104 	movi	r5,4
  80088c:	08004840 	call	800484 <LCD_WriteReg>
        LCD_WriteReg(0x0038,0x0000);        
  800890:	01000e04 	movi	r4,56
  800894:	000b883a 	mov	r5,zero
  800898:	08004840 	call	800484 <LCD_WriteReg>
        LCD_WriteReg(0x0039,0x0706);     
  80089c:	01000e44 	movi	r4,57
  8008a0:	0141c184 	movi	r5,1798
  8008a4:	08004840 	call	800484 <LCD_WriteReg>
        LCD_WriteReg(0x003c,0x0701);
  8008a8:	01000f04 	movi	r4,60
  8008ac:	0141c044 	movi	r5,1793
  8008b0:	08004840 	call	800484 <LCD_WriteReg>
        LCD_WriteReg(0x003d,0x000f);
  8008b4:	01000f44 	movi	r4,61
  8008b8:	014003c4 	movi	r5,15
  8008bc:	08004840 	call	800484 <LCD_WriteReg>
        delay_ms(50);  /* delay 50 ms */        
  8008c0:	01000c84 	movi	r4,50
  8008c4:	08025d00 	call	8025d0 <delay_ms>
        LCD_WriteReg(0x0050,0x0000);        
  8008c8:	01001404 	movi	r4,80
  8008cc:	000b883a 	mov	r5,zero
  8008d0:	08004840 	call	800484 <LCD_WriteReg>
        LCD_WriteReg(0x0051,0x00ef);   
  8008d4:	01001444 	movi	r4,81
  8008d8:	01403bc4 	movi	r5,239
  8008dc:	08004840 	call	800484 <LCD_WriteReg>
        LCD_WriteReg(0x0052,0x0000);     
  8008e0:	01001484 	movi	r4,82
  8008e4:	000b883a 	mov	r5,zero
  8008e8:	08004840 	call	800484 <LCD_WriteReg>
        LCD_WriteReg(0x0053,0x013f);
  8008ec:	010014c4 	movi	r4,83
  8008f0:	01404fc4 	movi	r5,319
  8008f4:	08004840 	call	800484 <LCD_WriteReg>
        LCD_WriteReg(0x0060,0xa700);        
  8008f8:	01001804 	movi	r4,96
  8008fc:	0169c014 	movui	r5,42752
  800900:	08004840 	call	800484 <LCD_WriteReg>
        LCD_WriteReg(0x0061,0x0001); 
  800904:	01001844 	movi	r4,97
  800908:	01400044 	movi	r5,1
  80090c:	08004840 	call	800484 <LCD_WriteReg>
        LCD_WriteReg(0x006a,0x0000);
  800910:	01001a84 	movi	r4,106
  800914:	000b883a 	mov	r5,zero
  800918:	08004840 	call	800484 <LCD_WriteReg>
        LCD_WriteReg(0x0080,0x0000);
  80091c:	01002004 	movi	r4,128
  800920:	000b883a 	mov	r5,zero
  800924:	08004840 	call	800484 <LCD_WriteReg>
        LCD_WriteReg(0x0081,0x0000);
  800928:	01002044 	movi	r4,129
  80092c:	000b883a 	mov	r5,zero
  800930:	08004840 	call	800484 <LCD_WriteReg>
        LCD_WriteReg(0x0082,0x0000);
  800934:	01002084 	movi	r4,130
  800938:	000b883a 	mov	r5,zero
  80093c:	08004840 	call	800484 <LCD_WriteReg>
        LCD_WriteReg(0x0083,0x0000);
  800940:	010020c4 	movi	r4,131
  800944:	000b883a 	mov	r5,zero
  800948:	08004840 	call	800484 <LCD_WriteReg>
        LCD_WriteReg(0x0084,0x0000);
  80094c:	01002104 	movi	r4,132
  800950:	000b883a 	mov	r5,zero
  800954:	08004840 	call	800484 <LCD_WriteReg>
        LCD_WriteReg(0x0085,0x0000);
  800958:	01002144 	movi	r4,133
  80095c:	000b883a 	mov	r5,zero
  800960:	08004840 	call	800484 <LCD_WriteReg>
          
        LCD_WriteReg(0x0090,0x0010);     
  800964:	01002404 	movi	r4,144
  800968:	01400404 	movi	r5,16
  80096c:	08004840 	call	800484 <LCD_WriteReg>
        LCD_WriteReg(0x0092,0x0000);  
  800970:	01002484 	movi	r4,146
  800974:	000b883a 	mov	r5,zero
  800978:	08004840 	call	800484 <LCD_WriteReg>
        LCD_WriteReg(0x0093,0x0003);
  80097c:	010024c4 	movi	r4,147
  800980:	014000c4 	movi	r5,3
  800984:	08004840 	call	800484 <LCD_WriteReg>
        LCD_WriteReg(0x0095,0x0110);
  800988:	01002544 	movi	r4,149
  80098c:	01404404 	movi	r5,272
  800990:	08004840 	call	800484 <LCD_WriteReg>
        LCD_WriteReg(0x0097,0x0000);        
  800994:	010025c4 	movi	r4,151
  800998:	000b883a 	mov	r5,zero
  80099c:	08004840 	call	800484 <LCD_WriteReg>
        LCD_WriteReg(0x0098,0x0000);  
  8009a0:	01002604 	movi	r4,152
  8009a4:	000b883a 	mov	r5,zero
  8009a8:	08004840 	call	800484 <LCD_WriteReg>
        /* display on sequence */    
        LCD_WriteReg(0x0007,0x0133);
  8009ac:	010001c4 	movi	r4,7
  8009b0:	01404cc4 	movi	r5,307
  8009b4:	08004840 	call	800484 <LCD_WriteReg>
        
        LCD_WriteReg(0x0020,0x0000);
  8009b8:	01000804 	movi	r4,32
  8009bc:	000b883a 	mov	r5,zero
  8009c0:	08004840 	call	800484 <LCD_WriteReg>
        LCD_WriteReg(0x0021,0x0000);
  8009c4:	01000844 	movi	r4,33
  8009c8:	000b883a 	mov	r5,zero
  8009cc:	08004840 	call	800484 <LCD_WriteReg>
  8009d0:	0000ce06 	br	800d0c <LCD_Initializtion+0x670>
    }
    else if( DeviceCode == 0x8989 )  /*For SSD1289*/
  8009d4:	e0ffff0b 	ldhu	r3,-4(fp)
  8009d8:	00a26254 	movui	r2,35209
  8009dc:	1880cb1e 	bne	r3,r2,800d0c <LCD_Initializtion+0x670>
    {
        LCD_Code = SSD1289;
  8009e0:	00800144 	movi	r2,5
  8009e4:	d0a02f05 	stb	r2,-32580(gp)
        LCD_WriteReg(0x0000,0x0001);    delay_ms(50);   /* Enable LCD Oscillator */
  8009e8:	0009883a 	mov	r4,zero
  8009ec:	01400044 	movi	r5,1
  8009f0:	08004840 	call	800484 <LCD_WriteReg>
  8009f4:	01000c84 	movi	r4,50
  8009f8:	08025d00 	call	8025d0 <delay_ms>
        LCD_WriteReg(0x0003,0xA8A4);    delay_ms(50);   
  8009fc:	010000c4 	movi	r4,3
  800a00:	016a2914 	movui	r5,43172
  800a04:	08004840 	call	800484 <LCD_WriteReg>
  800a08:	01000c84 	movi	r4,50
  800a0c:	08025d00 	call	8025d0 <delay_ms>
        LCD_WriteReg(0x000C,0x0000);    delay_ms(50);   
  800a10:	01000304 	movi	r4,12
  800a14:	000b883a 	mov	r5,zero
  800a18:	08004840 	call	800484 <LCD_WriteReg>
  800a1c:	01000c84 	movi	r4,50
  800a20:	08025d00 	call	8025d0 <delay_ms>
        LCD_WriteReg(0x000D,0x080C);    delay_ms(50);   
  800a24:	01000344 	movi	r4,13
  800a28:	01420304 	movi	r5,2060
  800a2c:	08004840 	call	800484 <LCD_WriteReg>
  800a30:	01000c84 	movi	r4,50
  800a34:	08025d00 	call	8025d0 <delay_ms>
        LCD_WriteReg(0x000E,0x2B00);    delay_ms(50);   
  800a38:	01000384 	movi	r4,14
  800a3c:	014ac004 	movi	r5,11008
  800a40:	08004840 	call	800484 <LCD_WriteReg>
  800a44:	01000c84 	movi	r4,50
  800a48:	08025d00 	call	8025d0 <delay_ms>
        LCD_WriteReg(0x001E,0x00B0);    delay_ms(50);   
  800a4c:	01000784 	movi	r4,30
  800a50:	01402c04 	movi	r5,176
  800a54:	08004840 	call	800484 <LCD_WriteReg>
  800a58:	01000c84 	movi	r4,50
  800a5c:	08025d00 	call	8025d0 <delay_ms>
        LCD_WriteReg(0x0001,0x2B3F);    delay_ms(50);   /* 320*240 0x2B3F */
  800a60:	01000044 	movi	r4,1
  800a64:	014acfc4 	movi	r5,11071
  800a68:	08004840 	call	800484 <LCD_WriteReg>
  800a6c:	01000c84 	movi	r4,50
  800a70:	08025d00 	call	8025d0 <delay_ms>
        LCD_WriteReg(0x0002,0x0600);    delay_ms(50);
  800a74:	01000084 	movi	r4,2
  800a78:	01418004 	movi	r5,1536
  800a7c:	08004840 	call	800484 <LCD_WriteReg>
  800a80:	01000c84 	movi	r4,50
  800a84:	08025d00 	call	8025d0 <delay_ms>
        LCD_WriteReg(0x0010,0x0000);    delay_ms(50);
  800a88:	01000404 	movi	r4,16
  800a8c:	000b883a 	mov	r5,zero
  800a90:	08004840 	call	800484 <LCD_WriteReg>
  800a94:	01000c84 	movi	r4,50
  800a98:	08025d00 	call	8025d0 <delay_ms>
        LCD_WriteReg(0x0011,0x6070);    delay_ms(50);
  800a9c:	01000444 	movi	r4,17
  800aa0:	01581c04 	movi	r5,24688
  800aa4:	08004840 	call	800484 <LCD_WriteReg>
  800aa8:	01000c84 	movi	r4,50
  800aac:	08025d00 	call	8025d0 <delay_ms>
        LCD_WriteReg(0x0005,0x0000);    delay_ms(50);
  800ab0:	01000144 	movi	r4,5
  800ab4:	000b883a 	mov	r5,zero
  800ab8:	08004840 	call	800484 <LCD_WriteReg>
  800abc:	01000c84 	movi	r4,50
  800ac0:	08025d00 	call	8025d0 <delay_ms>
        LCD_WriteReg(0x0006,0x0000);    delay_ms(50);
  800ac4:	01000184 	movi	r4,6
  800ac8:	000b883a 	mov	r5,zero
  800acc:	08004840 	call	800484 <LCD_WriteReg>
  800ad0:	01000c84 	movi	r4,50
  800ad4:	08025d00 	call	8025d0 <delay_ms>
        LCD_WriteReg(0x0016,0xEF1C);    delay_ms(50);
  800ad8:	01000584 	movi	r4,22
  800adc:	017bc714 	movui	r5,61212
  800ae0:	08004840 	call	800484 <LCD_WriteReg>
  800ae4:	01000c84 	movi	r4,50
  800ae8:	08025d00 	call	8025d0 <delay_ms>
        LCD_WriteReg(0x0017,0x0003);    delay_ms(50);
  800aec:	010005c4 	movi	r4,23
  800af0:	014000c4 	movi	r5,3
  800af4:	08004840 	call	800484 <LCD_WriteReg>
  800af8:	01000c84 	movi	r4,50
  800afc:	08025d00 	call	8025d0 <delay_ms>
        LCD_WriteReg(0x0007,0x0133);    delay_ms(50);         
  800b00:	010001c4 	movi	r4,7
  800b04:	01404cc4 	movi	r5,307
  800b08:	08004840 	call	800484 <LCD_WriteReg>
  800b0c:	01000c84 	movi	r4,50
  800b10:	08025d00 	call	8025d0 <delay_ms>
        LCD_WriteReg(0x000B,0x0000);    delay_ms(50);
  800b14:	010002c4 	movi	r4,11
  800b18:	000b883a 	mov	r5,zero
  800b1c:	08004840 	call	800484 <LCD_WriteReg>
  800b20:	01000c84 	movi	r4,50
  800b24:	08025d00 	call	8025d0 <delay_ms>
        LCD_WriteReg(0x000F,0x0000);    delay_ms(50);
  800b28:	010003c4 	movi	r4,15
  800b2c:	000b883a 	mov	r5,zero
  800b30:	08004840 	call	800484 <LCD_WriteReg>
  800b34:	01000c84 	movi	r4,50
  800b38:	08025d00 	call	8025d0 <delay_ms>
        LCD_WriteReg(0x0041,0x0000);    delay_ms(50);
  800b3c:	01001044 	movi	r4,65
  800b40:	000b883a 	mov	r5,zero
  800b44:	08004840 	call	800484 <LCD_WriteReg>
  800b48:	01000c84 	movi	r4,50
  800b4c:	08025d00 	call	8025d0 <delay_ms>
        LCD_WriteReg(0x0042,0x0000);    delay_ms(50);
  800b50:	01001084 	movi	r4,66
  800b54:	000b883a 	mov	r5,zero
  800b58:	08004840 	call	800484 <LCD_WriteReg>
  800b5c:	01000c84 	movi	r4,50
  800b60:	08025d00 	call	8025d0 <delay_ms>
        LCD_WriteReg(0x0048,0x0000);    delay_ms(50);
  800b64:	01001204 	movi	r4,72
  800b68:	000b883a 	mov	r5,zero
  800b6c:	08004840 	call	800484 <LCD_WriteReg>
  800b70:	01000c84 	movi	r4,50
  800b74:	08025d00 	call	8025d0 <delay_ms>
        LCD_WriteReg(0x0049,0x013F);    delay_ms(50);
  800b78:	01001244 	movi	r4,73
  800b7c:	01404fc4 	movi	r5,319
  800b80:	08004840 	call	800484 <LCD_WriteReg>
  800b84:	01000c84 	movi	r4,50
  800b88:	08025d00 	call	8025d0 <delay_ms>
        LCD_WriteReg(0x004A,0x0000);    delay_ms(50);
  800b8c:	01001284 	movi	r4,74
  800b90:	000b883a 	mov	r5,zero
  800b94:	08004840 	call	800484 <LCD_WriteReg>
  800b98:	01000c84 	movi	r4,50
  800b9c:	08025d00 	call	8025d0 <delay_ms>
        LCD_WriteReg(0x004B,0x0000);    delay_ms(50);
  800ba0:	010012c4 	movi	r4,75
  800ba4:	000b883a 	mov	r5,zero
  800ba8:	08004840 	call	800484 <LCD_WriteReg>
  800bac:	01000c84 	movi	r4,50
  800bb0:	08025d00 	call	8025d0 <delay_ms>
        LCD_WriteReg(0x0044,0xEF00);    delay_ms(50);
  800bb4:	01001104 	movi	r4,68
  800bb8:	017bc014 	movui	r5,61184
  800bbc:	08004840 	call	800484 <LCD_WriteReg>
  800bc0:	01000c84 	movi	r4,50
  800bc4:	08025d00 	call	8025d0 <delay_ms>
        LCD_WriteReg(0x0045,0x0000);    delay_ms(50);
  800bc8:	01001144 	movi	r4,69
  800bcc:	000b883a 	mov	r5,zero
  800bd0:	08004840 	call	800484 <LCD_WriteReg>
  800bd4:	01000c84 	movi	r4,50
  800bd8:	08025d00 	call	8025d0 <delay_ms>
        LCD_WriteReg(0x0046,0x013F);    delay_ms(50);
  800bdc:	01001184 	movi	r4,70
  800be0:	01404fc4 	movi	r5,319
  800be4:	08004840 	call	800484 <LCD_WriteReg>
  800be8:	01000c84 	movi	r4,50
  800bec:	08025d00 	call	8025d0 <delay_ms>
        LCD_WriteReg(0x0030,0x0707);    delay_ms(50);
  800bf0:	01000c04 	movi	r4,48
  800bf4:	0141c1c4 	movi	r5,1799
  800bf8:	08004840 	call	800484 <LCD_WriteReg>
  800bfc:	01000c84 	movi	r4,50
  800c00:	08025d00 	call	8025d0 <delay_ms>
        LCD_WriteReg(0x0031,0x0204);    delay_ms(50);
  800c04:	01000c44 	movi	r4,49
  800c08:	01408104 	movi	r5,516
  800c0c:	08004840 	call	800484 <LCD_WriteReg>
  800c10:	01000c84 	movi	r4,50
  800c14:	08025d00 	call	8025d0 <delay_ms>
        LCD_WriteReg(0x0032,0x0204);    delay_ms(50);
  800c18:	01000c84 	movi	r4,50
  800c1c:	01408104 	movi	r5,516
  800c20:	08004840 	call	800484 <LCD_WriteReg>
  800c24:	01000c84 	movi	r4,50
  800c28:	08025d00 	call	8025d0 <delay_ms>
        LCD_WriteReg(0x0033,0x0502);    delay_ms(50);
  800c2c:	01000cc4 	movi	r4,51
  800c30:	01414084 	movi	r5,1282
  800c34:	08004840 	call	800484 <LCD_WriteReg>
  800c38:	01000c84 	movi	r4,50
  800c3c:	08025d00 	call	8025d0 <delay_ms>
        LCD_WriteReg(0x0034,0x0507);    delay_ms(50);
  800c40:	01000d04 	movi	r4,52
  800c44:	014141c4 	movi	r5,1287
  800c48:	08004840 	call	800484 <LCD_WriteReg>
  800c4c:	01000c84 	movi	r4,50
  800c50:	08025d00 	call	8025d0 <delay_ms>
        LCD_WriteReg(0x0035,0x0204);    delay_ms(50);
  800c54:	01000d44 	movi	r4,53
  800c58:	01408104 	movi	r5,516
  800c5c:	08004840 	call	800484 <LCD_WriteReg>
  800c60:	01000c84 	movi	r4,50
  800c64:	08025d00 	call	8025d0 <delay_ms>
        LCD_WriteReg(0x0036,0x0204);    delay_ms(50);
  800c68:	01000d84 	movi	r4,54
  800c6c:	01408104 	movi	r5,516
  800c70:	08004840 	call	800484 <LCD_WriteReg>
  800c74:	01000c84 	movi	r4,50
  800c78:	08025d00 	call	8025d0 <delay_ms>
        LCD_WriteReg(0x0037,0x0502);    delay_ms(50);
  800c7c:	01000dc4 	movi	r4,55
  800c80:	01414084 	movi	r5,1282
  800c84:	08004840 	call	800484 <LCD_WriteReg>
  800c88:	01000c84 	movi	r4,50
  800c8c:	08025d00 	call	8025d0 <delay_ms>
        LCD_WriteReg(0x003A,0x0302);    delay_ms(50);
  800c90:	01000e84 	movi	r4,58
  800c94:	0140c084 	movi	r5,770
  800c98:	08004840 	call	800484 <LCD_WriteReg>
  800c9c:	01000c84 	movi	r4,50
  800ca0:	08025d00 	call	8025d0 <delay_ms>
        LCD_WriteReg(0x003B,0x0302);    delay_ms(50);
  800ca4:	01000ec4 	movi	r4,59
  800ca8:	0140c084 	movi	r5,770
  800cac:	08004840 	call	800484 <LCD_WriteReg>
  800cb0:	01000c84 	movi	r4,50
  800cb4:	08025d00 	call	8025d0 <delay_ms>
        LCD_WriteReg(0x0023,0x0000);    delay_ms(50);
  800cb8:	010008c4 	movi	r4,35
  800cbc:	000b883a 	mov	r5,zero
  800cc0:	08004840 	call	800484 <LCD_WriteReg>
  800cc4:	01000c84 	movi	r4,50
  800cc8:	08025d00 	call	8025d0 <delay_ms>
        LCD_WriteReg(0x0024,0x0000);    delay_ms(50);
  800ccc:	01000904 	movi	r4,36
  800cd0:	000b883a 	mov	r5,zero
  800cd4:	08004840 	call	800484 <LCD_WriteReg>
  800cd8:	01000c84 	movi	r4,50
  800cdc:	08025d00 	call	8025d0 <delay_ms>
        LCD_WriteReg(0x0025,0x8000);    delay_ms(50);
  800ce0:	01000944 	movi	r4,37
  800ce4:	01600014 	movui	r5,32768
  800ce8:	08004840 	call	800484 <LCD_WriteReg>
  800cec:	01000c84 	movi	r4,50
  800cf0:	08025d00 	call	8025d0 <delay_ms>
        LCD_WriteReg(0x004f,0);
  800cf4:	010013c4 	movi	r4,79
  800cf8:	000b883a 	mov	r5,zero
  800cfc:	08004840 	call	800484 <LCD_WriteReg>
        LCD_WriteReg(0x004e,0);
  800d00:	01001384 	movi	r4,78
  800d04:	000b883a 	mov	r5,zero
  800d08:	08004840 	call	800484 <LCD_WriteReg>
    }
     
    delay_ms(50);   /* delay 50 ms */       
  800d0c:	01000c84 	movi	r4,50
  800d10:	08025d00 	call	8025d0 <delay_ms>
}
  800d14:	e037883a 	mov	sp,fp
  800d18:	dfc00117 	ldw	ra,4(sp)
  800d1c:	df000017 	ldw	fp,0(sp)
  800d20:	dec00204 	addi	sp,sp,8
  800d24:	f800283a 	ret

00800d28 <LCD_Clear>:
* Output         : None
* Return         : None
* Attention      : None
*******************************************************************************/
void LCD_Clear(alt_u16 Color)
{
  800d28:	defffc04 	addi	sp,sp,-16
  800d2c:	dfc00315 	stw	ra,12(sp)
  800d30:	df000215 	stw	fp,8(sp)
  800d34:	df000204 	addi	fp,sp,8
  800d38:	2005883a 	mov	r2,r4
  800d3c:	e0bfff0d 	sth	r2,-4(fp)
    alt_u32 index=0;
  800d40:	e03ffe15 	stw	zero,-8(fp)
    
    if( LCD_Code == HX8347D || LCD_Code == HX8347A )
  800d44:	d0a02f03 	ldbu	r2,-32580(gp)
  800d48:	10803fcc 	andi	r2,r2,255
  800d4c:	108002a0 	cmpeqi	r2,r2,10
  800d50:	1000041e 	bne	r2,zero,800d64 <LCD_Clear+0x3c>
  800d54:	d0a02f03 	ldbu	r2,-32580(gp)
  800d58:	10803fcc 	andi	r2,r2,255
  800d5c:	108002d8 	cmpnei	r2,r2,11
  800d60:	1000191e 	bne	r2,zero,800dc8 <LCD_Clear+0xa0>
    {
        LCD_WriteReg(0x02,0x00);                                                  
  800d64:	01000084 	movi	r4,2
  800d68:	000b883a 	mov	r5,zero
  800d6c:	08004840 	call	800484 <LCD_WriteReg>
        LCD_WriteReg(0x03,0x00);  
  800d70:	010000c4 	movi	r4,3
  800d74:	000b883a 	mov	r5,zero
  800d78:	08004840 	call	800484 <LCD_WriteReg>
                        
        LCD_WriteReg(0x04,0x00);                           
  800d7c:	01000104 	movi	r4,4
  800d80:	000b883a 	mov	r5,zero
  800d84:	08004840 	call	800484 <LCD_WriteReg>
        LCD_WriteReg(0x05,0xEF);  
  800d88:	01000144 	movi	r4,5
  800d8c:	01403bc4 	movi	r5,239
  800d90:	08004840 	call	800484 <LCD_WriteReg>
                         
        LCD_WriteReg(0x06,0x00);                           
  800d94:	01000184 	movi	r4,6
  800d98:	000b883a 	mov	r5,zero
  800d9c:	08004840 	call	800484 <LCD_WriteReg>
        LCD_WriteReg(0x07,0x00);    
  800da0:	010001c4 	movi	r4,7
  800da4:	000b883a 	mov	r5,zero
  800da8:	08004840 	call	800484 <LCD_WriteReg>
                       
        LCD_WriteReg(0x08,0x01);                           
  800dac:	01000204 	movi	r4,8
  800db0:	01400044 	movi	r5,1
  800db4:	08004840 	call	800484 <LCD_WriteReg>
        LCD_WriteReg(0x09,0x3F);     
  800db8:	01000244 	movi	r4,9
  800dbc:	01400fc4 	movi	r5,63
  800dc0:	08004840 	call	800484 <LCD_WriteReg>
  800dc4:	00000306 	br	800dd4 <LCD_Clear+0xac>
    }
    else
    {   
        LCD_SetCursor(0,0); 
  800dc8:	0009883a 	mov	r4,zero
  800dcc:	000b883a 	mov	r5,zero
  800dd0:	08005540 	call	800554 <LCD_SetCursor>
    }   
    Clr_Cs; 
  800dd4:	0007883a 	mov	r3,zero
  800dd8:	00804034 	movhi	r2,256
  800ddc:	10881804 	addi	r2,r2,8288
  800de0:	10c00035 	stwio	r3,0(r2)
    LCD_WriteIndex(0x0022);
  800de4:	01000884 	movi	r4,34
  800de8:	08002ec0 	call	8002ec <LCD_WriteIndex>
    for( index = 0; index < MAX_X * MAX_Y; index++ )
  800dec:	e03ffe15 	stw	zero,-8(fp)
  800df0:	00000606 	br	800e0c <LCD_Clear+0xe4>
    {
        LCD_WriteData(Color);
  800df4:	e0bfff0b 	ldhu	r2,-4(fp)
  800df8:	1009883a 	mov	r4,r2
  800dfc:	08003700 	call	800370 <LCD_WriteData>
    {   
        LCD_SetCursor(0,0); 
    }   
    Clr_Cs; 
    LCD_WriteIndex(0x0022);
    for( index = 0; index < MAX_X * MAX_Y; index++ )
  800e00:	e0bffe17 	ldw	r2,-8(fp)
  800e04:	10800044 	addi	r2,r2,1
  800e08:	e0bffe15 	stw	r2,-8(fp)
  800e0c:	e0fffe17 	ldw	r3,-8(fp)
  800e10:	00800074 	movhi	r2,1
  800e14:	108affc4 	addi	r2,r2,11263
  800e18:	10fff62e 	bgeu	r2,r3,800df4 <__reset+0xff7ffdf4>
    {
        LCD_WriteData(Color);
    }
    Set_Cs;
  800e1c:	00c00044 	movi	r3,1
  800e20:	00804034 	movhi	r2,256
  800e24:	10881804 	addi	r2,r2,8288
  800e28:	10c00035 	stwio	r3,0(r2)
}
  800e2c:	e037883a 	mov	sp,fp
  800e30:	dfc00117 	ldw	ra,4(sp)
  800e34:	df000017 	ldw	fp,0(sp)
  800e38:	dec00204 	addi	sp,sp,8
  800e3c:	f800283a 	ret

00800e40 <LCD_show_test>:
void LCD_show_test()
{ alt_u32 index=0,i;
  800e40:	defffc04 	addi	sp,sp,-16
  800e44:	dfc00315 	stw	ra,12(sp)
  800e48:	df000215 	stw	fp,8(sp)
  800e4c:	df000204 	addi	fp,sp,8
  800e50:	e03ffe15 	stw	zero,-8(fp)
    if( LCD_Code == HX8347D || LCD_Code == HX8347A )
  800e54:	d0a02f03 	ldbu	r2,-32580(gp)
  800e58:	10803fcc 	andi	r2,r2,255
  800e5c:	108002a0 	cmpeqi	r2,r2,10
  800e60:	1000041e 	bne	r2,zero,800e74 <LCD_show_test+0x34>
  800e64:	d0a02f03 	ldbu	r2,-32580(gp)
  800e68:	10803fcc 	andi	r2,r2,255
  800e6c:	108002d8 	cmpnei	r2,r2,11
  800e70:	1000191e 	bne	r2,zero,800ed8 <LCD_show_test+0x98>
    {
        LCD_WriteReg(0x02,0x00);                                                  
  800e74:	01000084 	movi	r4,2
  800e78:	000b883a 	mov	r5,zero
  800e7c:	08004840 	call	800484 <LCD_WriteReg>
        LCD_WriteReg(0x03,0x00);  
  800e80:	010000c4 	movi	r4,3
  800e84:	000b883a 	mov	r5,zero
  800e88:	08004840 	call	800484 <LCD_WriteReg>
                        
        LCD_WriteReg(0x04,0x00);                           
  800e8c:	01000104 	movi	r4,4
  800e90:	000b883a 	mov	r5,zero
  800e94:	08004840 	call	800484 <LCD_WriteReg>
        LCD_WriteReg(0x05,0xEF);  
  800e98:	01000144 	movi	r4,5
  800e9c:	01403bc4 	movi	r5,239
  800ea0:	08004840 	call	800484 <LCD_WriteReg>
                         
        LCD_WriteReg(0x06,0x00);                           
  800ea4:	01000184 	movi	r4,6
  800ea8:	000b883a 	mov	r5,zero
  800eac:	08004840 	call	800484 <LCD_WriteReg>
        LCD_WriteReg(0x07,0x00);    
  800eb0:	010001c4 	movi	r4,7
  800eb4:	000b883a 	mov	r5,zero
  800eb8:	08004840 	call	800484 <LCD_WriteReg>
                       
        LCD_WriteReg(0x08,0x01);                           
  800ebc:	01000204 	movi	r4,8
  800ec0:	01400044 	movi	r5,1
  800ec4:	08004840 	call	800484 <LCD_WriteReg>
        LCD_WriteReg(0x09,0x3F);     
  800ec8:	01000244 	movi	r4,9
  800ecc:	01400fc4 	movi	r5,63
  800ed0:	08004840 	call	800484 <LCD_WriteReg>
  800ed4:	00000306 	br	800ee4 <LCD_show_test+0xa4>
    }
    else
    {   
        LCD_SetCursor(0,0); 
  800ed8:	0009883a 	mov	r4,zero
  800edc:	000b883a 	mov	r5,zero
  800ee0:	08005540 	call	800554 <LCD_SetCursor>
    }   
    Clr_Cs; 
  800ee4:	0007883a 	mov	r3,zero
  800ee8:	00804034 	movhi	r2,256
  800eec:	10881804 	addi	r2,r2,8288
  800ef0:	10c00035 	stwio	r3,0(r2)
    LCD_WriteIndex(0x0022);
  800ef4:	01000884 	movi	r4,34
  800ef8:	08002ec0 	call	8002ec <LCD_WriteIndex>
  for( i = 0; i< 8; i++ )
  800efc:	e03fff15 	stw	zero,-4(fp)
  800f00:	00001806 	br	800f64 <LCD_show_test+0x124>
    for( index = i*40 * 240; index < (i+1)*40 * 240; index++ )
  800f04:	e0bfff17 	ldw	r2,-4(fp)
  800f08:	10896024 	muli	r2,r2,9600
  800f0c:	e0bffe15 	stw	r2,-8(fp)
  800f10:	00000c06 	br	800f44 <LCD_show_test+0x104>
    {
        LCD_WriteData(colorfol1[i]);
  800f14:	00802074 	movhi	r2,129
  800f18:	108ca804 	addi	r2,r2,12960
  800f1c:	e0ffff17 	ldw	r3,-4(fp)
  800f20:	18c7883a 	add	r3,r3,r3
  800f24:	10c5883a 	add	r2,r2,r3
  800f28:	1080000b 	ldhu	r2,0(r2)
  800f2c:	10bfffcc 	andi	r2,r2,65535
  800f30:	1009883a 	mov	r4,r2
  800f34:	08003700 	call	800370 <LCD_WriteData>
        LCD_SetCursor(0,0); 
    }   
    Clr_Cs; 
    LCD_WriteIndex(0x0022);
  for( i = 0; i< 8; i++ )
    for( index = i*40 * 240; index < (i+1)*40 * 240; index++ )
  800f38:	e0bffe17 	ldw	r2,-8(fp)
  800f3c:	10800044 	addi	r2,r2,1
  800f40:	e0bffe15 	stw	r2,-8(fp)
  800f44:	e0bfff17 	ldw	r2,-4(fp)
  800f48:	10800044 	addi	r2,r2,1
  800f4c:	10896024 	muli	r2,r2,9600
  800f50:	e0fffe17 	ldw	r3,-8(fp)
  800f54:	18bfef36 	bltu	r3,r2,800f14 <__reset+0xff7fff14>
    {   
        LCD_SetCursor(0,0); 
    }   
    Clr_Cs; 
    LCD_WriteIndex(0x0022);
  for( i = 0; i< 8; i++ )
  800f58:	e0bfff17 	ldw	r2,-4(fp)
  800f5c:	10800044 	addi	r2,r2,1
  800f60:	e0bfff15 	stw	r2,-4(fp)
  800f64:	e0bfff17 	ldw	r2,-4(fp)
  800f68:	10800230 	cmpltui	r2,r2,8
  800f6c:	103fe51e 	bne	r2,zero,800f04 <__reset+0xff7fff04>
    for( index = i*40 * 240; index < (i+1)*40 * 240; index++ )
    {
        LCD_WriteData(colorfol1[i]);
    }
    while(1);
  800f70:	003fff06 	br	800f70 <__reset+0xff7fff70>

00800f74 <LCD_BGR2RGB>:
* Output         : None
* Return         : RGB color
* Attention      :
*******************************************************************************/
alt_u16 LCD_BGR2RGB(alt_u16 color)
{
  800f74:	defffc04 	addi	sp,sp,-16
  800f78:	df000315 	stw	fp,12(sp)
  800f7c:	df000304 	addi	fp,sp,12
  800f80:	2005883a 	mov	r2,r4
  800f84:	e0bfff0d 	sth	r2,-4(fp)
    alt_u16  r, g, b, rgb;
    
    b = ( color>>0 )  & 0x1f;
  800f88:	e0bfff0b 	ldhu	r2,-4(fp)
  800f8c:	108007cc 	andi	r2,r2,31
  800f90:	e0bffd0d 	sth	r2,-12(fp)
    g = ( color>>5 )  & 0x3f;
  800f94:	e0bfff0b 	ldhu	r2,-4(fp)
  800f98:	1004d17a 	srli	r2,r2,5
  800f9c:	10800fcc 	andi	r2,r2,63
  800fa0:	e0bffd8d 	sth	r2,-10(fp)
    r = ( color>>11 ) & 0x1f;
  800fa4:	e0bfff0b 	ldhu	r2,-4(fp)
  800fa8:	1004d2fa 	srli	r2,r2,11
  800fac:	e0bffe0d 	sth	r2,-8(fp)
    
    rgb =  (b<<11) + (g<<5) + (r<<0);
  800fb0:	e0bffd0b 	ldhu	r2,-12(fp)
  800fb4:	100492fa 	slli	r2,r2,11
  800fb8:	1007883a 	mov	r3,r2
  800fbc:	e0bffd8b 	ldhu	r2,-10(fp)
  800fc0:	1004917a 	slli	r2,r2,5
  800fc4:	1885883a 	add	r2,r3,r2
  800fc8:	1007883a 	mov	r3,r2
  800fcc:	e0bffe0b 	ldhu	r2,-8(fp)
  800fd0:	1885883a 	add	r2,r3,r2
  800fd4:	e0bffe8d 	sth	r2,-6(fp)
    
    return( rgb );
  800fd8:	e0bffe8b 	ldhu	r2,-6(fp)
}
  800fdc:	e037883a 	mov	sp,fp
  800fe0:	df000017 	ldw	fp,0(sp)
  800fe4:	dec00104 	addi	sp,sp,4
  800fe8:	f800283a 	ret

00800fec <LCD_GetPoint>:
* Output         : None
* Return         : Screen Color
* Attention      : None
*******************************************************************************/
alt_u16 LCD_GetPoint(alt_u16 Xpos,alt_u16 Ypos)
{
  800fec:	defffa04 	addi	sp,sp,-24
  800ff0:	dfc00515 	stw	ra,20(sp)
  800ff4:	df000415 	stw	fp,16(sp)
  800ff8:	df000404 	addi	fp,sp,16
  800ffc:	2007883a 	mov	r3,r4
  801000:	2805883a 	mov	r2,r5
  801004:	e0fffe0d 	sth	r3,-8(fp)
  801008:	e0bfff0d 	sth	r2,-4(fp)
    alt_u16 dummy;
    
    LCD_SetCursor(Xpos,Ypos);
  80100c:	e0fffe0b 	ldhu	r3,-8(fp)
  801010:	e0bfff0b 	ldhu	r2,-4(fp)
  801014:	1809883a 	mov	r4,r3
  801018:	100b883a 	mov	r5,r2
  80101c:	08005540 	call	800554 <LCD_SetCursor>
    Clr_Cs;
  801020:	0007883a 	mov	r3,zero
  801024:	00804034 	movhi	r2,256
  801028:	10881804 	addi	r2,r2,8288
  80102c:	10c00035 	stwio	r3,0(r2)
    LCD_WriteIndex(0x0022);  
  801030:	01000884 	movi	r4,34
  801034:	08002ec0 	call	8002ec <LCD_WriteIndex>
    
    switch( LCD_Code )
  801038:	d0a02f03 	ldbu	r2,-32580(gp)
  80103c:	10803fcc 	andi	r2,r2,255
  801040:	10bfff04 	addi	r2,r2,-4
  801044:	10c00268 	cmpgeui	r3,r2,9
  801048:	1800351e 	bne	r3,zero,801120 <LCD_GetPoint+0x134>
  80104c:	100690ba 	slli	r3,r2,2
  801050:	00802034 	movhi	r2,128
  801054:	10841904 	addi	r2,r2,4196
  801058:	1885883a 	add	r2,r3,r2
  80105c:	10800017 	ldw	r2,0(r2)
  801060:	1000683a 	jmp	r2
  801064:	00801088 	cmpgei	r2,zero,66
  801068:	00801088 	cmpgei	r2,zero,66
  80106c:	00801088 	cmpgei	r2,zero,66
  801070:	00801088 	cmpgei	r2,zero,66
  801074:	00801120 	cmpeqi	r2,zero,68
  801078:	00801120 	cmpeqi	r2,zero,68
  80107c:	008010b0 	cmpltui	r2,zero,66
  801080:	008010b0 	cmpltui	r2,zero,66
  801084:	00801088 	cmpgei	r2,zero,66
        case ST7781:
        case LGDP4531:
        case LGDP4535:
        case SSD1289:
        case SSD1298:
      dummy = LCD_ReadData();
  801088:	08003e40 	call	8003e4 <LCD_ReadData>
  80108c:	e0bffc0d 	sth	r2,-16(fp)
      dummy = LCD_ReadData(); 
  801090:	08003e40 	call	8003e4 <LCD_ReadData>
  801094:	e0bffc0d 	sth	r2,-16(fp)
      Set_Cs;   
  801098:	00c00044 	movi	r3,1
  80109c:	00804034 	movhi	r2,256
  8010a0:	10881804 	addi	r2,r2,8288
  8010a4:	10c00035 	stwio	r3,0(r2)
          return  dummy;          
  8010a8:	e0bffc0b 	ldhu	r2,-16(fp)
  8010ac:	00002706 	br	80114c <LCD_GetPoint+0x160>
    case HX8347A:
      case HX8347D:
    {
      alt_u8 red,green,blue;
      red = LCD_ReadData()>>3;
  8010b0:	08003e40 	call	8003e4 <LCD_ReadData>
  8010b4:	10bfffcc 	andi	r2,r2,65535
  8010b8:	1004d0fa 	srli	r2,r2,3
  8010bc:	e0bffc85 	stb	r2,-14(fp)
      green = LCD_ReadData()>>3; 
  8010c0:	08003e40 	call	8003e4 <LCD_ReadData>
  8010c4:	10bfffcc 	andi	r2,r2,65535
  8010c8:	1004d0fa 	srli	r2,r2,3
  8010cc:	e0bffcc5 	stb	r2,-13(fp)
      blue = LCD_ReadData()>>2; 
  8010d0:	08003e40 	call	8003e4 <LCD_ReadData>
  8010d4:	10bfffcc 	andi	r2,r2,65535
  8010d8:	1004d0ba 	srli	r2,r2,2
  8010dc:	e0bffd05 	stb	r2,-12(fp)
      dummy = ( green << 11 ) | (blue << 5 ) | red;
  8010e0:	e0bffcc3 	ldbu	r2,-13(fp)
  8010e4:	100492fa 	slli	r2,r2,11
  8010e8:	1007883a 	mov	r3,r2
  8010ec:	e0bffd03 	ldbu	r2,-12(fp)
  8010f0:	1004917a 	slli	r2,r2,5
  8010f4:	1884b03a 	or	r2,r3,r2
  8010f8:	1007883a 	mov	r3,r2
  8010fc:	e0bffc83 	ldbu	r2,-14(fp)
  801100:	1884b03a 	or	r2,r3,r2
  801104:	e0bffc0d 	sth	r2,-16(fp)
        }
      Set_Cs;   
  801108:	00c00044 	movi	r3,1
  80110c:	00804034 	movhi	r2,256
  801110:	10881804 	addi	r2,r2,8288
  801114:	10c00035 	stwio	r3,0(r2)
      return  dummy;
  801118:	e0bffc0b 	ldhu	r2,-16(fp)
  80111c:	00000b06 	br	80114c <LCD_GetPoint+0x160>
    default:    /* 0x9320 0x9325 0x9328 0x9331 0x5408 0x1505 0x0505 0x9919 */
      dummy = LCD_ReadData();
  801120:	08003e40 	call	8003e4 <LCD_ReadData>
  801124:	e0bffc0d 	sth	r2,-16(fp)
      dummy = LCD_ReadData(); 
  801128:	08003e40 	call	8003e4 <LCD_ReadData>
  80112c:	e0bffc0d 	sth	r2,-16(fp)
      Set_Cs;   
  801130:	00c00044 	movi	r3,1
  801134:	00804034 	movhi	r2,256
  801138:	10881804 	addi	r2,r2,8288
  80113c:	10c00035 	stwio	r3,0(r2)
      return  LCD_BGR2RGB( dummy );
  801140:	e0bffc0b 	ldhu	r2,-16(fp)
  801144:	1009883a 	mov	r4,r2
  801148:	0800f740 	call	800f74 <LCD_BGR2RGB>
    }
}
  80114c:	e037883a 	mov	sp,fp
  801150:	dfc00117 	ldw	ra,4(sp)
  801154:	df000017 	ldw	fp,0(sp)
  801158:	dec00204 	addi	sp,sp,8
  80115c:	f800283a 	ret

00801160 <LCD_SetPoint>:
* Output         : None
* Return         : None
* Attention      : None
*******************************************************************************/
void LCD_SetPoint(alt_u16 Xpos,alt_u16 Ypos,alt_u16 point)
{
  801160:	defffb04 	addi	sp,sp,-20
  801164:	dfc00415 	stw	ra,16(sp)
  801168:	df000315 	stw	fp,12(sp)
  80116c:	df000304 	addi	fp,sp,12
  801170:	2807883a 	mov	r3,r5
  801174:	3005883a 	mov	r2,r6
  801178:	e13ffd0d 	sth	r4,-12(fp)
  80117c:	e0fffe0d 	sth	r3,-8(fp)
  801180:	e0bfff0d 	sth	r2,-4(fp)
    if( Xpos >= MAX_X || Ypos >= MAX_Y )
  801184:	e0bffd0b 	ldhu	r2,-12(fp)
  801188:	10805028 	cmpgeui	r2,r2,320
  80118c:	1000031e 	bne	r2,zero,80119c <LCD_SetPoint+0x3c>
  801190:	e0bffe0b 	ldhu	r2,-8(fp)
  801194:	10803c30 	cmpltui	r2,r2,240
  801198:	1000011e 	bne	r2,zero,8011a0 <LCD_SetPoint+0x40>
    {
        return;
  80119c:	00000906 	br	8011c4 <LCD_SetPoint+0x64>
    }
    LCD_SetCursor(Xpos,Ypos);
  8011a0:	e0fffd0b 	ldhu	r3,-12(fp)
  8011a4:	e0bffe0b 	ldhu	r2,-8(fp)
  8011a8:	1809883a 	mov	r4,r3
  8011ac:	100b883a 	mov	r5,r2
  8011b0:	08005540 	call	800554 <LCD_SetCursor>
    LCD_WriteReg(0x0022,point);
  8011b4:	e0bfff0b 	ldhu	r2,-4(fp)
  8011b8:	01000884 	movi	r4,34
  8011bc:	100b883a 	mov	r5,r2
  8011c0:	08004840 	call	800484 <LCD_WriteReg>
}
  8011c4:	e037883a 	mov	sp,fp
  8011c8:	dfc00117 	ldw	ra,4(sp)
  8011cc:	df000017 	ldw	fp,0(sp)
  8011d0:	dec00204 	addi	sp,sp,8
  8011d4:	f800283a 	ret

008011d8 <LCD_DrawLine>:
* Output         : None
* Return         : None
* Attention      : None
*******************************************************************************/     
void LCD_DrawLine( alt_u16 x0, alt_u16 y0, alt_u16 x1, alt_u16 y1 , alt_u16 color )
{
  8011d8:	defff704 	addi	sp,sp,-36
  8011dc:	dfc00815 	stw	ra,32(sp)
  8011e0:	df000715 	stw	fp,28(sp)
  8011e4:	df000704 	addi	fp,sp,28
  8011e8:	2011883a 	mov	r8,r4
  8011ec:	3009883a 	mov	r4,r6
  8011f0:	3807883a 	mov	r3,r7
  8011f4:	e0800217 	ldw	r2,8(fp)
  8011f8:	e23ffb0d 	sth	r8,-20(fp)
  8011fc:	e17ffc0d 	sth	r5,-16(fp)
  801200:	e13ffd0d 	sth	r4,-12(fp)
  801204:	e0fffe0d 	sth	r3,-8(fp)
  801208:	e0bfff0d 	sth	r2,-4(fp)
  short dx,dy;
  short temp;

  if( x0 > x1 )
  80120c:	e0bffb0b 	ldhu	r2,-20(fp)
  801210:	e0fffd0b 	ldhu	r3,-12(fp)
  801214:	1880062e 	bgeu	r3,r2,801230 <LCD_DrawLine+0x58>
  {
    temp = x1;
  801218:	e0bffd0b 	ldhu	r2,-12(fp)
  80121c:	e0bff90d 	sth	r2,-28(fp)
    x1 = x0;
  801220:	e0bffb0b 	ldhu	r2,-20(fp)
  801224:	e0bffd0d 	sth	r2,-12(fp)
    x0 = temp;   
  801228:	e0bff90b 	ldhu	r2,-28(fp)
  80122c:	e0bffb0d 	sth	r2,-20(fp)
  }
  if( y0 > y1 )
  801230:	e0bffc0b 	ldhu	r2,-16(fp)
  801234:	e0fffe0b 	ldhu	r3,-8(fp)
  801238:	1880062e 	bgeu	r3,r2,801254 <LCD_DrawLine+0x7c>
  {
    temp = y1;
  80123c:	e0bffe0b 	ldhu	r2,-8(fp)
  801240:	e0bff90d 	sth	r2,-28(fp)
    y1 = y0;
  801244:	e0bffc0b 	ldhu	r2,-16(fp)
  801248:	e0bffe0d 	sth	r2,-8(fp)
    y0 = temp;   
  80124c:	e0bff90b 	ldhu	r2,-28(fp)
  801250:	e0bffc0d 	sth	r2,-16(fp)
  }

  dx = x1-x0;
  801254:	e0fffd0b 	ldhu	r3,-12(fp)
  801258:	e0bffb0b 	ldhu	r2,-20(fp)
  80125c:	1885c83a 	sub	r2,r3,r2
  801260:	e0bff98d 	sth	r2,-26(fp)
  dy = y1-y0;
  801264:	e0fffe0b 	ldhu	r3,-8(fp)
  801268:	e0bffc0b 	ldhu	r2,-16(fp)
  80126c:	1885c83a 	sub	r2,r3,r2
  801270:	e0bffa0d 	sth	r2,-24(fp)

  if( dx == 0 )
  801274:	e0bff98f 	ldh	r2,-26(fp)
  801278:	10000d1e 	bne	r2,zero,8012b0 <LCD_DrawLine+0xd8>
  {
    do
    { 
      LCD_SetPoint(x0, y0, color);
  80127c:	e13ffb0b 	ldhu	r4,-20(fp)
  801280:	e0fffc0b 	ldhu	r3,-16(fp)
  801284:	e0bfff0b 	ldhu	r2,-4(fp)
  801288:	180b883a 	mov	r5,r3
  80128c:	100d883a 	mov	r6,r2
  801290:	08011600 	call	801160 <LCD_SetPoint>
      y0++;
  801294:	e0bffc0b 	ldhu	r2,-16(fp)
  801298:	10800044 	addi	r2,r2,1
  80129c:	e0bffc0d 	sth	r2,-16(fp)
    }
    while( y1 >= y0 ); 
  8012a0:	e0fffe0b 	ldhu	r3,-8(fp)
  8012a4:	e0bffc0b 	ldhu	r2,-16(fp)
  8012a8:	18bff42e 	bgeu	r3,r2,80127c <__reset+0xff80027c>
    return; 
  8012ac:	00006d06 	br	801464 <LCD_DrawLine+0x28c>
  }
  if( dy == 0 )
  8012b0:	e0bffa0f 	ldh	r2,-24(fp)
  8012b4:	10000d1e 	bne	r2,zero,8012ec <LCD_DrawLine+0x114>
  {
    do
    {
      LCD_SetPoint(x0, y0, color);
  8012b8:	e13ffb0b 	ldhu	r4,-20(fp)
  8012bc:	e0fffc0b 	ldhu	r3,-16(fp)
  8012c0:	e0bfff0b 	ldhu	r2,-4(fp)
  8012c4:	180b883a 	mov	r5,r3
  8012c8:	100d883a 	mov	r6,r2
  8012cc:	08011600 	call	801160 <LCD_SetPoint>
      x0++;
  8012d0:	e0bffb0b 	ldhu	r2,-20(fp)
  8012d4:	10800044 	addi	r2,r2,1
  8012d8:	e0bffb0d 	sth	r2,-20(fp)
    }
    while( x1 >= x0 ); 
  8012dc:	e0fffd0b 	ldhu	r3,-12(fp)
  8012e0:	e0bffb0b 	ldhu	r2,-20(fp)
  8012e4:	18bff42e 	bgeu	r3,r2,8012b8 <__reset+0xff8002b8>
        return;
  8012e8:	00005e06 	br	801464 <LCD_DrawLine+0x28c>
  }

    /* Bresenham's line algorithm  */
  if( dx > dy )
  8012ec:	e0bff98f 	ldh	r2,-26(fp)
  8012f0:	e0fffa0f 	ldh	r3,-24(fp)
  8012f4:	18802e0e 	bge	r3,r2,8013b0 <LCD_DrawLine+0x1d8>
  {
    temp = 2 * dy - dx;
  8012f8:	e0bffa0b 	ldhu	r2,-24(fp)
  8012fc:	1085883a 	add	r2,r2,r2
  801300:	1007883a 	mov	r3,r2
  801304:	e0bff98b 	ldhu	r2,-26(fp)
  801308:	1885c83a 	sub	r2,r3,r2
  80130c:	e0bff90d 	sth	r2,-28(fp)
    while( x0 != x1 )
  801310:	00001d06 	br	801388 <LCD_DrawLine+0x1b0>
    {
        LCD_SetPoint(x0,y0,color);
  801314:	e13ffb0b 	ldhu	r4,-20(fp)
  801318:	e0fffc0b 	ldhu	r3,-16(fp)
  80131c:	e0bfff0b 	ldhu	r2,-4(fp)
  801320:	180b883a 	mov	r5,r3
  801324:	100d883a 	mov	r6,r2
  801328:	08011600 	call	801160 <LCD_SetPoint>
        x0++;
  80132c:	e0bffb0b 	ldhu	r2,-20(fp)
  801330:	10800044 	addi	r2,r2,1
  801334:	e0bffb0d 	sth	r2,-20(fp)
        if( temp > 0 )
  801338:	e0bff90f 	ldh	r2,-28(fp)
  80133c:	00800c0e 	bge	zero,r2,801370 <LCD_DrawLine+0x198>
        {
          y0++;
  801340:	e0bffc0b 	ldhu	r2,-16(fp)
  801344:	10800044 	addi	r2,r2,1
  801348:	e0bffc0d 	sth	r2,-16(fp)
          temp += 2 * dy - 2 * dx; 
  80134c:	e0fffa0f 	ldh	r3,-24(fp)
  801350:	e0bff98f 	ldh	r2,-26(fp)
  801354:	1885c83a 	sub	r2,r3,r2
  801358:	1085883a 	add	r2,r2,r2
  80135c:	1007883a 	mov	r3,r2
  801360:	e0bff90b 	ldhu	r2,-28(fp)
  801364:	1885883a 	add	r2,r3,r2
  801368:	e0bff90d 	sth	r2,-28(fp)
  80136c:	00000606 	br	801388 <LCD_DrawLine+0x1b0>
          }
      else         
      {
              temp += 2 * dy;
  801370:	e0bffa0b 	ldhu	r2,-24(fp)
  801374:	1085883a 	add	r2,r2,r2
  801378:	1007883a 	mov	r3,r2
  80137c:	e0bff90b 	ldhu	r2,-28(fp)
  801380:	1885883a 	add	r2,r3,r2
  801384:	e0bff90d 	sth	r2,-28(fp)

    /* Bresenham's line algorithm  */
  if( dx > dy )
  {
    temp = 2 * dy - dx;
    while( x0 != x1 )
  801388:	e0fffb0b 	ldhu	r3,-20(fp)
  80138c:	e0bffd0b 	ldhu	r2,-12(fp)
  801390:	18bfe01e 	bne	r3,r2,801314 <__reset+0xff800314>
      else         
      {
              temp += 2 * dy;
            }       
    }
    LCD_SetPoint(x0,y0,color);
  801394:	e13ffb0b 	ldhu	r4,-20(fp)
  801398:	e0fffc0b 	ldhu	r3,-16(fp)
  80139c:	e0bfff0b 	ldhu	r2,-4(fp)
  8013a0:	180b883a 	mov	r5,r3
  8013a4:	100d883a 	mov	r6,r2
  8013a8:	08011600 	call	801160 <LCD_SetPoint>
  8013ac:	00002d06 	br	801464 <LCD_DrawLine+0x28c>
  }  
  else
  {
    temp = 2 * dx - dy;
  8013b0:	e0bff98b 	ldhu	r2,-26(fp)
  8013b4:	1085883a 	add	r2,r2,r2
  8013b8:	1007883a 	mov	r3,r2
  8013bc:	e0bffa0b 	ldhu	r2,-24(fp)
  8013c0:	1885c83a 	sub	r2,r3,r2
  8013c4:	e0bff90d 	sth	r2,-28(fp)
    while( y0 != y1 )
  8013c8:	00001d06 	br	801440 <LCD_DrawLine+0x268>
    {
          LCD_SetPoint(x0,y0,color);     
  8013cc:	e13ffb0b 	ldhu	r4,-20(fp)
  8013d0:	e0fffc0b 	ldhu	r3,-16(fp)
  8013d4:	e0bfff0b 	ldhu	r2,-4(fp)
  8013d8:	180b883a 	mov	r5,r3
  8013dc:	100d883a 	mov	r6,r2
  8013e0:	08011600 	call	801160 <LCD_SetPoint>
      y0++;                 
  8013e4:	e0bffc0b 	ldhu	r2,-16(fp)
  8013e8:	10800044 	addi	r2,r2,1
  8013ec:	e0bffc0d 	sth	r2,-16(fp)
      if( temp > 0 )           
  8013f0:	e0bff90f 	ldh	r2,-28(fp)
  8013f4:	00800c0e 	bge	zero,r2,801428 <LCD_DrawLine+0x250>
      {
        x0++;               
  8013f8:	e0bffb0b 	ldhu	r2,-20(fp)
  8013fc:	10800044 	addi	r2,r2,1
  801400:	e0bffb0d 	sth	r2,-20(fp)
        temp+=2*dy-2*dx; 
  801404:	e0fffa0f 	ldh	r3,-24(fp)
  801408:	e0bff98f 	ldh	r2,-26(fp)
  80140c:	1885c83a 	sub	r2,r3,r2
  801410:	1085883a 	add	r2,r2,r2
  801414:	1007883a 	mov	r3,r2
  801418:	e0bff90b 	ldhu	r2,-28(fp)
  80141c:	1885883a 	add	r2,r3,r2
  801420:	e0bff90d 	sth	r2,-28(fp)
  801424:	00000606 	br	801440 <LCD_DrawLine+0x268>
      }
      else
            {
        temp += 2 * dy;
  801428:	e0bffa0b 	ldhu	r2,-24(fp)
  80142c:	1085883a 	add	r2,r2,r2
  801430:	1007883a 	mov	r3,r2
  801434:	e0bff90b 	ldhu	r2,-28(fp)
  801438:	1885883a 	add	r2,r3,r2
  80143c:	e0bff90d 	sth	r2,-28(fp)
    LCD_SetPoint(x0,y0,color);
  }  
  else
  {
    temp = 2 * dx - dy;
    while( y0 != y1 )
  801440:	e0fffc0b 	ldhu	r3,-16(fp)
  801444:	e0bffe0b 	ldhu	r2,-8(fp)
  801448:	18bfe01e 	bne	r3,r2,8013cc <__reset+0xff8003cc>
      else
            {
        temp += 2 * dy;
            }
    } 
    LCD_SetPoint(x0,y0,color);
  80144c:	e13ffb0b 	ldhu	r4,-20(fp)
  801450:	e0fffc0b 	ldhu	r3,-16(fp)
  801454:	e0bfff0b 	ldhu	r2,-4(fp)
  801458:	180b883a 	mov	r5,r3
  80145c:	100d883a 	mov	r6,r2
  801460:	08011600 	call	801160 <LCD_SetPoint>
    }
} 
  801464:	e037883a 	mov	sp,fp
  801468:	dfc00117 	ldw	ra,4(sp)
  80146c:	df000017 	ldw	fp,0(sp)
  801470:	dec00204 	addi	sp,sp,8
  801474:	f800283a 	ret

00801478 <PutChar>:
* Output         : None
* Return         : None
* Attention      : None
*******************************************************************************/
void PutChar( alt_u16 Xpos, alt_u16 Ypos, alt_u8 ASCI, alt_u16 charColor, alt_u16 bkColor )
{
  801478:	defff304 	addi	sp,sp,-52
  80147c:	dfc00c15 	stw	ra,48(sp)
  801480:	df000b15 	stw	fp,44(sp)
  801484:	df000b04 	addi	fp,sp,44
  801488:	2011883a 	mov	r8,r4
  80148c:	3009883a 	mov	r4,r6
  801490:	3807883a 	mov	r3,r7
  801494:	e0800217 	ldw	r2,8(fp)
  801498:	e23ffb0d 	sth	r8,-20(fp)
  80149c:	e17ffc0d 	sth	r5,-16(fp)
  8014a0:	e13ffd05 	stb	r4,-12(fp)
  8014a4:	e0fffe0d 	sth	r3,-8(fp)
  8014a8:	e0bfff0d 	sth	r2,-4(fp)
    alt_u16 i, j;
    alt_u8 buffer[16], tmp_char;
    GetASCIICode(buffer,ASCI);
  8014ac:	e0bffd03 	ldbu	r2,-12(fp)
  8014b0:	e0fff644 	addi	r3,fp,-39
  8014b4:	1809883a 	mov	r4,r3
  8014b8:	100b883a 	mov	r5,r2
  8014bc:	08002880 	call	800288 <GetASCIICode>
    for( i=0; i<16; i++ )
  8014c0:	e03ff50d 	sth	zero,-44(fp)
  8014c4:	00003006 	br	801588 <PutChar+0x110>
    {
        tmp_char = buffer[i];
  8014c8:	e0bff50b 	ldhu	r2,-44(fp)
  8014cc:	e0fff644 	addi	r3,fp,-39
  8014d0:	1885883a 	add	r2,r3,r2
  8014d4:	10800003 	ldbu	r2,0(r2)
  8014d8:	e0bff605 	stb	r2,-40(fp)
        for( j=0; j<8; j++ )
  8014dc:	e03ff58d 	sth	zero,-42(fp)
  8014e0:	00002306 	br	801570 <PutChar+0xf8>
        {
            if( (tmp_char >> 7 - j) & 0x01 == 0x01 )
  8014e4:	e0fff603 	ldbu	r3,-40(fp)
  8014e8:	e0bff58b 	ldhu	r2,-42(fp)
  8014ec:	010001c4 	movi	r4,7
  8014f0:	2085c83a 	sub	r2,r4,r2
  8014f4:	1885d83a 	sra	r2,r3,r2
  8014f8:	1080004c 	andi	r2,r2,1
  8014fc:	10000d26 	beq	r2,zero,801534 <PutChar+0xbc>
            {
                LCD_SetPoint( Xpos + j, Ypos + i, charColor );
  801500:	e0fffb0b 	ldhu	r3,-20(fp)
  801504:	e0bff58b 	ldhu	r2,-42(fp)
  801508:	1885883a 	add	r2,r3,r2
  80150c:	113fffcc 	andi	r4,r2,65535
  801510:	e0fffc0b 	ldhu	r3,-16(fp)
  801514:	e0bff50b 	ldhu	r2,-44(fp)
  801518:	1885883a 	add	r2,r3,r2
  80151c:	10ffffcc 	andi	r3,r2,65535
  801520:	e0bffe0b 	ldhu	r2,-8(fp)
  801524:	180b883a 	mov	r5,r3
  801528:	100d883a 	mov	r6,r2
  80152c:	08011600 	call	801160 <LCD_SetPoint>
  801530:	00000c06 	br	801564 <PutChar+0xec>
            }
            else
            {
                LCD_SetPoint( Xpos + j, Ypos + i, bkColor );
  801534:	e0fffb0b 	ldhu	r3,-20(fp)
  801538:	e0bff58b 	ldhu	r2,-42(fp)
  80153c:	1885883a 	add	r2,r3,r2
  801540:	113fffcc 	andi	r4,r2,65535
  801544:	e0fffc0b 	ldhu	r3,-16(fp)
  801548:	e0bff50b 	ldhu	r2,-44(fp)
  80154c:	1885883a 	add	r2,r3,r2
  801550:	10ffffcc 	andi	r3,r2,65535
  801554:	e0bfff0b 	ldhu	r2,-4(fp)
  801558:	180b883a 	mov	r5,r3
  80155c:	100d883a 	mov	r6,r2
  801560:	08011600 	call	801160 <LCD_SetPoint>
    alt_u8 buffer[16], tmp_char;
    GetASCIICode(buffer,ASCI);
    for( i=0; i<16; i++ )
    {
        tmp_char = buffer[i];
        for( j=0; j<8; j++ )
  801564:	e0bff58b 	ldhu	r2,-42(fp)
  801568:	10800044 	addi	r2,r2,1
  80156c:	e0bff58d 	sth	r2,-42(fp)
  801570:	e0bff58b 	ldhu	r2,-42(fp)
  801574:	10800230 	cmpltui	r2,r2,8
  801578:	103fda1e 	bne	r2,zero,8014e4 <__reset+0xff8004e4>
void PutChar( alt_u16 Xpos, alt_u16 Ypos, alt_u8 ASCI, alt_u16 charColor, alt_u16 bkColor )
{
    alt_u16 i, j;
    alt_u8 buffer[16], tmp_char;
    GetASCIICode(buffer,ASCI);
    for( i=0; i<16; i++ )
  80157c:	e0bff50b 	ldhu	r2,-44(fp)
  801580:	10800044 	addi	r2,r2,1
  801584:	e0bff50d 	sth	r2,-44(fp)
  801588:	e0bff50b 	ldhu	r2,-44(fp)
  80158c:	10800430 	cmpltui	r2,r2,16
  801590:	103fcd1e 	bne	r2,zero,8014c8 <__reset+0xff8004c8>
            {
                LCD_SetPoint( Xpos + j, Ypos + i, bkColor );
            }
        }
    }
}
  801594:	e037883a 	mov	sp,fp
  801598:	dfc00117 	ldw	ra,4(sp)
  80159c:	df000017 	ldw	fp,0(sp)
  8015a0:	dec00204 	addi	sp,sp,8
  8015a4:	f800283a 	ret

008015a8 <GUI_Text>:
* Output         : None
* Return         : None
* Attention      : None
*******************************************************************************/
void GUI_Text(alt_u16 Xpos, alt_u16 Ypos, alt_u8 *str,alt_u16 Color, alt_u16 bkColor)
{
  8015a8:	defff704 	addi	sp,sp,-36
  8015ac:	dfc00815 	stw	ra,32(sp)
  8015b0:	df000715 	stw	fp,28(sp)
  8015b4:	df000704 	addi	fp,sp,28
  8015b8:	2011883a 	mov	r8,r4
  8015bc:	2809883a 	mov	r4,r5
  8015c0:	e1bffd15 	stw	r6,-12(fp)
  8015c4:	3807883a 	mov	r3,r7
  8015c8:	e0800217 	ldw	r2,8(fp)
  8015cc:	e23ffb0d 	sth	r8,-20(fp)
  8015d0:	e13ffc0d 	sth	r4,-16(fp)
  8015d4:	e0fffe0d 	sth	r3,-8(fp)
  8015d8:	e0bfff0d 	sth	r2,-4(fp)
    alt_u8 TempChar;
    do
    {
        TempChar = *str++;  
  8015dc:	e0bffd17 	ldw	r2,-12(fp)
  8015e0:	10c00044 	addi	r3,r2,1
  8015e4:	e0fffd15 	stw	r3,-12(fp)
  8015e8:	10800003 	ldbu	r2,0(r2)
  8015ec:	e0bffa05 	stb	r2,-24(fp)
        PutChar( Xpos, Ypos, TempChar, Color, bkColor );    
  8015f0:	e13ffb0b 	ldhu	r4,-20(fp)
  8015f4:	e17ffc0b 	ldhu	r5,-16(fp)
  8015f8:	e1bffa03 	ldbu	r6,-24(fp)
  8015fc:	e0fffe0b 	ldhu	r3,-8(fp)
  801600:	e0bfff0b 	ldhu	r2,-4(fp)
  801604:	d8800015 	stw	r2,0(sp)
  801608:	180f883a 	mov	r7,r3
  80160c:	08014780 	call	801478 <PutChar>
        if( Xpos < MAX_X - 8 )
  801610:	e0bffb0b 	ldhu	r2,-20(fp)
  801614:	10804e28 	cmpgeui	r2,r2,312
  801618:	1000041e 	bne	r2,zero,80162c <GUI_Text+0x84>
        {
            Xpos += 8;
  80161c:	e0bffb0b 	ldhu	r2,-20(fp)
  801620:	10800204 	addi	r2,r2,8
  801624:	e0bffb0d 	sth	r2,-20(fp)
  801628:	00000a06 	br	801654 <GUI_Text+0xac>
        } 
        else if ( Ypos < MAX_Y - 16 )
  80162c:	e0bffc0b 	ldhu	r2,-16(fp)
  801630:	10803828 	cmpgeui	r2,r2,224
  801634:	1000051e 	bne	r2,zero,80164c <GUI_Text+0xa4>
        {
            Xpos = 0;
  801638:	e03ffb0d 	sth	zero,-20(fp)
            Ypos += 16;
  80163c:	e0bffc0b 	ldhu	r2,-16(fp)
  801640:	10800404 	addi	r2,r2,16
  801644:	e0bffc0d 	sth	r2,-16(fp)
  801648:	00000206 	br	801654 <GUI_Text+0xac>
        }   
        else
        {
            Xpos = 0;
  80164c:	e03ffb0d 	sth	zero,-20(fp)
            Ypos = 0;
  801650:	e03ffc0d 	sth	zero,-16(fp)
        }    
    }
    while ( *str != 0 );
  801654:	e0bffd17 	ldw	r2,-12(fp)
  801658:	10800003 	ldbu	r2,0(r2)
  80165c:	10803fcc 	andi	r2,r2,255
  801660:	103fde1e 	bne	r2,zero,8015dc <__reset+0xff8005dc>
}
  801664:	e037883a 	mov	sp,fp
  801668:	dfc00117 	ldw	ra,4(sp)
  80166c:	df000017 	ldw	fp,0(sp)
  801670:	dec00204 	addi	sp,sp,8
  801674:	f800283a 	ret

00801678 <vid_draw_line>:

__inline__ void vid_draw_line(int horiz_start, int vert_start, int horiz_end, int vert_end, int width, int color)
{
  801678:	defff804 	addi	sp,sp,-32
  80167c:	dfc00715 	stw	ra,28(sp)
  801680:	df000615 	stw	fp,24(sp)
  801684:	df000604 	addi	fp,sp,24
  801688:	e13ffc15 	stw	r4,-16(fp)
  80168c:	e17ffd15 	stw	r5,-12(fp)
  801690:	e1bffe15 	stw	r6,-8(fp)
  801694:	e1ffff15 	stw	r7,-4(fp)

  if( vert_start == vert_end )
  801698:	e0fffd17 	ldw	r3,-12(fp)
  80169c:	e0bfff17 	ldw	r2,-4(fp)
  8016a0:	18800f1e 	bne	r3,r2,8016e0 <vid_draw_line+0x68>
//                         (unsigned short)horiz_end,
//                         (unsigned short)vert_start,
//                         color,
//                         display->buffer_ptrs[display->buffer_being_written]->buffer);

    vid_draw_horiz_line( (unsigned short)horiz_start,
  8016a4:	e0bffc17 	ldw	r2,-16(fp)
  8016a8:	113fffcc 	andi	r4,r2,65535
  8016ac:	2120001c 	xori	r4,r4,32768
  8016b0:	21200004 	addi	r4,r4,-32768
  8016b4:	e0bffe17 	ldw	r2,-8(fp)
  8016b8:	10ffffcc 	andi	r3,r2,65535
  8016bc:	18e0001c 	xori	r3,r3,32768
  8016c0:	18e00004 	addi	r3,r3,-32768
                         (unsigned short)horiz_end,
                         (unsigned short)vert_start,
  8016c4:	e0bffd17 	ldw	r2,-12(fp)
//                         (unsigned short)horiz_end,
//                         (unsigned short)vert_start,
//                         color,
//                         display->buffer_ptrs[display->buffer_being_written]->buffer);

    vid_draw_horiz_line( (unsigned short)horiz_start,
  8016c8:	10bfffcc 	andi	r2,r2,65535
  8016cc:	180b883a 	mov	r5,r3
  8016d0:	100d883a 	mov	r6,r2
  8016d4:	e1c00317 	ldw	r7,12(fp)
  8016d8:	08017840 	call	801784 <vid_draw_horiz_line>
  8016dc:	00000f06 	br	80171c <vid_draw_line+0xa4>
                         (unsigned short)vert_start,
                         color);
  }
  else
  {
    vid_draw_sloped_line( (unsigned short)horiz_start,
  8016e0:	e0bffc17 	ldw	r2,-16(fp)
  8016e4:	113fffcc 	andi	r4,r2,65535
                          (unsigned short)vert_start,
  8016e8:	e0bffd17 	ldw	r2,-12(fp)
                         (unsigned short)vert_start,
                         color);
  }
  else
  {
    vid_draw_sloped_line( (unsigned short)horiz_start,
  8016ec:	117fffcc 	andi	r5,r2,65535
                          (unsigned short)vert_start,
                          (unsigned short)horiz_end,
  8016f0:	e0bffe17 	ldw	r2,-8(fp)
                         (unsigned short)vert_start,
                         color);
  }
  else
  {
    vid_draw_sloped_line( (unsigned short)horiz_start,
  8016f4:	11bfffcc 	andi	r6,r2,65535
                          (unsigned short)vert_start,
                          (unsigned short)horiz_end,
                          (unsigned short)vert_end,
  8016f8:	e0bfff17 	ldw	r2,-4(fp)
                         (unsigned short)vert_start,
                         color);
  }
  else
  {
    vid_draw_sloped_line( (unsigned short)horiz_start,
  8016fc:	10ffffcc 	andi	r3,r2,65535
                          (unsigned short)vert_start,
                          (unsigned short)horiz_end,
                          (unsigned short)vert_end,
                          (unsigned short)width,
  801700:	e0800217 	ldw	r2,8(fp)
                         (unsigned short)vert_start,
                         color);
  }
  else
  {
    vid_draw_sloped_line( (unsigned short)horiz_start,
  801704:	10bfffcc 	andi	r2,r2,65535
  801708:	d8800015 	stw	r2,0(sp)
  80170c:	e0800317 	ldw	r2,12(fp)
  801710:	d8800115 	stw	r2,4(sp)
  801714:	180f883a 	mov	r7,r3
  801718:	08017f80 	call	8017f8 <vid_draw_sloped_line>
                          (unsigned short)horiz_end,
                          (unsigned short)vert_end,
                          (unsigned short)width,
                          color );
  }
}
  80171c:	e037883a 	mov	sp,fp
  801720:	dfc00117 	ldw	ra,4(sp)
  801724:	df000017 	ldw	fp,0(sp)
  801728:	dec00204 	addi	sp,sp,8
  80172c:	f800283a 	ret

00801730 <vid_set_pixel>:


void vid_set_pixel(int horiz, int vert, unsigned int color){
  801730:	defffb04 	addi	sp,sp,-20
  801734:	dfc00415 	stw	ra,16(sp)
  801738:	df000315 	stw	fp,12(sp)
  80173c:	df000304 	addi	fp,sp,12
  801740:	e13ffd15 	stw	r4,-12(fp)
  801744:	e17ffe15 	stw	r5,-8(fp)
  801748:	e1bfff15 	stw	r6,-4(fp)
	LCD_SetPoint(horiz,vert,color);
  80174c:	e0bffd17 	ldw	r2,-12(fp)
  801750:	113fffcc 	andi	r4,r2,65535
  801754:	e0bffe17 	ldw	r2,-8(fp)
  801758:	10ffffcc 	andi	r3,r2,65535
  80175c:	e0bfff17 	ldw	r2,-4(fp)
  801760:	10bfffcc 	andi	r2,r2,65535
  801764:	180b883a 	mov	r5,r3
  801768:	100d883a 	mov	r6,r2
  80176c:	08011600 	call	801160 <LCD_SetPoint>
}
  801770:	e037883a 	mov	sp,fp
  801774:	dfc00117 	ldw	ra,4(sp)
  801778:	df000017 	ldw	fp,0(sp)
  80177c:	dec00204 	addi	sp,sp,8
  801780:	f800283a 	ret

00801784 <vid_draw_horiz_line>:

void vid_draw_horiz_line (short Hstart, short Hend, int V, int color)
{
  801784:	defff904 	addi	sp,sp,-28
  801788:	dfc00615 	stw	ra,24(sp)
  80178c:	df000515 	stw	fp,20(sp)
  801790:	df000504 	addi	fp,sp,20
  801794:	2007883a 	mov	r3,r4
  801798:	2805883a 	mov	r2,r5
  80179c:	e1bffe15 	stw	r6,-8(fp)
  8017a0:	e1ffff15 	stw	r7,-4(fp)
  8017a4:	e0fffc0d 	sth	r3,-16(fp)
  8017a8:	e0bffd0d 	sth	r2,-12(fp)
	int x;
	for(x=Hstart;x<Hend;x++){
  8017ac:	e0bffc0f 	ldh	r2,-16(fp)
  8017b0:	e0bffb15 	stw	r2,-20(fp)
  8017b4:	00000806 	br	8017d8 <vid_draw_horiz_line+0x54>
		vid_set_pixel(x, V, color);
  8017b8:	e0bfff17 	ldw	r2,-4(fp)
  8017bc:	e13ffb17 	ldw	r4,-20(fp)
  8017c0:	e17ffe17 	ldw	r5,-8(fp)
  8017c4:	100d883a 	mov	r6,r2
  8017c8:	08017300 	call	801730 <vid_set_pixel>
}

void vid_draw_horiz_line (short Hstart, short Hend, int V, int color)
{
	int x;
	for(x=Hstart;x<Hend;x++){
  8017cc:	e0bffb17 	ldw	r2,-20(fp)
  8017d0:	10800044 	addi	r2,r2,1
  8017d4:	e0bffb15 	stw	r2,-20(fp)
  8017d8:	e0bffd0f 	ldh	r2,-12(fp)
  8017dc:	e0fffb17 	ldw	r3,-20(fp)
  8017e0:	18bff516 	blt	r3,r2,8017b8 <__reset+0xff8007b8>
		vid_set_pixel(x, V, color);
	}
}
  8017e4:	e037883a 	mov	sp,fp
  8017e8:	dfc00117 	ldw	ra,4(sp)
  8017ec:	df000017 	ldw	fp,0(sp)
  8017f0:	dec00204 	addi	sp,sp,8
  8017f4:	f800283a 	ret

008017f8 <vid_draw_sloped_line>:
                           unsigned short vert_start,
                           unsigned short horiz_end,
                           unsigned short vert_end,
                           unsigned short width,
                           int color)
{
  8017f8:	deffef04 	addi	sp,sp,-68
  8017fc:	dfc01015 	stw	ra,64(sp)
  801800:	df000f15 	stw	fp,60(sp)
  801804:	df000f04 	addi	fp,sp,60
  801808:	2011883a 	mov	r8,r4
  80180c:	3009883a 	mov	r4,r6
  801810:	3807883a 	mov	r3,r7
  801814:	e0800217 	ldw	r2,8(fp)
  801818:	e23ffb0d 	sth	r8,-20(fp)
  80181c:	e17ffc0d 	sth	r5,-16(fp)
  801820:	e13ffd0d 	sth	r4,-12(fp)
  801824:	e0fffe0d 	sth	r3,-8(fp)
  801828:	e0bfff0d 	sth	r2,-4(fp)
  // Find the vertical and horizontal distance between the two points
  int horiz_delta = abs(horiz_end-horiz_start);
  80182c:	e0fffd0b 	ldhu	r3,-12(fp)
  801830:	e0bffb0b 	ldhu	r2,-20(fp)
  801834:	1885c83a 	sub	r2,r3,r2
  801838:	1000010e 	bge	r2,zero,801840 <vid_draw_sloped_line+0x48>
  80183c:	0085c83a 	sub	r2,zero,r2
  801840:	e0bff115 	stw	r2,-60(fp)
  int vert_delta = abs(vert_end-vert_start);
  801844:	e0fffe0b 	ldhu	r3,-8(fp)
  801848:	e0bffc0b 	ldhu	r2,-16(fp)
  80184c:	1885c83a 	sub	r2,r3,r2
  801850:	1000010e 	bge	r2,zero,801858 <vid_draw_sloped_line+0x60>
  801854:	0085c83a 	sub	r2,zero,r2
  801858:	e0bff215 	stw	r2,-56(fp)

  // Find out what direction we are going
  int horiz_incr, vert_incr;
  if (horiz_start > horiz_end) { horiz_incr=-1; } else { horiz_incr=1; }
  80185c:	e0bffb0b 	ldhu	r2,-20(fp)
  801860:	e0fffd0b 	ldhu	r3,-12(fp)
  801864:	1880032e 	bgeu	r3,r2,801874 <vid_draw_sloped_line+0x7c>
  801868:	00bfffc4 	movi	r2,-1
  80186c:	e0bff315 	stw	r2,-52(fp)
  801870:	00000206 	br	80187c <vid_draw_sloped_line+0x84>
  801874:	00800044 	movi	r2,1
  801878:	e0bff315 	stw	r2,-52(fp)
  if (vert_start > vert_end) { vert_incr=-1; } else { vert_incr=1; }
  80187c:	e0bffc0b 	ldhu	r2,-16(fp)
  801880:	e0fffe0b 	ldhu	r3,-8(fp)
  801884:	1880032e 	bgeu	r3,r2,801894 <vid_draw_sloped_line+0x9c>
  801888:	00bfffc4 	movi	r2,-1
  80188c:	e0bff415 	stw	r2,-48(fp)
  801890:	00000206 	br	80189c <vid_draw_sloped_line+0xa4>
  801894:	00800044 	movi	r2,1
  801898:	e0bff415 	stw	r2,-48(fp)

  // Find out which axis is always incremented when drawing the line
  // If it's the horizontal axis
  if (horiz_delta >= vert_delta) {
  80189c:	e0fff117 	ldw	r3,-60(fp)
  8018a0:	e0bff217 	ldw	r2,-56(fp)
  8018a4:	18803516 	blt	r3,r2,80197c <vid_draw_sloped_line+0x184>
    int dPr   = vert_delta<<1;
  8018a8:	e0bff217 	ldw	r2,-56(fp)
  8018ac:	1085883a 	add	r2,r2,r2
  8018b0:	e0bff715 	stw	r2,-36(fp)
    int dPru  = dPr - (horiz_delta<<1);
  8018b4:	e0bff117 	ldw	r2,-60(fp)
  8018b8:	1085883a 	add	r2,r2,r2
  8018bc:	1007883a 	mov	r3,r2
  8018c0:	e0bff717 	ldw	r2,-36(fp)
  8018c4:	10c5c83a 	sub	r2,r2,r3
  8018c8:	e0bff815 	stw	r2,-32(fp)
    int P     = dPr - horiz_delta;
  8018cc:	e0fff717 	ldw	r3,-36(fp)
  8018d0:	e0bff117 	ldw	r2,-60(fp)
  8018d4:	1885c83a 	sub	r2,r3,r2
  8018d8:	e0bff515 	stw	r2,-44(fp)

    // Process the line, one horizontal point at at time
    for (; horiz_delta >= 0; horiz_delta--) {
  8018dc:	00002406 	br	801970 <vid_draw_sloped_line+0x178>
      // plot the pixel
      LCD_SetPoint(horiz_start,vert_start,color);
  8018e0:	e13ffb0b 	ldhu	r4,-20(fp)
  8018e4:	e0fffc0b 	ldhu	r3,-16(fp)
  8018e8:	e0800317 	ldw	r2,12(fp)
  8018ec:	10bfffcc 	andi	r2,r2,65535
  8018f0:	180b883a 	mov	r5,r3
  8018f4:	100d883a 	mov	r6,r2
  8018f8:	08011600 	call	801160 <LCD_SetPoint>
      // If we're moving both up and right
      if (P > 0) {
  8018fc:	e0bff517 	ldw	r2,-44(fp)
  801900:	00800f0e 	bge	zero,r2,801940 <vid_draw_sloped_line+0x148>
        horiz_start+=horiz_incr;
  801904:	e0bff317 	ldw	r2,-52(fp)
  801908:	1007883a 	mov	r3,r2
  80190c:	e0bffb0b 	ldhu	r2,-20(fp)
  801910:	1885883a 	add	r2,r3,r2
  801914:	e0bffb0d 	sth	r2,-20(fp)
        vert_start+=vert_incr;
  801918:	e0bff417 	ldw	r2,-48(fp)
  80191c:	1007883a 	mov	r3,r2
  801920:	e0bffc0b 	ldhu	r2,-16(fp)
  801924:	1885883a 	add	r2,r3,r2
  801928:	e0bffc0d 	sth	r2,-16(fp)
        P+=dPru;
  80192c:	e0fff517 	ldw	r3,-44(fp)
  801930:	e0bff817 	ldw	r2,-32(fp)
  801934:	1885883a 	add	r2,r3,r2
  801938:	e0bff515 	stw	r2,-44(fp)
  80193c:	00000906 	br	801964 <vid_draw_sloped_line+0x16c>
      } else {
        horiz_start+=horiz_incr;
  801940:	e0bff317 	ldw	r2,-52(fp)
  801944:	1007883a 	mov	r3,r2
  801948:	e0bffb0b 	ldhu	r2,-20(fp)
  80194c:	1885883a 	add	r2,r3,r2
  801950:	e0bffb0d 	sth	r2,-20(fp)
        P+=dPr;
  801954:	e0fff517 	ldw	r3,-44(fp)
  801958:	e0bff717 	ldw	r2,-36(fp)
  80195c:	1885883a 	add	r2,r3,r2
  801960:	e0bff515 	stw	r2,-44(fp)
    int dPr   = vert_delta<<1;
    int dPru  = dPr - (horiz_delta<<1);
    int P     = dPr - horiz_delta;

    // Process the line, one horizontal point at at time
    for (; horiz_delta >= 0; horiz_delta--) {
  801964:	e0bff117 	ldw	r2,-60(fp)
  801968:	10bfffc4 	addi	r2,r2,-1
  80196c:	e0bff115 	stw	r2,-60(fp)
  801970:	e0bff117 	ldw	r2,-60(fp)
  801974:	103fda0e 	bge	r2,zero,8018e0 <__reset+0xff8008e0>
  801978:	00003406 	br	801a4c <vid_draw_sloped_line+0x254>
        P+=dPr;
      }
    }
  // If it's the vertical axis
  } else {
    int dPr   = horiz_delta<<1;
  80197c:	e0bff117 	ldw	r2,-60(fp)
  801980:	1085883a 	add	r2,r2,r2
  801984:	e0bff915 	stw	r2,-28(fp)
    int dPru  = dPr - (vert_delta<<1);
  801988:	e0bff217 	ldw	r2,-56(fp)
  80198c:	1085883a 	add	r2,r2,r2
  801990:	1007883a 	mov	r3,r2
  801994:	e0bff917 	ldw	r2,-28(fp)
  801998:	10c5c83a 	sub	r2,r2,r3
  80199c:	e0bffa15 	stw	r2,-24(fp)
    int P     = dPr - vert_delta;
  8019a0:	e0fff917 	ldw	r3,-28(fp)
  8019a4:	e0bff217 	ldw	r2,-56(fp)
  8019a8:	1885c83a 	sub	r2,r3,r2
  8019ac:	e0bff615 	stw	r2,-40(fp)

    // Process the line, one vertical point at at time
    for (; vert_delta>=0; vert_delta--) {
  8019b0:	00002406 	br	801a44 <vid_draw_sloped_line+0x24c>
      // plot the pixel
      LCD_SetPoint(horiz_start,vert_start,color);
  8019b4:	e13ffb0b 	ldhu	r4,-20(fp)
  8019b8:	e0fffc0b 	ldhu	r3,-16(fp)
  8019bc:	e0800317 	ldw	r2,12(fp)
  8019c0:	10bfffcc 	andi	r2,r2,65535
  8019c4:	180b883a 	mov	r5,r3
  8019c8:	100d883a 	mov	r6,r2
  8019cc:	08011600 	call	801160 <LCD_SetPoint>
      // If we're moving both up and right
      if (P > 0) {
  8019d0:	e0bff617 	ldw	r2,-40(fp)
  8019d4:	00800f0e 	bge	zero,r2,801a14 <vid_draw_sloped_line+0x21c>
        horiz_start+=horiz_incr;
  8019d8:	e0bff317 	ldw	r2,-52(fp)
  8019dc:	1007883a 	mov	r3,r2
  8019e0:	e0bffb0b 	ldhu	r2,-20(fp)
  8019e4:	1885883a 	add	r2,r3,r2
  8019e8:	e0bffb0d 	sth	r2,-20(fp)
        vert_start+=vert_incr;
  8019ec:	e0bff417 	ldw	r2,-48(fp)
  8019f0:	1007883a 	mov	r3,r2
  8019f4:	e0bffc0b 	ldhu	r2,-16(fp)
  8019f8:	1885883a 	add	r2,r3,r2
  8019fc:	e0bffc0d 	sth	r2,-16(fp)
        P+=dPru;
  801a00:	e0fff617 	ldw	r3,-40(fp)
  801a04:	e0bffa17 	ldw	r2,-24(fp)
  801a08:	1885883a 	add	r2,r3,r2
  801a0c:	e0bff615 	stw	r2,-40(fp)
  801a10:	00000906 	br	801a38 <vid_draw_sloped_line+0x240>
      } else {
        vert_start+=vert_incr;
  801a14:	e0bff417 	ldw	r2,-48(fp)
  801a18:	1007883a 	mov	r3,r2
  801a1c:	e0bffc0b 	ldhu	r2,-16(fp)
  801a20:	1885883a 	add	r2,r3,r2
  801a24:	e0bffc0d 	sth	r2,-16(fp)
        P+=dPr;
  801a28:	e0fff617 	ldw	r3,-40(fp)
  801a2c:	e0bff917 	ldw	r2,-28(fp)
  801a30:	1885883a 	add	r2,r3,r2
  801a34:	e0bff615 	stw	r2,-40(fp)
    int dPr   = horiz_delta<<1;
    int dPru  = dPr - (vert_delta<<1);
    int P     = dPr - vert_delta;

    // Process the line, one vertical point at at time
    for (; vert_delta>=0; vert_delta--) {
  801a38:	e0bff217 	ldw	r2,-56(fp)
  801a3c:	10bfffc4 	addi	r2,r2,-1
  801a40:	e0bff215 	stw	r2,-56(fp)
  801a44:	e0bff217 	ldw	r2,-56(fp)
  801a48:	103fda0e 	bge	r2,zero,8019b4 <__reset+0xff8009b4>
        vert_start+=vert_incr;
        P+=dPr;
      }
    }
  }
}
  801a4c:	e037883a 	mov	sp,fp
  801a50:	dfc00117 	ldw	ra,4(sp)
  801a54:	df000017 	ldw	fp,0(sp)
  801a58:	dec00204 	addi	sp,sp,8
  801a5c:	f800283a 	ret

00801a60 <vid_draw_box>:
*  points.  The fill parameter tells the function whether or not
*  to fill in the box.  1 = fill, 0 = do not fill.
*
******************************************************************/
int vid_draw_box (int horiz_start, int vert_start, int horiz_end, int vert_end, int color,int fill)
{
  801a60:	defff804 	addi	sp,sp,-32
  801a64:	dfc00715 	stw	ra,28(sp)
  801a68:	df000615 	stw	fp,24(sp)
  801a6c:	df000604 	addi	fp,sp,24
  801a70:	e13ffc15 	stw	r4,-16(fp)
  801a74:	e17ffd15 	stw	r5,-12(fp)
  801a78:	e1bffe15 	stw	r6,-8(fp)
  801a7c:	e1ffff15 	stw	r7,-4(fp)

  // If we want to fill in our box
  if (fill) {
  801a80:	e0800317 	ldw	r2,12(fp)
  801a84:	10000826 	beq	r2,zero,801aa8 <vid_draw_box+0x48>
     vid_paint_block (horiz_start, vert_start, horiz_end, vert_end, color);
  801a88:	e0800217 	ldw	r2,8(fp)
  801a8c:	d8800015 	stw	r2,0(sp)
  801a90:	e13ffc17 	ldw	r4,-16(fp)
  801a94:	e17ffd17 	ldw	r5,-12(fp)
  801a98:	e1bffe17 	ldw	r6,-8(fp)
  801a9c:	e1ffff17 	ldw	r7,-4(fp)
  801aa0:	0801b800 	call	801b80 <vid_paint_block>
  801aa4:	00003006 	br	801b68 <vid_draw_box+0x108>
  // If we're not filling in the box, just draw four lines.
  } else {
    vid_draw_line(horiz_start, vert_start, horiz_start, vert_end-1, 1, color);
  801aa8:	e0bfff17 	ldw	r2,-4(fp)
  801aac:	10ffffc4 	addi	r3,r2,-1
  801ab0:	00800044 	movi	r2,1
  801ab4:	d8800015 	stw	r2,0(sp)
  801ab8:	e0800217 	ldw	r2,8(fp)
  801abc:	d8800115 	stw	r2,4(sp)
  801ac0:	e13ffc17 	ldw	r4,-16(fp)
  801ac4:	e17ffd17 	ldw	r5,-12(fp)
  801ac8:	e1bffc17 	ldw	r6,-16(fp)
  801acc:	180f883a 	mov	r7,r3
  801ad0:	08016780 	call	801678 <vid_draw_line>
    vid_draw_line(horiz_end-1, vert_start, horiz_end-1, vert_end-1, 1, color);
  801ad4:	e0bffe17 	ldw	r2,-8(fp)
  801ad8:	113fffc4 	addi	r4,r2,-1
  801adc:	e0bffe17 	ldw	r2,-8(fp)
  801ae0:	11bfffc4 	addi	r6,r2,-1
  801ae4:	e0bfff17 	ldw	r2,-4(fp)
  801ae8:	10ffffc4 	addi	r3,r2,-1
  801aec:	00800044 	movi	r2,1
  801af0:	d8800015 	stw	r2,0(sp)
  801af4:	e0800217 	ldw	r2,8(fp)
  801af8:	d8800115 	stw	r2,4(sp)
  801afc:	e17ffd17 	ldw	r5,-12(fp)
  801b00:	180f883a 	mov	r7,r3
  801b04:	08016780 	call	801678 <vid_draw_line>
    vid_draw_line(horiz_start, vert_start, horiz_end-1, vert_start, 1, color);
  801b08:	e0bffe17 	ldw	r2,-8(fp)
  801b0c:	10ffffc4 	addi	r3,r2,-1
  801b10:	00800044 	movi	r2,1
  801b14:	d8800015 	stw	r2,0(sp)
  801b18:	e0800217 	ldw	r2,8(fp)
  801b1c:	d8800115 	stw	r2,4(sp)
  801b20:	e13ffc17 	ldw	r4,-16(fp)
  801b24:	e17ffd17 	ldw	r5,-12(fp)
  801b28:	180d883a 	mov	r6,r3
  801b2c:	e1fffd17 	ldw	r7,-12(fp)
  801b30:	08016780 	call	801678 <vid_draw_line>
    vid_draw_line(horiz_start, vert_end-1, horiz_end-1, vert_end-1, 1, color);
  801b34:	e0bfff17 	ldw	r2,-4(fp)
  801b38:	117fffc4 	addi	r5,r2,-1
  801b3c:	e0bffe17 	ldw	r2,-8(fp)
  801b40:	11bfffc4 	addi	r6,r2,-1
  801b44:	e0bfff17 	ldw	r2,-4(fp)
  801b48:	10ffffc4 	addi	r3,r2,-1
  801b4c:	00800044 	movi	r2,1
  801b50:	d8800015 	stw	r2,0(sp)
  801b54:	e0800217 	ldw	r2,8(fp)
  801b58:	d8800115 	stw	r2,4(sp)
  801b5c:	e13ffc17 	ldw	r4,-16(fp)
  801b60:	180f883a 	mov	r7,r3
  801b64:	08016780 	call	801678 <vid_draw_line>
  }

  return (0);
  801b68:	0005883a 	mov	r2,zero
}
  801b6c:	e037883a 	mov	sp,fp
  801b70:	dfc00117 	ldw	ra,4(sp)
  801b74:	df000017 	ldw	fp,0(sp)
  801b78:	dec00204 	addi	sp,sp,8
  801b7c:	f800283a 	ret

00801b80 <vid_paint_block>:
*           The color parameter must contain two pixel's worth
*           (32 bits).
*
******************************************************************/
void vid_paint_block (int Hstart,int Vstart, int Hend, int Vend, int color)
{
  801b80:	defff804 	addi	sp,sp,-32
  801b84:	dfc00715 	stw	ra,28(sp)
  801b88:	df000615 	stw	fp,24(sp)
  801b8c:	df000604 	addi	fp,sp,24
  801b90:	e13ffc15 	stw	r4,-16(fp)
  801b94:	e17ffd15 	stw	r5,-12(fp)
  801b98:	e1bffe15 	stw	r6,-8(fp)
  801b9c:	e1ffff15 	stw	r7,-4(fp)
	int x,y;
	for(y=Vstart;y<Vend;y++){
  801ba0:	e0bffd17 	ldw	r2,-12(fp)
  801ba4:	e0bffb15 	stw	r2,-20(fp)
  801ba8:	00001106 	br	801bf0 <vid_paint_block+0x70>
		for(x=Hstart;x<Hend;x++){
  801bac:	e0bffc17 	ldw	r2,-16(fp)
  801bb0:	e0bffa15 	stw	r2,-24(fp)
  801bb4:	00000806 	br	801bd8 <vid_paint_block+0x58>
			vid_set_pixel(x, y, color);
  801bb8:	e0800217 	ldw	r2,8(fp)
  801bbc:	e13ffa17 	ldw	r4,-24(fp)
  801bc0:	e17ffb17 	ldw	r5,-20(fp)
  801bc4:	100d883a 	mov	r6,r2
  801bc8:	08017300 	call	801730 <vid_set_pixel>
******************************************************************/
void vid_paint_block (int Hstart,int Vstart, int Hend, int Vend, int color)
{
	int x,y;
	for(y=Vstart;y<Vend;y++){
		for(x=Hstart;x<Hend;x++){
  801bcc:	e0bffa17 	ldw	r2,-24(fp)
  801bd0:	10800044 	addi	r2,r2,1
  801bd4:	e0bffa15 	stw	r2,-24(fp)
  801bd8:	e0fffa17 	ldw	r3,-24(fp)
  801bdc:	e0bffe17 	ldw	r2,-8(fp)
  801be0:	18bff516 	blt	r3,r2,801bb8 <__reset+0xff800bb8>
*
******************************************************************/
void vid_paint_block (int Hstart,int Vstart, int Hend, int Vend, int color)
{
	int x,y;
	for(y=Vstart;y<Vend;y++){
  801be4:	e0bffb17 	ldw	r2,-20(fp)
  801be8:	10800044 	addi	r2,r2,1
  801bec:	e0bffb15 	stw	r2,-20(fp)
  801bf0:	e0fffb17 	ldw	r3,-20(fp)
  801bf4:	e0bfff17 	ldw	r2,-4(fp)
  801bf8:	18bfec16 	blt	r3,r2,801bac <__reset+0xff800bac>
		for(x=Hstart;x<Hend;x++){
			vid_set_pixel(x, y, color);
		}
	}
}
  801bfc:	e037883a 	mov	sp,fp
  801c00:	dfc00117 	ldw	ra,4(sp)
  801c04:	df000017 	ldw	fp,0(sp)
  801c08:	dec00204 	addi	sp,sp,8
  801c0c:	f800283a 	ret

00801c10 <vid_print_char>:
*           screen using the specified font and color.
*
******************************************************************/

int vid_print_char (int horiz_offset, int vert_offset, int color, char character, char *font)
{
  801c10:	defff704 	addi	sp,sp,-36
  801c14:	dfc00815 	stw	ra,32(sp)
  801c18:	df000715 	stw	fp,28(sp)
  801c1c:	df000704 	addi	fp,sp,28
  801c20:	e13ffc15 	stw	r4,-16(fp)
  801c24:	e17ffd15 	stw	r5,-12(fp)
  801c28:	e1bffe15 	stw	r6,-8(fp)
  801c2c:	3805883a 	mov	r2,r7
  801c30:	e0bfff05 	stb	r2,-4(fp)
  int i, j;

  char temp_char, char_row;

  // Convert the ASCII value to an array offset
  temp_char = (character - 0x20);
  801c34:	e0bfff03 	ldbu	r2,-4(fp)
  801c38:	10bff804 	addi	r2,r2,-32
  801c3c:	e0bffb05 	stb	r2,-20(fp)

  //Each character is 8 pixels wide and 11 tall.
  for(i = 0; i < 11; i++) {
  801c40:	e03ff915 	stw	zero,-28(fp)
  801c44:	00002406 	br	801cd8 <vid_print_char+0xc8>
      char_row = *(font + (temp_char * FONT_10PT_ROW) + i);
  801c48:	e0bffb07 	ldb	r2,-20(fp)
  801c4c:	108002e4 	muli	r2,r2,11
  801c50:	1007883a 	mov	r3,r2
  801c54:	e0bff917 	ldw	r2,-28(fp)
  801c58:	1885883a 	add	r2,r3,r2
  801c5c:	e0c00217 	ldw	r3,8(fp)
  801c60:	1885883a 	add	r2,r3,r2
  801c64:	10800003 	ldbu	r2,0(r2)
  801c68:	e0bffb45 	stb	r2,-19(fp)
    for (j = 0; j < 8; j++) {
  801c6c:	e03ffa15 	stw	zero,-24(fp)
  801c70:	00001306 	br	801cc0 <vid_print_char+0xb0>
      //If the font table says the pixel in this location is on for this character, then set it.
      if (char_row & (((unsigned char)0x80) >> j)) {
  801c74:	e0fffb47 	ldb	r3,-19(fp)
  801c78:	01002004 	movi	r4,128
  801c7c:	e0bffa17 	ldw	r2,-24(fp)
  801c80:	2085d83a 	sra	r2,r4,r2
  801c84:	1884703a 	and	r2,r3,r2
  801c88:	10000a26 	beq	r2,zero,801cb4 <vid_print_char+0xa4>
        vid_set_pixel((horiz_offset + j), (vert_offset + i), color); // plot the pixel
  801c8c:	e0fffc17 	ldw	r3,-16(fp)
  801c90:	e0bffa17 	ldw	r2,-24(fp)
  801c94:	1889883a 	add	r4,r3,r2
  801c98:	e0fffd17 	ldw	r3,-12(fp)
  801c9c:	e0bff917 	ldw	r2,-28(fp)
  801ca0:	1887883a 	add	r3,r3,r2
  801ca4:	e0bffe17 	ldw	r2,-8(fp)
  801ca8:	180b883a 	mov	r5,r3
  801cac:	100d883a 	mov	r6,r2
  801cb0:	08017300 	call	801730 <vid_set_pixel>
  temp_char = (character - 0x20);

  //Each character is 8 pixels wide and 11 tall.
  for(i = 0; i < 11; i++) {
      char_row = *(font + (temp_char * FONT_10PT_ROW) + i);
    for (j = 0; j < 8; j++) {
  801cb4:	e0bffa17 	ldw	r2,-24(fp)
  801cb8:	10800044 	addi	r2,r2,1
  801cbc:	e0bffa15 	stw	r2,-24(fp)
  801cc0:	e0bffa17 	ldw	r2,-24(fp)
  801cc4:	10800210 	cmplti	r2,r2,8
  801cc8:	103fea1e 	bne	r2,zero,801c74 <__reset+0xff800c74>

  // Convert the ASCII value to an array offset
  temp_char = (character - 0x20);

  //Each character is 8 pixels wide and 11 tall.
  for(i = 0; i < 11; i++) {
  801ccc:	e0bff917 	ldw	r2,-28(fp)
  801cd0:	10800044 	addi	r2,r2,1
  801cd4:	e0bff915 	stw	r2,-28(fp)
  801cd8:	e0bff917 	ldw	r2,-28(fp)
  801cdc:	108002d0 	cmplti	r2,r2,11
  801ce0:	103fd91e 	bne	r2,zero,801c48 <__reset+0xff800c48>
      if (char_row & (((unsigned char)0x80) >> j)) {
        vid_set_pixel((horiz_offset + j), (vert_offset + i), color); // plot the pixel
      }
    }
  }
  return(0);
  801ce4:	0005883a 	mov	r2,zero
}
  801ce8:	e037883a 	mov	sp,fp
  801cec:	dfc00117 	ldw	ra,4(sp)
  801cf0:	df000017 	ldw	fp,0(sp)
  801cf4:	dec00204 	addi	sp,sp,8
  801cf8:	f800283a 	ret

00801cfc <vid_print_string>:
*           using the specified font and color.
*           Calls vid_print_char
*
******************************************************************/
int vid_print_string(int horiz_offset, int vert_offset, int color, char *font, char string[])
{
  801cfc:	defff704 	addi	sp,sp,-36
  801d00:	dfc00815 	stw	ra,32(sp)
  801d04:	df000715 	stw	fp,28(sp)
  801d08:	df000704 	addi	fp,sp,28
  801d0c:	e13ffc15 	stw	r4,-16(fp)
  801d10:	e17ffd15 	stw	r5,-12(fp)
  801d14:	e1bffe15 	stw	r6,-8(fp)
  801d18:	e1ffff15 	stw	r7,-4(fp)
  int i = 0;
  801d1c:	e03ffa15 	stw	zero,-24(fp)
  int original_horiz_offset;

  original_horiz_offset = horiz_offset;
  801d20:	e0bffc17 	ldw	r2,-16(fp)
  801d24:	e0bffb15 	stw	r2,-20(fp)

  // Print until we hit the '\0' char.
  while (string[i]) {
  801d28:	00002606 	br	801dc4 <vid_print_string+0xc8>
    //Handle newline char here.
    if (string[i] == '\n') {
  801d2c:	e0bffa17 	ldw	r2,-24(fp)
  801d30:	e0c00217 	ldw	r3,8(fp)
  801d34:	1885883a 	add	r2,r3,r2
  801d38:	10800003 	ldbu	r2,0(r2)
  801d3c:	10803fcc 	andi	r2,r2,255
  801d40:	1080201c 	xori	r2,r2,128
  801d44:	10bfe004 	addi	r2,r2,-128
  801d48:	10800298 	cmpnei	r2,r2,10
  801d4c:	1000091e 	bne	r2,zero,801d74 <vid_print_string+0x78>
      horiz_offset = original_horiz_offset;
  801d50:	e0bffb17 	ldw	r2,-20(fp)
  801d54:	e0bffc15 	stw	r2,-16(fp)
      vert_offset += 12;
  801d58:	e0bffd17 	ldw	r2,-12(fp)
  801d5c:	10800304 	addi	r2,r2,12
  801d60:	e0bffd15 	stw	r2,-12(fp)
      i++;
  801d64:	e0bffa17 	ldw	r2,-24(fp)
  801d68:	10800044 	addi	r2,r2,1
  801d6c:	e0bffa15 	stw	r2,-24(fp)
      continue;
  801d70:	00001406 	br	801dc4 <vid_print_string+0xc8>
    }
    // Lay down that character and increment our offsets.
    vid_print_char (horiz_offset, vert_offset, color, string[i], font);
  801d74:	e0bffa17 	ldw	r2,-24(fp)
  801d78:	e0c00217 	ldw	r3,8(fp)
  801d7c:	1885883a 	add	r2,r3,r2
  801d80:	10800003 	ldbu	r2,0(r2)
  801d84:	10c03fcc 	andi	r3,r2,255
  801d88:	18c0201c 	xori	r3,r3,128
  801d8c:	18ffe004 	addi	r3,r3,-128
  801d90:	e0bfff17 	ldw	r2,-4(fp)
  801d94:	d8800015 	stw	r2,0(sp)
  801d98:	e13ffc17 	ldw	r4,-16(fp)
  801d9c:	e17ffd17 	ldw	r5,-12(fp)
  801da0:	e1bffe17 	ldw	r6,-8(fp)
  801da4:	180f883a 	mov	r7,r3
  801da8:	0801c100 	call	801c10 <vid_print_char>
    i++;
  801dac:	e0bffa17 	ldw	r2,-24(fp)
  801db0:	10800044 	addi	r2,r2,1
  801db4:	e0bffa15 	stw	r2,-24(fp)
    horiz_offset += 8;
  801db8:	e0bffc17 	ldw	r2,-16(fp)
  801dbc:	10800204 	addi	r2,r2,8
  801dc0:	e0bffc15 	stw	r2,-16(fp)
  int original_horiz_offset;

  original_horiz_offset = horiz_offset;

  // Print until we hit the '\0' char.
  while (string[i]) {
  801dc4:	e0bffa17 	ldw	r2,-24(fp)
  801dc8:	e0c00217 	ldw	r3,8(fp)
  801dcc:	1885883a 	add	r2,r3,r2
  801dd0:	10800003 	ldbu	r2,0(r2)
  801dd4:	10803fcc 	andi	r2,r2,255
  801dd8:	1080201c 	xori	r2,r2,128
  801ddc:	10bfe004 	addi	r2,r2,-128
  801de0:	103fd21e 	bne	r2,zero,801d2c <__reset+0xff800d2c>
    // Lay down that character and increment our offsets.
    vid_print_char (horiz_offset, vert_offset, color, string[i], font);
    i++;
    horiz_offset += 8;
  }
  return (0);
  801de4:	0005883a 	mov	r2,zero
}
  801de8:	e037883a 	mov	sp,fp
  801dec:	dfc00117 	ldw	ra,4(sp)
  801df0:	df000017 	ldw	fp,0(sp)
  801df4:	dec00204 	addi	sp,sp,8
  801df8:	f800283a 	ret

00801dfc <vid_draw_circle>:
*  tells the function whether or not to fill in the box.  1 = fill,
*  0 = do not fill.
*
******************************************************************/
int vid_draw_circle(int Hcenter, int Vcenter, int radius, int color, char fill)
{
  801dfc:	defff204 	addi	sp,sp,-56
  801e00:	dfc00d15 	stw	ra,52(sp)
  801e04:	df000c15 	stw	fp,48(sp)
  801e08:	df000c04 	addi	fp,sp,48
  801e0c:	e13ffb15 	stw	r4,-20(fp)
  801e10:	e17ffc15 	stw	r5,-16(fp)
  801e14:	e1bffd15 	stw	r6,-12(fp)
  801e18:	e1fffe15 	stw	r7,-8(fp)
  801e1c:	e0800217 	ldw	r2,8(fp)
  801e20:	e0bfff05 	stb	r2,-4(fp)
  int x = 0;
  801e24:	e03ff815 	stw	zero,-32(fp)
  int y = radius;
  801e28:	e0bffd17 	ldw	r2,-12(fp)
  801e2c:	e0bff915 	stw	r2,-28(fp)
  int p = (5 - radius*4)/4;
  801e30:	e0bffd17 	ldw	r2,-12(fp)
  801e34:	10bfff24 	muli	r2,r2,-4
  801e38:	10800144 	addi	r2,r2,5
  801e3c:	1000010e 	bge	r2,zero,801e44 <vid_draw_circle+0x48>
  801e40:	108000c4 	addi	r2,r2,3
  801e44:	1005d0ba 	srai	r2,r2,2
  801e48:	e0bffa15 	stw	r2,-24(fp)

  // Start the circle with the top, bottom, left, and right pixels.
  vid_round_corner_points(Hcenter, Vcenter, x, y, 0, 0, color, fill);
  801e4c:	e0bfff07 	ldb	r2,-4(fp)
  801e50:	d8000015 	stw	zero,0(sp)
  801e54:	d8000115 	stw	zero,4(sp)
  801e58:	e0fffe17 	ldw	r3,-8(fp)
  801e5c:	d8c00215 	stw	r3,8(sp)
  801e60:	d8800315 	stw	r2,12(sp)
  801e64:	e13ffb17 	ldw	r4,-20(fp)
  801e68:	e17ffc17 	ldw	r5,-16(fp)
  801e6c:	e1bff817 	ldw	r6,-32(fp)
  801e70:	e1fff917 	ldw	r7,-28(fp)
  801e74:	0801f280 	call	801f28 <vid_round_corner_points>

  // Now start moving out from those points until the lines meet
  while (x < y) {
  801e78:	00002206 	br	801f04 <vid_draw_circle+0x108>
    x++;
  801e7c:	e0bff817 	ldw	r2,-32(fp)
  801e80:	10800044 	addi	r2,r2,1
  801e84:	e0bff815 	stw	r2,-32(fp)
    if (p < 0) {
  801e88:	e0bffa17 	ldw	r2,-24(fp)
  801e8c:	1000070e 	bge	r2,zero,801eac <vid_draw_circle+0xb0>
      p += 2*x+1;
  801e90:	e0bff817 	ldw	r2,-32(fp)
  801e94:	1085883a 	add	r2,r2,r2
  801e98:	10800044 	addi	r2,r2,1
  801e9c:	e0fffa17 	ldw	r3,-24(fp)
  801ea0:	1885883a 	add	r2,r3,r2
  801ea4:	e0bffa15 	stw	r2,-24(fp)
  801ea8:	00000b06 	br	801ed8 <vid_draw_circle+0xdc>
    } else {
      y--;
  801eac:	e0bff917 	ldw	r2,-28(fp)
  801eb0:	10bfffc4 	addi	r2,r2,-1
  801eb4:	e0bff915 	stw	r2,-28(fp)
      p += 2*(x-y)+1;
  801eb8:	e0fff817 	ldw	r3,-32(fp)
  801ebc:	e0bff917 	ldw	r2,-28(fp)
  801ec0:	1885c83a 	sub	r2,r3,r2
  801ec4:	1085883a 	add	r2,r2,r2
  801ec8:	10800044 	addi	r2,r2,1
  801ecc:	e0fffa17 	ldw	r3,-24(fp)
  801ed0:	1885883a 	add	r2,r3,r2
  801ed4:	e0bffa15 	stw	r2,-24(fp)
    }
    vid_round_corner_points(Hcenter, Vcenter, x, y, 0, 0, color, fill);
  801ed8:	e0bfff07 	ldb	r2,-4(fp)
  801edc:	d8000015 	stw	zero,0(sp)
  801ee0:	d8000115 	stw	zero,4(sp)
  801ee4:	e0fffe17 	ldw	r3,-8(fp)
  801ee8:	d8c00215 	stw	r3,8(sp)
  801eec:	d8800315 	stw	r2,12(sp)
  801ef0:	e13ffb17 	ldw	r4,-20(fp)
  801ef4:	e17ffc17 	ldw	r5,-16(fp)
  801ef8:	e1bff817 	ldw	r6,-32(fp)
  801efc:	e1fff917 	ldw	r7,-28(fp)
  801f00:	0801f280 	call	801f28 <vid_round_corner_points>

  // Start the circle with the top, bottom, left, and right pixels.
  vid_round_corner_points(Hcenter, Vcenter, x, y, 0, 0, color, fill);

  // Now start moving out from those points until the lines meet
  while (x < y) {
  801f04:	e0fff817 	ldw	r3,-32(fp)
  801f08:	e0bff917 	ldw	r2,-28(fp)
  801f0c:	18bfdb16 	blt	r3,r2,801e7c <__reset+0xff800e7c>
      y--;
      p += 2*(x-y)+1;
    }
    vid_round_corner_points(Hcenter, Vcenter, x, y, 0, 0, color, fill);
  }
  return (0);
  801f10:	0005883a 	mov	r2,zero
}
  801f14:	e037883a 	mov	sp,fp
  801f18:	dfc00117 	ldw	ra,4(sp)
  801f1c:	df000017 	ldw	fp,0(sp)
  801f20:	dec00204 	addi	sp,sp,8
  801f24:	f800283a 	ret

00801f28 <vid_round_corner_points>:
******************************************************************/

void vid_round_corner_points( int cx, int cy, int x, int y,
                              int straight_width, int straight_height, int color,
                              char fill)
{
  801f28:	defff704 	addi	sp,sp,-36
  801f2c:	dfc00815 	stw	ra,32(sp)
  801f30:	df000715 	stw	fp,28(sp)
  801f34:	df000704 	addi	fp,sp,28
  801f38:	e13ffb15 	stw	r4,-20(fp)
  801f3c:	e17ffc15 	stw	r5,-16(fp)
  801f40:	e1bffd15 	stw	r6,-12(fp)
  801f44:	e1fffe15 	stw	r7,-8(fp)
  801f48:	e0800517 	ldw	r2,20(fp)
  801f4c:	e0bfff05 	stb	r2,-4(fp)

    // If we're directly above, below, left and right of center (0 degrees), plot those 4 pixels
    if (x == 0) {
  801f50:	e0bffd17 	ldw	r2,-12(fp)
  801f54:	1000781e 	bne	r2,zero,802138 <vid_round_corner_points+0x210>
        // bottom
        vid_set_pixel(cx, cy + y + straight_height, color);
  801f58:	e0fffc17 	ldw	r3,-16(fp)
  801f5c:	e0bffe17 	ldw	r2,-8(fp)
  801f60:	1887883a 	add	r3,r3,r2
  801f64:	e0800317 	ldw	r2,12(fp)
  801f68:	1887883a 	add	r3,r3,r2
  801f6c:	e0800417 	ldw	r2,16(fp)
  801f70:	e13ffb17 	ldw	r4,-20(fp)
  801f74:	180b883a 	mov	r5,r3
  801f78:	100d883a 	mov	r6,r2
  801f7c:	08017300 	call	801730 <vid_set_pixel>
        vid_set_pixel(cx + straight_width, cy + y + straight_height, color);
  801f80:	e0fffb17 	ldw	r3,-20(fp)
  801f84:	e0800217 	ldw	r2,8(fp)
  801f88:	1889883a 	add	r4,r3,r2
  801f8c:	e0fffc17 	ldw	r3,-16(fp)
  801f90:	e0bffe17 	ldw	r2,-8(fp)
  801f94:	1887883a 	add	r3,r3,r2
  801f98:	e0800317 	ldw	r2,12(fp)
  801f9c:	1887883a 	add	r3,r3,r2
  801fa0:	e0800417 	ldw	r2,16(fp)
  801fa4:	180b883a 	mov	r5,r3
  801fa8:	100d883a 	mov	r6,r2
  801fac:	08017300 	call	801730 <vid_set_pixel>
        // top
        vid_set_pixel(cx, cy - y, color);
  801fb0:	e0fffc17 	ldw	r3,-16(fp)
  801fb4:	e0bffe17 	ldw	r2,-8(fp)
  801fb8:	1887c83a 	sub	r3,r3,r2
  801fbc:	e0800417 	ldw	r2,16(fp)
  801fc0:	e13ffb17 	ldw	r4,-20(fp)
  801fc4:	180b883a 	mov	r5,r3
  801fc8:	100d883a 	mov	r6,r2
  801fcc:	08017300 	call	801730 <vid_set_pixel>
        vid_set_pixel(cx + straight_width, cy - y, color);
  801fd0:	e0fffb17 	ldw	r3,-20(fp)
  801fd4:	e0800217 	ldw	r2,8(fp)
  801fd8:	1889883a 	add	r4,r3,r2
  801fdc:	e0fffc17 	ldw	r3,-16(fp)
  801fe0:	e0bffe17 	ldw	r2,-8(fp)
  801fe4:	1887c83a 	sub	r3,r3,r2
  801fe8:	e0800417 	ldw	r2,16(fp)
  801fec:	180b883a 	mov	r5,r3
  801ff0:	100d883a 	mov	r6,r2
  801ff4:	08017300 	call	801730 <vid_set_pixel>

        if(fill) {
  801ff8:	e0bfff07 	ldb	r2,-4(fp)
  801ffc:	10002526 	beq	r2,zero,802094 <vid_round_corner_points+0x16c>
          vid_draw_line(cx - y, cy, cx + y + straight_width, cy, 1, color);
  802000:	e0fffb17 	ldw	r3,-20(fp)
  802004:	e0bffe17 	ldw	r2,-8(fp)
  802008:	1889c83a 	sub	r4,r3,r2
  80200c:	e0fffb17 	ldw	r3,-20(fp)
  802010:	e0bffe17 	ldw	r2,-8(fp)
  802014:	1887883a 	add	r3,r3,r2
  802018:	e0800217 	ldw	r2,8(fp)
  80201c:	1887883a 	add	r3,r3,r2
  802020:	00800044 	movi	r2,1
  802024:	d8800015 	stw	r2,0(sp)
  802028:	e0800417 	ldw	r2,16(fp)
  80202c:	d8800115 	stw	r2,4(sp)
  802030:	e17ffc17 	ldw	r5,-16(fp)
  802034:	180d883a 	mov	r6,r3
  802038:	e1fffc17 	ldw	r7,-16(fp)
  80203c:	08016780 	call	801678 <vid_draw_line>
          vid_draw_line(cx - y, cy + straight_height, cx + y + straight_width, cy + straight_height, 1, color);
  802040:	e0fffb17 	ldw	r3,-20(fp)
  802044:	e0bffe17 	ldw	r2,-8(fp)
  802048:	1889c83a 	sub	r4,r3,r2
  80204c:	e0fffc17 	ldw	r3,-16(fp)
  802050:	e0800317 	ldw	r2,12(fp)
  802054:	188b883a 	add	r5,r3,r2
  802058:	e0fffb17 	ldw	r3,-20(fp)
  80205c:	e0bffe17 	ldw	r2,-8(fp)
  802060:	1887883a 	add	r3,r3,r2
  802064:	e0800217 	ldw	r2,8(fp)
  802068:	188d883a 	add	r6,r3,r2
  80206c:	e0fffc17 	ldw	r3,-16(fp)
  802070:	e0800317 	ldw	r2,12(fp)
  802074:	1887883a 	add	r3,r3,r2
  802078:	00800044 	movi	r2,1
  80207c:	d8800015 	stw	r2,0(sp)
  802080:	e0800417 	ldw	r2,16(fp)
  802084:	d8800115 	stw	r2,4(sp)
  802088:	180f883a 	mov	r7,r3
  80208c:	08016780 	call	801678 <vid_draw_line>
  802090:	00014a06 	br	8025bc <vid_round_corner_points+0x694>
        } else {
          //right
          vid_set_pixel(cx + y + straight_width, cy, color);
  802094:	e0fffb17 	ldw	r3,-20(fp)
  802098:	e0bffe17 	ldw	r2,-8(fp)
  80209c:	1887883a 	add	r3,r3,r2
  8020a0:	e0800217 	ldw	r2,8(fp)
  8020a4:	1887883a 	add	r3,r3,r2
  8020a8:	e0800417 	ldw	r2,16(fp)
  8020ac:	1809883a 	mov	r4,r3
  8020b0:	e17ffc17 	ldw	r5,-16(fp)
  8020b4:	100d883a 	mov	r6,r2
  8020b8:	08017300 	call	801730 <vid_set_pixel>
          vid_set_pixel(cx + y + straight_width, cy + straight_height, color);
  8020bc:	e0fffb17 	ldw	r3,-20(fp)
  8020c0:	e0bffe17 	ldw	r2,-8(fp)
  8020c4:	1887883a 	add	r3,r3,r2
  8020c8:	e0800217 	ldw	r2,8(fp)
  8020cc:	1889883a 	add	r4,r3,r2
  8020d0:	e0fffc17 	ldw	r3,-16(fp)
  8020d4:	e0800317 	ldw	r2,12(fp)
  8020d8:	1887883a 	add	r3,r3,r2
  8020dc:	e0800417 	ldw	r2,16(fp)
  8020e0:	180b883a 	mov	r5,r3
  8020e4:	100d883a 	mov	r6,r2
  8020e8:	08017300 	call	801730 <vid_set_pixel>
          //left
          vid_set_pixel(cx - y, cy, color);
  8020ec:	e0fffb17 	ldw	r3,-20(fp)
  8020f0:	e0bffe17 	ldw	r2,-8(fp)
  8020f4:	1887c83a 	sub	r3,r3,r2
  8020f8:	e0800417 	ldw	r2,16(fp)
  8020fc:	1809883a 	mov	r4,r3
  802100:	e17ffc17 	ldw	r5,-16(fp)
  802104:	100d883a 	mov	r6,r2
  802108:	08017300 	call	801730 <vid_set_pixel>
          vid_set_pixel(cx - y, cy + straight_height, color);
  80210c:	e0fffb17 	ldw	r3,-20(fp)
  802110:	e0bffe17 	ldw	r2,-8(fp)
  802114:	1889c83a 	sub	r4,r3,r2
  802118:	e0fffc17 	ldw	r3,-16(fp)
  80211c:	e0800317 	ldw	r2,12(fp)
  802120:	1887883a 	add	r3,r3,r2
  802124:	e0800417 	ldw	r2,16(fp)
  802128:	180b883a 	mov	r5,r3
  80212c:	100d883a 	mov	r6,r2
  802130:	08017300 	call	801730 <vid_set_pixel>
  802134:	00012106 	br	8025bc <vid_round_corner_points+0x694>
        }

    } else
    // If we've reached the 45 degree points (x=y), plot those 4 pixels
    if (x == y) {
  802138:	e0fffd17 	ldw	r3,-12(fp)
  80213c:	e0bffe17 	ldw	r2,-8(fp)
  802140:	1880601e 	bne	r3,r2,8022c4 <vid_round_corner_points+0x39c>
      if(fill) {
  802144:	e0bfff07 	ldb	r2,-4(fp)
  802148:	10002d26 	beq	r2,zero,802200 <vid_round_corner_points+0x2d8>
        vid_draw_line(cx - x, cy + y + straight_height, cx + x + straight_width, cy + y + straight_height, 1, color); // lower
  80214c:	e0fffb17 	ldw	r3,-20(fp)
  802150:	e0bffd17 	ldw	r2,-12(fp)
  802154:	1889c83a 	sub	r4,r3,r2
  802158:	e0fffc17 	ldw	r3,-16(fp)
  80215c:	e0bffe17 	ldw	r2,-8(fp)
  802160:	1887883a 	add	r3,r3,r2
  802164:	e0800317 	ldw	r2,12(fp)
  802168:	188b883a 	add	r5,r3,r2
  80216c:	e0fffb17 	ldw	r3,-20(fp)
  802170:	e0bffd17 	ldw	r2,-12(fp)
  802174:	1887883a 	add	r3,r3,r2
  802178:	e0800217 	ldw	r2,8(fp)
  80217c:	188d883a 	add	r6,r3,r2
  802180:	e0fffc17 	ldw	r3,-16(fp)
  802184:	e0bffe17 	ldw	r2,-8(fp)
  802188:	1887883a 	add	r3,r3,r2
  80218c:	e0800317 	ldw	r2,12(fp)
  802190:	1887883a 	add	r3,r3,r2
  802194:	00800044 	movi	r2,1
  802198:	d8800015 	stw	r2,0(sp)
  80219c:	e0800417 	ldw	r2,16(fp)
  8021a0:	d8800115 	stw	r2,4(sp)
  8021a4:	180f883a 	mov	r7,r3
  8021a8:	08016780 	call	801678 <vid_draw_line>
        vid_draw_line(cx - x, cy - y, cx + x + straight_width, cy - y, 1, color); // upper
  8021ac:	e0fffb17 	ldw	r3,-20(fp)
  8021b0:	e0bffd17 	ldw	r2,-12(fp)
  8021b4:	1889c83a 	sub	r4,r3,r2
  8021b8:	e0fffc17 	ldw	r3,-16(fp)
  8021bc:	e0bffe17 	ldw	r2,-8(fp)
  8021c0:	188bc83a 	sub	r5,r3,r2
  8021c4:	e0fffb17 	ldw	r3,-20(fp)
  8021c8:	e0bffd17 	ldw	r2,-12(fp)
  8021cc:	1887883a 	add	r3,r3,r2
  8021d0:	e0800217 	ldw	r2,8(fp)
  8021d4:	188d883a 	add	r6,r3,r2
  8021d8:	e0fffc17 	ldw	r3,-16(fp)
  8021dc:	e0bffe17 	ldw	r2,-8(fp)
  8021e0:	1887c83a 	sub	r3,r3,r2
  8021e4:	00800044 	movi	r2,1
  8021e8:	d8800015 	stw	r2,0(sp)
  8021ec:	e0800417 	ldw	r2,16(fp)
  8021f0:	d8800115 	stw	r2,4(sp)
  8021f4:	180f883a 	mov	r7,r3
  8021f8:	08016780 	call	801678 <vid_draw_line>
  8021fc:	0000ef06 	br	8025bc <vid_round_corner_points+0x694>

      } else {
        vid_set_pixel(cx + x + straight_width, cy + y + straight_height, color); // bottom right
  802200:	e0fffb17 	ldw	r3,-20(fp)
  802204:	e0bffd17 	ldw	r2,-12(fp)
  802208:	1887883a 	add	r3,r3,r2
  80220c:	e0800217 	ldw	r2,8(fp)
  802210:	1889883a 	add	r4,r3,r2
  802214:	e0fffc17 	ldw	r3,-16(fp)
  802218:	e0bffe17 	ldw	r2,-8(fp)
  80221c:	1887883a 	add	r3,r3,r2
  802220:	e0800317 	ldw	r2,12(fp)
  802224:	1887883a 	add	r3,r3,r2
  802228:	e0800417 	ldw	r2,16(fp)
  80222c:	180b883a 	mov	r5,r3
  802230:	100d883a 	mov	r6,r2
  802234:	08017300 	call	801730 <vid_set_pixel>
        vid_set_pixel(cx - x, cy + y + straight_height, color); // bottom left
  802238:	e0fffb17 	ldw	r3,-20(fp)
  80223c:	e0bffd17 	ldw	r2,-12(fp)
  802240:	1889c83a 	sub	r4,r3,r2
  802244:	e0fffc17 	ldw	r3,-16(fp)
  802248:	e0bffe17 	ldw	r2,-8(fp)
  80224c:	1887883a 	add	r3,r3,r2
  802250:	e0800317 	ldw	r2,12(fp)
  802254:	1887883a 	add	r3,r3,r2
  802258:	e0800417 	ldw	r2,16(fp)
  80225c:	180b883a 	mov	r5,r3
  802260:	100d883a 	mov	r6,r2
  802264:	08017300 	call	801730 <vid_set_pixel>
        vid_set_pixel(cx + x + straight_width, cy - y, color); // top right
  802268:	e0fffb17 	ldw	r3,-20(fp)
  80226c:	e0bffd17 	ldw	r2,-12(fp)
  802270:	1887883a 	add	r3,r3,r2
  802274:	e0800217 	ldw	r2,8(fp)
  802278:	1889883a 	add	r4,r3,r2
  80227c:	e0fffc17 	ldw	r3,-16(fp)
  802280:	e0bffe17 	ldw	r2,-8(fp)
  802284:	1887c83a 	sub	r3,r3,r2
  802288:	e0800417 	ldw	r2,16(fp)
  80228c:	180b883a 	mov	r5,r3
  802290:	100d883a 	mov	r6,r2
  802294:	08017300 	call	801730 <vid_set_pixel>
        vid_set_pixel(cx - x, cy - y, color); // top left
  802298:	e0fffb17 	ldw	r3,-20(fp)
  80229c:	e0bffd17 	ldw	r2,-12(fp)
  8022a0:	1889c83a 	sub	r4,r3,r2
  8022a4:	e0fffc17 	ldw	r3,-16(fp)
  8022a8:	e0bffe17 	ldw	r2,-8(fp)
  8022ac:	1887c83a 	sub	r3,r3,r2
  8022b0:	e0800417 	ldw	r2,16(fp)
  8022b4:	180b883a 	mov	r5,r3
  8022b8:	100d883a 	mov	r6,r2
  8022bc:	08017300 	call	801730 <vid_set_pixel>
  8022c0:	0000be06 	br	8025bc <vid_round_corner_points+0x694>
      }
    } else
    // If we're between 0 and 45 degrees plot 8 pixels.
    if (x < y) {
  8022c4:	e0fffd17 	ldw	r3,-12(fp)
  8022c8:	e0bffe17 	ldw	r2,-8(fp)
  8022cc:	1880bb0e 	bge	r3,r2,8025bc <vid_round_corner_points+0x694>
        if(fill) {
  8022d0:	e0bfff07 	ldb	r2,-4(fp)
  8022d4:	10005926 	beq	r2,zero,80243c <vid_round_corner_points+0x514>
          vid_draw_line(cx - x, cy + y + straight_height, cx + x + straight_width, cy + y + straight_height, 1, color);
  8022d8:	e0fffb17 	ldw	r3,-20(fp)
  8022dc:	e0bffd17 	ldw	r2,-12(fp)
  8022e0:	1889c83a 	sub	r4,r3,r2
  8022e4:	e0fffc17 	ldw	r3,-16(fp)
  8022e8:	e0bffe17 	ldw	r2,-8(fp)
  8022ec:	1887883a 	add	r3,r3,r2
  8022f0:	e0800317 	ldw	r2,12(fp)
  8022f4:	188b883a 	add	r5,r3,r2
  8022f8:	e0fffb17 	ldw	r3,-20(fp)
  8022fc:	e0bffd17 	ldw	r2,-12(fp)
  802300:	1887883a 	add	r3,r3,r2
  802304:	e0800217 	ldw	r2,8(fp)
  802308:	188d883a 	add	r6,r3,r2
  80230c:	e0fffc17 	ldw	r3,-16(fp)
  802310:	e0bffe17 	ldw	r2,-8(fp)
  802314:	1887883a 	add	r3,r3,r2
  802318:	e0800317 	ldw	r2,12(fp)
  80231c:	1887883a 	add	r3,r3,r2
  802320:	00800044 	movi	r2,1
  802324:	d8800015 	stw	r2,0(sp)
  802328:	e0800417 	ldw	r2,16(fp)
  80232c:	d8800115 	stw	r2,4(sp)
  802330:	180f883a 	mov	r7,r3
  802334:	08016780 	call	801678 <vid_draw_line>
          vid_draw_line(cx - y, cy + x + straight_height, cx + y + straight_width, cy + x + straight_height, 1, color);
  802338:	e0fffb17 	ldw	r3,-20(fp)
  80233c:	e0bffe17 	ldw	r2,-8(fp)
  802340:	1889c83a 	sub	r4,r3,r2
  802344:	e0fffc17 	ldw	r3,-16(fp)
  802348:	e0bffd17 	ldw	r2,-12(fp)
  80234c:	1887883a 	add	r3,r3,r2
  802350:	e0800317 	ldw	r2,12(fp)
  802354:	188b883a 	add	r5,r3,r2
  802358:	e0fffb17 	ldw	r3,-20(fp)
  80235c:	e0bffe17 	ldw	r2,-8(fp)
  802360:	1887883a 	add	r3,r3,r2
  802364:	e0800217 	ldw	r2,8(fp)
  802368:	188d883a 	add	r6,r3,r2
  80236c:	e0fffc17 	ldw	r3,-16(fp)
  802370:	e0bffd17 	ldw	r2,-12(fp)
  802374:	1887883a 	add	r3,r3,r2
  802378:	e0800317 	ldw	r2,12(fp)
  80237c:	1887883a 	add	r3,r3,r2
  802380:	00800044 	movi	r2,1
  802384:	d8800015 	stw	r2,0(sp)
  802388:	e0800417 	ldw	r2,16(fp)
  80238c:	d8800115 	stw	r2,4(sp)
  802390:	180f883a 	mov	r7,r3
  802394:	08016780 	call	801678 <vid_draw_line>
          vid_draw_line(cx - y, cy - x, cx + y + straight_width, cy - x, 1, color);
  802398:	e0fffb17 	ldw	r3,-20(fp)
  80239c:	e0bffe17 	ldw	r2,-8(fp)
  8023a0:	1889c83a 	sub	r4,r3,r2
  8023a4:	e0fffc17 	ldw	r3,-16(fp)
  8023a8:	e0bffd17 	ldw	r2,-12(fp)
  8023ac:	188bc83a 	sub	r5,r3,r2
  8023b0:	e0fffb17 	ldw	r3,-20(fp)
  8023b4:	e0bffe17 	ldw	r2,-8(fp)
  8023b8:	1887883a 	add	r3,r3,r2
  8023bc:	e0800217 	ldw	r2,8(fp)
  8023c0:	188d883a 	add	r6,r3,r2
  8023c4:	e0fffc17 	ldw	r3,-16(fp)
  8023c8:	e0bffd17 	ldw	r2,-12(fp)
  8023cc:	1887c83a 	sub	r3,r3,r2
  8023d0:	00800044 	movi	r2,1
  8023d4:	d8800015 	stw	r2,0(sp)
  8023d8:	e0800417 	ldw	r2,16(fp)
  8023dc:	d8800115 	stw	r2,4(sp)
  8023e0:	180f883a 	mov	r7,r3
  8023e4:	08016780 	call	801678 <vid_draw_line>
          vid_draw_line(cx - x, cy - y, cx + x + straight_width, cy - y, 1, color);
  8023e8:	e0fffb17 	ldw	r3,-20(fp)
  8023ec:	e0bffd17 	ldw	r2,-12(fp)
  8023f0:	1889c83a 	sub	r4,r3,r2
  8023f4:	e0fffc17 	ldw	r3,-16(fp)
  8023f8:	e0bffe17 	ldw	r2,-8(fp)
  8023fc:	188bc83a 	sub	r5,r3,r2
  802400:	e0fffb17 	ldw	r3,-20(fp)
  802404:	e0bffd17 	ldw	r2,-12(fp)
  802408:	1887883a 	add	r3,r3,r2
  80240c:	e0800217 	ldw	r2,8(fp)
  802410:	188d883a 	add	r6,r3,r2
  802414:	e0fffc17 	ldw	r3,-16(fp)
  802418:	e0bffe17 	ldw	r2,-8(fp)
  80241c:	1887c83a 	sub	r3,r3,r2
  802420:	00800044 	movi	r2,1
  802424:	d8800015 	stw	r2,0(sp)
  802428:	e0800417 	ldw	r2,16(fp)
  80242c:	d8800115 	stw	r2,4(sp)
  802430:	180f883a 	mov	r7,r3
  802434:	08016780 	call	801678 <vid_draw_line>
  802438:	00006006 	br	8025bc <vid_round_corner_points+0x694>
        } else {
          vid_set_pixel(cx + x + straight_width, cy + y + straight_height, color);
  80243c:	e0fffb17 	ldw	r3,-20(fp)
  802440:	e0bffd17 	ldw	r2,-12(fp)
  802444:	1887883a 	add	r3,r3,r2
  802448:	e0800217 	ldw	r2,8(fp)
  80244c:	1889883a 	add	r4,r3,r2
  802450:	e0fffc17 	ldw	r3,-16(fp)
  802454:	e0bffe17 	ldw	r2,-8(fp)
  802458:	1887883a 	add	r3,r3,r2
  80245c:	e0800317 	ldw	r2,12(fp)
  802460:	1887883a 	add	r3,r3,r2
  802464:	e0800417 	ldw	r2,16(fp)
  802468:	180b883a 	mov	r5,r3
  80246c:	100d883a 	mov	r6,r2
  802470:	08017300 	call	801730 <vid_set_pixel>
          vid_set_pixel(cx - x, cy + y + straight_height, color);
  802474:	e0fffb17 	ldw	r3,-20(fp)
  802478:	e0bffd17 	ldw	r2,-12(fp)
  80247c:	1889c83a 	sub	r4,r3,r2
  802480:	e0fffc17 	ldw	r3,-16(fp)
  802484:	e0bffe17 	ldw	r2,-8(fp)
  802488:	1887883a 	add	r3,r3,r2
  80248c:	e0800317 	ldw	r2,12(fp)
  802490:	1887883a 	add	r3,r3,r2
  802494:	e0800417 	ldw	r2,16(fp)
  802498:	180b883a 	mov	r5,r3
  80249c:	100d883a 	mov	r6,r2
  8024a0:	08017300 	call	801730 <vid_set_pixel>
          vid_set_pixel(cx + x + straight_width, cy - y, color);
  8024a4:	e0fffb17 	ldw	r3,-20(fp)
  8024a8:	e0bffd17 	ldw	r2,-12(fp)
  8024ac:	1887883a 	add	r3,r3,r2
  8024b0:	e0800217 	ldw	r2,8(fp)
  8024b4:	1889883a 	add	r4,r3,r2
  8024b8:	e0fffc17 	ldw	r3,-16(fp)
  8024bc:	e0bffe17 	ldw	r2,-8(fp)
  8024c0:	1887c83a 	sub	r3,r3,r2
  8024c4:	e0800417 	ldw	r2,16(fp)
  8024c8:	180b883a 	mov	r5,r3
  8024cc:	100d883a 	mov	r6,r2
  8024d0:	08017300 	call	801730 <vid_set_pixel>
          vid_set_pixel(cx - x, cy - y, color);
  8024d4:	e0fffb17 	ldw	r3,-20(fp)
  8024d8:	e0bffd17 	ldw	r2,-12(fp)
  8024dc:	1889c83a 	sub	r4,r3,r2
  8024e0:	e0fffc17 	ldw	r3,-16(fp)
  8024e4:	e0bffe17 	ldw	r2,-8(fp)
  8024e8:	1887c83a 	sub	r3,r3,r2
  8024ec:	e0800417 	ldw	r2,16(fp)
  8024f0:	180b883a 	mov	r5,r3
  8024f4:	100d883a 	mov	r6,r2
  8024f8:	08017300 	call	801730 <vid_set_pixel>
          vid_set_pixel(cx + y + straight_width, cy + x + straight_height, color);
  8024fc:	e0fffb17 	ldw	r3,-20(fp)
  802500:	e0bffe17 	ldw	r2,-8(fp)
  802504:	1887883a 	add	r3,r3,r2
  802508:	e0800217 	ldw	r2,8(fp)
  80250c:	1889883a 	add	r4,r3,r2
  802510:	e0fffc17 	ldw	r3,-16(fp)
  802514:	e0bffd17 	ldw	r2,-12(fp)
  802518:	1887883a 	add	r3,r3,r2
  80251c:	e0800317 	ldw	r2,12(fp)
  802520:	1887883a 	add	r3,r3,r2
  802524:	e0800417 	ldw	r2,16(fp)
  802528:	180b883a 	mov	r5,r3
  80252c:	100d883a 	mov	r6,r2
  802530:	08017300 	call	801730 <vid_set_pixel>
          vid_set_pixel(cx - y, cy + x + straight_height, color);
  802534:	e0fffb17 	ldw	r3,-20(fp)
  802538:	e0bffe17 	ldw	r2,-8(fp)
  80253c:	1889c83a 	sub	r4,r3,r2
  802540:	e0fffc17 	ldw	r3,-16(fp)
  802544:	e0bffd17 	ldw	r2,-12(fp)
  802548:	1887883a 	add	r3,r3,r2
  80254c:	e0800317 	ldw	r2,12(fp)
  802550:	1887883a 	add	r3,r3,r2
  802554:	e0800417 	ldw	r2,16(fp)
  802558:	180b883a 	mov	r5,r3
  80255c:	100d883a 	mov	r6,r2
  802560:	08017300 	call	801730 <vid_set_pixel>
          vid_set_pixel(cx + y + straight_width, cy - x, color);
  802564:	e0fffb17 	ldw	r3,-20(fp)
  802568:	e0bffe17 	ldw	r2,-8(fp)
  80256c:	1887883a 	add	r3,r3,r2
  802570:	e0800217 	ldw	r2,8(fp)
  802574:	1889883a 	add	r4,r3,r2
  802578:	e0fffc17 	ldw	r3,-16(fp)
  80257c:	e0bffd17 	ldw	r2,-12(fp)
  802580:	1887c83a 	sub	r3,r3,r2
  802584:	e0800417 	ldw	r2,16(fp)
  802588:	180b883a 	mov	r5,r3
  80258c:	100d883a 	mov	r6,r2
  802590:	08017300 	call	801730 <vid_set_pixel>
          vid_set_pixel(cx - y, cy - x, color);
  802594:	e0fffb17 	ldw	r3,-20(fp)
  802598:	e0bffe17 	ldw	r2,-8(fp)
  80259c:	1889c83a 	sub	r4,r3,r2
  8025a0:	e0fffc17 	ldw	r3,-16(fp)
  8025a4:	e0bffd17 	ldw	r2,-12(fp)
  8025a8:	1887c83a 	sub	r3,r3,r2
  8025ac:	e0800417 	ldw	r2,16(fp)
  8025b0:	180b883a 	mov	r5,r3
  8025b4:	100d883a 	mov	r6,r2
  8025b8:	08017300 	call	801730 <vid_set_pixel>
        }
    }
}
  8025bc:	e037883a 	mov	sp,fp
  8025c0:	dfc00117 	ldw	ra,4(sp)
  8025c4:	df000017 	ldw	fp,0(sp)
  8025c8:	dec00204 	addi	sp,sp,8
  8025cc:	f800283a 	ret

008025d0 <delay_ms>:


void delay_ms(alt_u16 ms){
  8025d0:	defffc04 	addi	sp,sp,-16
  8025d4:	dfc00315 	stw	ra,12(sp)
  8025d8:	df000215 	stw	fp,8(sp)
  8025dc:	df000204 	addi	fp,sp,8
  8025e0:	2005883a 	mov	r2,r4
  8025e4:	e0bfff0d 	sth	r2,-4(fp)
	int msd=1000*ms;
  8025e8:	e0bfff0b 	ldhu	r2,-4(fp)
  8025ec:	1080fa24 	muli	r2,r2,1000
  8025f0:	e0bffe15 	stw	r2,-8(fp)
	while(msd<0){
  8025f4:	00000506 	br	80260c <delay_ms+0x3c>
		usleep(1);
  8025f8:	01000044 	movi	r4,1
  8025fc:	0806f500 	call	806f50 <usleep>
		msd--;
  802600:	e0bffe17 	ldw	r2,-8(fp)
  802604:	10bfffc4 	addi	r2,r2,-1
  802608:	e0bffe15 	stw	r2,-8(fp)
}


void delay_ms(alt_u16 ms){
	int msd=1000*ms;
	while(msd<0){
  80260c:	e0bffe17 	ldw	r2,-8(fp)
  802610:	103ff916 	blt	r2,zero,8025f8 <__reset+0xff8015f8>
		usleep(1);
		msd--;
	}
}
  802614:	e037883a 	mov	sp,fp
  802618:	dfc00117 	ldw	ra,4(sp)
  80261c:	df000017 	ldw	fp,0(sp)
  802620:	dec00204 	addi	sp,sp,8
  802624:	f800283a 	ret

00802628 <vid_print_string_alpha>:
*           24 bit - R(8):G(8):B(8)  (packed)
*           32 bit - 0 : R(8):G(8):B(8) (unpacked)
******************************************************************/

int vid_print_string_alpha(int horiz_offset, int vert_offset, int color, int background_color, struct abc_font_struct font[], char string[])
{
  802628:	defff504 	addi	sp,sp,-44
  80262c:	dfc00a15 	stw	ra,40(sp)
  802630:	df000915 	stw	fp,36(sp)
  802634:	df000904 	addi	fp,sp,36
  802638:	e13ffc15 	stw	r4,-16(fp)
  80263c:	e17ffd15 	stw	r5,-12(fp)
  802640:	e1bffe15 	stw	r6,-8(fp)
  802644:	e1ffff15 	stw	r7,-4(fp)
  int i = 0;
  802648:	e03ff915 	stw	zero,-28(fp)
  int tab;
  int original_horiz_offset;

  original_horiz_offset = horiz_offset;
  80264c:	e0bffc17 	ldw	r2,-16(fp)
  802650:	e0bffb15 	stw	r2,-20(fp)

  // Print until we hit the '\0' char.
  while (string[i]) {
  802654:	00007706 	br	802834 <vid_print_string_alpha+0x20c>
    //Handle newline char here.
    if (string[i] == '\n') {
  802658:	e0bff917 	ldw	r2,-28(fp)
  80265c:	e0c00317 	ldw	r3,12(fp)
  802660:	1885883a 	add	r2,r3,r2
  802664:	10800003 	ldbu	r2,0(r2)
  802668:	10803fcc 	andi	r2,r2,255
  80266c:	1080201c 	xori	r2,r2,128
  802670:	10bfe004 	addi	r2,r2,-128
  802674:	10800298 	cmpnei	r2,r2,10
  802678:	10000c1e 	bne	r2,zero,8026ac <vid_print_string_alpha+0x84>
      horiz_offset = original_horiz_offset;
  80267c:	e0bffb17 	ldw	r2,-20(fp)
  802680:	e0bffc15 	stw	r2,-16(fp)
      vert_offset += font['|' - 33].bounds_height;  // we'll use "|" to add the line to line spacing
  802684:	e0800217 	ldw	r2,8(fp)
  802688:	1082d804 	addi	r2,r2,2912
  80268c:	10c00517 	ldw	r3,20(r2)
  802690:	e0bffd17 	ldw	r2,-12(fp)
  802694:	1885883a 	add	r2,r3,r2
  802698:	e0bffd15 	stw	r2,-12(fp)
      i++;
  80269c:	e0bff917 	ldw	r2,-28(fp)
  8026a0:	10800044 	addi	r2,r2,1
  8026a4:	e0bff915 	stw	r2,-28(fp)
      continue;
  8026a8:	00006206 	br	802834 <vid_print_string_alpha+0x20c>
    }
    // Lay down that character and increment our offsets.
    if(string[i] == 32)  // this is a space in ASCII
  8026ac:	e0bff917 	ldw	r2,-28(fp)
  8026b0:	e0c00317 	ldw	r3,12(fp)
  8026b4:	1885883a 	add	r2,r3,r2
  8026b8:	10800003 	ldbu	r2,0(r2)
  8026bc:	10803fcc 	andi	r2,r2,255
  8026c0:	1080201c 	xori	r2,r2,128
  8026c4:	10bfe004 	addi	r2,r2,-128
  8026c8:	10800818 	cmpnei	r2,r2,32
  8026cc:	1000131e 	bne	r2,zero,80271c <vid_print_string_alpha+0xf4>
    {
      if(background_color != CLEAR_BACKGROUND)  // need to fill in this spot (setting foreground to background color so that it looks like a drawn in box)
  8026d0:	e0bfff17 	ldw	r2,-4(fp)
  8026d4:	10bfffe0 	cmpeqi	r2,r2,-1
  8026d8:	1000091e 	bne	r2,zero,802700 <vid_print_string_alpha+0xd8>
      {
        vid_print_char_alpha (horiz_offset, vert_offset, background_color, '-', background_color, font);
  8026dc:	e0bfff17 	ldw	r2,-4(fp)
  8026e0:	d8800015 	stw	r2,0(sp)
  8026e4:	e0800217 	ldw	r2,8(fp)
  8026e8:	d8800115 	stw	r2,4(sp)
  8026ec:	e13ffc17 	ldw	r4,-16(fp)
  8026f0:	e17ffd17 	ldw	r5,-12(fp)
  8026f4:	e1bfff17 	ldw	r6,-4(fp)
  8026f8:	01c00b44 	movi	r7,45
  8026fc:	0802cac0 	call	802cac <vid_print_char_alpha>
      }
      horiz_offset += font[45 - 33].bounds_width;  // using the width of the '-' character for the space width since it's not present in the font
  802700:	e0800217 	ldw	r2,8(fp)
  802704:	10806004 	addi	r2,r2,384
  802708:	10c00417 	ldw	r3,16(r2)
  80270c:	e0bffc17 	ldw	r2,-16(fp)
  802710:	1885883a 	add	r2,r3,r2
  802714:	e0bffc15 	stw	r2,-16(fp)
  802718:	00004306 	br	802828 <vid_print_string_alpha+0x200>
    }
    else if(string[i] == '\t')  // this is a tab
  80271c:	e0bff917 	ldw	r2,-28(fp)
  802720:	e0c00317 	ldw	r3,12(fp)
  802724:	1885883a 	add	r2,r3,r2
  802728:	10800003 	ldbu	r2,0(r2)
  80272c:	10803fcc 	andi	r2,r2,255
  802730:	1080201c 	xori	r2,r2,128
  802734:	10bfe004 	addi	r2,r2,-128
  802738:	10800258 	cmpnei	r2,r2,9
  80273c:	10001b1e 	bne	r2,zero,8027ac <vid_print_string_alpha+0x184>
    {
      for( tab = 0; tab < TAB_SPACING; tab++ )
  802740:	e03ffa15 	stw	zero,-24(fp)
  802744:	00001506 	br	80279c <vid_print_string_alpha+0x174>
      {
        if(background_color != CLEAR_BACKGROUND)  // need to fill in this spot (setting foreground to background color so that it looks like a drawn in box)
  802748:	e0bfff17 	ldw	r2,-4(fp)
  80274c:	10bfffe0 	cmpeqi	r2,r2,-1
  802750:	1000091e 	bne	r2,zero,802778 <vid_print_string_alpha+0x150>
        {
          vid_print_char_alpha (horiz_offset, vert_offset, background_color, '-', background_color, font);
  802754:	e0bfff17 	ldw	r2,-4(fp)
  802758:	d8800015 	stw	r2,0(sp)
  80275c:	e0800217 	ldw	r2,8(fp)
  802760:	d8800115 	stw	r2,4(sp)
  802764:	e13ffc17 	ldw	r4,-16(fp)
  802768:	e17ffd17 	ldw	r5,-12(fp)
  80276c:	e1bfff17 	ldw	r6,-4(fp)
  802770:	01c00b44 	movi	r7,45
  802774:	0802cac0 	call	802cac <vid_print_char_alpha>
        }
        horiz_offset += font[45 - 33].bounds_width;  // using the width of the '-' character for the space width since it's not present in the font
  802778:	e0800217 	ldw	r2,8(fp)
  80277c:	10806004 	addi	r2,r2,384
  802780:	10c00417 	ldw	r3,16(r2)
  802784:	e0bffc17 	ldw	r2,-16(fp)
  802788:	1885883a 	add	r2,r3,r2
  80278c:	e0bffc15 	stw	r2,-16(fp)
      }
      horiz_offset += font[45 - 33].bounds_width;  // using the width of the '-' character for the space width since it's not present in the font
    }
    else if(string[i] == '\t')  // this is a tab
    {
      for( tab = 0; tab < TAB_SPACING; tab++ )
  802790:	e0bffa17 	ldw	r2,-24(fp)
  802794:	10800044 	addi	r2,r2,1
  802798:	e0bffa15 	stw	r2,-24(fp)
  80279c:	e0bffa17 	ldw	r2,-24(fp)
  8027a0:	10800090 	cmplti	r2,r2,2
  8027a4:	103fe81e 	bne	r2,zero,802748 <__reset+0xff801748>
  8027a8:	00001f06 	br	802828 <vid_print_string_alpha+0x200>
        horiz_offset += font[45 - 33].bounds_width;  // using the width of the '-' character for the space width since it's not present in the font
      }
    }
    else
    {
      vid_print_char_alpha (horiz_offset, vert_offset, color, string[i], background_color, font);
  8027ac:	e0bff917 	ldw	r2,-28(fp)
  8027b0:	e0c00317 	ldw	r3,12(fp)
  8027b4:	1885883a 	add	r2,r3,r2
  8027b8:	10800003 	ldbu	r2,0(r2)
  8027bc:	10c03fcc 	andi	r3,r2,255
  8027c0:	18c0201c 	xori	r3,r3,128
  8027c4:	18ffe004 	addi	r3,r3,-128
  8027c8:	e0bfff17 	ldw	r2,-4(fp)
  8027cc:	d8800015 	stw	r2,0(sp)
  8027d0:	e0800217 	ldw	r2,8(fp)
  8027d4:	d8800115 	stw	r2,4(sp)
  8027d8:	e13ffc17 	ldw	r4,-16(fp)
  8027dc:	e17ffd17 	ldw	r5,-12(fp)
  8027e0:	e1bffe17 	ldw	r6,-8(fp)
  8027e4:	180f883a 	mov	r7,r3
  8027e8:	0802cac0 	call	802cac <vid_print_char_alpha>
      horiz_offset += font[string[i] - 33].bounds_width;
  8027ec:	e0bff917 	ldw	r2,-28(fp)
  8027f0:	e0c00317 	ldw	r3,12(fp)
  8027f4:	1885883a 	add	r2,r3,r2
  8027f8:	10800003 	ldbu	r2,0(r2)
  8027fc:	10803fcc 	andi	r2,r2,255
  802800:	1080201c 	xori	r2,r2,128
  802804:	10bfe004 	addi	r2,r2,-128
  802808:	1004917a 	slli	r2,r2,5
  80280c:	10bef804 	addi	r2,r2,-1056
  802810:	e0c00217 	ldw	r3,8(fp)
  802814:	1885883a 	add	r2,r3,r2
  802818:	10c00417 	ldw	r3,16(r2)
  80281c:	e0bffc17 	ldw	r2,-16(fp)
  802820:	1885883a 	add	r2,r3,r2
  802824:	e0bffc15 	stw	r2,-16(fp)
    }
    i++;
  802828:	e0bff917 	ldw	r2,-28(fp)
  80282c:	10800044 	addi	r2,r2,1
  802830:	e0bff915 	stw	r2,-28(fp)
  int original_horiz_offset;

  original_horiz_offset = horiz_offset;

  // Print until we hit the '\0' char.
  while (string[i]) {
  802834:	e0bff917 	ldw	r2,-28(fp)
  802838:	e0c00317 	ldw	r3,12(fp)
  80283c:	1885883a 	add	r2,r3,r2
  802840:	10800003 	ldbu	r2,0(r2)
  802844:	10803fcc 	andi	r2,r2,255
  802848:	1080201c 	xori	r2,r2,128
  80284c:	10bfe004 	addi	r2,r2,-128
  802850:	103f811e 	bne	r2,zero,802658 <__reset+0xff801658>
      vid_print_char_alpha (horiz_offset, vert_offset, color, string[i], background_color, font);
      horiz_offset += font[string[i] - 33].bounds_width;
    }
    i++;
  }
  return (0);
  802854:	0005883a 	mov	r2,zero
}
  802858:	e037883a 	mov	sp,fp
  80285c:	dfc00117 	ldw	ra,4(sp)
  802860:	df000017 	ldw	fp,0(sp)
  802864:	dec00204 	addi	sp,sp,8
  802868:	f800283a 	ret

0080286c <seperate_color_channels>:
*           the function working on pointers.
*
******************************************************************/

__inline__ int seperate_color_channels(int color_depth, unsigned char * color, unsigned char * red, unsigned char * green, unsigned char * blue)
{
  80286c:	defff904 	addi	sp,sp,-28
  802870:	df000615 	stw	fp,24(sp)
  802874:	df000604 	addi	fp,sp,24
  802878:	e13ffc15 	stw	r4,-16(fp)
  80287c:	e17ffd15 	stw	r5,-12(fp)
  802880:	e1bffe15 	stw	r6,-8(fp)
  802884:	e1ffff15 	stw	r7,-4(fp)
  int return_value;  // error checking in case anyone is listening
  unsigned short temp_color = 0;
  802888:	e03ffb0d 	sth	zero,-20(fp)

  if (color_depth == 16)  // R(5):G(6):B(5)
  80288c:	e0bffc17 	ldw	r2,-16(fp)
  802890:	10800418 	cmpnei	r2,r2,16
  802894:	1000221e 	bne	r2,zero,802920 <seperate_color_channels+0xb4>
  {
    temp_color = *color++;        // get the first half of the 16 bit color
  802898:	e0bffd17 	ldw	r2,-12(fp)
  80289c:	10c00044 	addi	r3,r2,1
  8028a0:	e0fffd15 	stw	r3,-12(fp)
  8028a4:	10800003 	ldbu	r2,0(r2)
  8028a8:	10803fcc 	andi	r2,r2,255
  8028ac:	e0bffb0d 	sth	r2,-20(fp)
    temp_color += (*color << 8);  // get the second half of the 16 bit color
  8028b0:	e0bffd17 	ldw	r2,-12(fp)
  8028b4:	10800003 	ldbu	r2,0(r2)
  8028b8:	10803fcc 	andi	r2,r2,255
  8028bc:	1004923a 	slli	r2,r2,8
  8028c0:	1007883a 	mov	r3,r2
  8028c4:	e0bffb0b 	ldhu	r2,-20(fp)
  8028c8:	1885883a 	add	r2,r3,r2
  8028cc:	e0bffb0d 	sth	r2,-20(fp)
    *blue = temp_color & 0x1F;
  8028d0:	e0bffb0b 	ldhu	r2,-20(fp)
  8028d4:	108007cc 	andi	r2,r2,31
  8028d8:	1007883a 	mov	r3,r2
  8028dc:	e0800117 	ldw	r2,4(fp)
  8028e0:	10c00005 	stb	r3,0(r2)
    *green = (temp_color >> 5) & 0x3F;
  8028e4:	e0bffb0b 	ldhu	r2,-20(fp)
  8028e8:	1004d17a 	srli	r2,r2,5
  8028ec:	10800fcc 	andi	r2,r2,63
  8028f0:	1007883a 	mov	r3,r2
  8028f4:	e0bfff17 	ldw	r2,-4(fp)
  8028f8:	10c00005 	stb	r3,0(r2)
    *red = (temp_color >> 11) & 0x1F;
  8028fc:	e0bffb0b 	ldhu	r2,-20(fp)
  802900:	1004d2fa 	srli	r2,r2,11
  802904:	108007cc 	andi	r2,r2,31
  802908:	1007883a 	mov	r3,r2
  80290c:	e0bffe17 	ldw	r2,-8(fp)
  802910:	10c00005 	stb	r3,0(r2)
    return_value = 1;
  802914:	00800044 	movi	r2,1
  802918:	e0bffa15 	stw	r2,-24(fp)
  80291c:	00002006 	br	8029a0 <seperate_color_channels+0x134>
  }
  else if ((color_depth == 24) || (color_depth == 32))  // R(8):G(8):B(8) packed/unpacked
  802920:	e0bffc17 	ldw	r2,-16(fp)
  802924:	10800620 	cmpeqi	r2,r2,24
  802928:	1000031e 	bne	r2,zero,802938 <seperate_color_channels+0xcc>
  80292c:	e0bffc17 	ldw	r2,-16(fp)
  802930:	10800818 	cmpnei	r2,r2,32
  802934:	1000131e 	bne	r2,zero,802984 <seperate_color_channels+0x118>
  {
    *blue = *color++;
  802938:	e0bffd17 	ldw	r2,-12(fp)
  80293c:	10c00044 	addi	r3,r2,1
  802940:	e0fffd15 	stw	r3,-12(fp)
  802944:	10c00003 	ldbu	r3,0(r2)
  802948:	e0800117 	ldw	r2,4(fp)
  80294c:	10c00005 	stb	r3,0(r2)
    *green = *color++;
  802950:	e0bffd17 	ldw	r2,-12(fp)
  802954:	10c00044 	addi	r3,r2,1
  802958:	e0fffd15 	stw	r3,-12(fp)
  80295c:	10c00003 	ldbu	r3,0(r2)
  802960:	e0bfff17 	ldw	r2,-4(fp)
  802964:	10c00005 	stb	r3,0(r2)
    *red = *color;
  802968:	e0bffd17 	ldw	r2,-12(fp)
  80296c:	10c00003 	ldbu	r3,0(r2)
  802970:	e0bffe17 	ldw	r2,-8(fp)
  802974:	10c00005 	stb	r3,0(r2)
    return_value = 1;
  802978:	00800044 	movi	r2,1
  80297c:	e0bffa15 	stw	r2,-24(fp)
  802980:	00000706 	br	8029a0 <seperate_color_channels+0x134>
  }
  else  // not a valid color depth for this function
  {
    *red = 0;
  802984:	e0bffe17 	ldw	r2,-8(fp)
  802988:	10000005 	stb	zero,0(r2)
    *green = 0;
  80298c:	e0bfff17 	ldw	r2,-4(fp)
  802990:	10000005 	stb	zero,0(r2)
    *blue = 0;
  802994:	e0800117 	ldw	r2,4(fp)
  802998:	10000005 	stb	zero,0(r2)
    return_value = 0;
  80299c:	e03ffa15 	stw	zero,-24(fp)
  }
  return return_value;
  8029a0:	e0bffa17 	ldw	r2,-24(fp)
}
  8029a4:	e037883a 	mov	sp,fp
  8029a8:	df000017 	ldw	fp,0(sp)
  8029ac:	dec00104 	addi	sp,sp,4
  8029b0:	f800283a 	ret

008029b4 <merge_color_channels>:
*           different color formats and packing.
*
******************************************************************/

__inline__ int merge_color_channels(int color_depth, unsigned char red, unsigned char green, unsigned char blue, unsigned char * color)
{
  8029b4:	defff904 	addi	sp,sp,-28
  8029b8:	df000615 	stw	fp,24(sp)
  8029bc:	df000604 	addi	fp,sp,24
  8029c0:	e13ffc15 	stw	r4,-16(fp)
  8029c4:	2809883a 	mov	r4,r5
  8029c8:	3007883a 	mov	r3,r6
  8029cc:	3805883a 	mov	r2,r7
  8029d0:	e13ffd05 	stb	r4,-12(fp)
  8029d4:	e0fffe05 	stb	r3,-8(fp)
  8029d8:	e0bfff05 	stb	r2,-4(fp)
  int return_value;  // error checking in case anyone is listening
  unsigned short temp_color;

  if (color_depth == 16)  // R(5):G(6):B(5)
  8029dc:	e0bffc17 	ldw	r2,-16(fp)
  8029e0:	10800418 	cmpnei	r2,r2,16
  8029e4:	1000191e 	bne	r2,zero,802a4c <merge_color_channels+0x98>
  {
    temp_color = (blue & 0x1F) | ((green & 0x3F) << 5) | ((red & 0x1F) << 11);  // 16 bit color format
  8029e8:	e0bfff03 	ldbu	r2,-4(fp)
  8029ec:	108007cc 	andi	r2,r2,31
  8029f0:	1007883a 	mov	r3,r2
  8029f4:	e0bffe03 	ldbu	r2,-8(fp)
  8029f8:	10800fcc 	andi	r2,r2,63
  8029fc:	1004917a 	slli	r2,r2,5
  802a00:	1884b03a 	or	r2,r3,r2
  802a04:	1007883a 	mov	r3,r2
  802a08:	e0bffd03 	ldbu	r2,-12(fp)
  802a0c:	100492fa 	slli	r2,r2,11
  802a10:	1884b03a 	or	r2,r3,r2
  802a14:	e0bffb0d 	sth	r2,-20(fp)
    *color++ = temp_color & 0xFF;
  802a18:	e0800117 	ldw	r2,4(fp)
  802a1c:	10c00044 	addi	r3,r2,1
  802a20:	e0c00115 	stw	r3,4(fp)
  802a24:	e0fffb0b 	ldhu	r3,-20(fp)
  802a28:	10c00005 	stb	r3,0(r2)
    *color = (temp_color >> 8) & 0xFF;
  802a2c:	e0bffb0b 	ldhu	r2,-20(fp)
  802a30:	1004d23a 	srli	r2,r2,8
  802a34:	1007883a 	mov	r3,r2
  802a38:	e0800117 	ldw	r2,4(fp)
  802a3c:	10c00005 	stb	r3,0(r2)
    return_value = 1;
  802a40:	00800044 	movi	r2,1
  802a44:	e0bffa15 	stw	r2,-24(fp)
  802a48:	00002106 	br	802ad0 <merge_color_channels+0x11c>
  }
  else if ((color_depth == 24) || (color_depth == 32))  // R(8):G(8):B(8) packed/unpacked
  802a4c:	e0bffc17 	ldw	r2,-16(fp)
  802a50:	10800620 	cmpeqi	r2,r2,24
  802a54:	1000031e 	bne	r2,zero,802a64 <merge_color_channels+0xb0>
  802a58:	e0bffc17 	ldw	r2,-16(fp)
  802a5c:	10800818 	cmpnei	r2,r2,32
  802a60:	1000101e 	bne	r2,zero,802aa4 <merge_color_channels+0xf0>
  {
    *color++ = blue;
  802a64:	e0800117 	ldw	r2,4(fp)
  802a68:	10c00044 	addi	r3,r2,1
  802a6c:	e0c00115 	stw	r3,4(fp)
  802a70:	e0ffff03 	ldbu	r3,-4(fp)
  802a74:	10c00005 	stb	r3,0(r2)
    *color++ = green;
  802a78:	e0800117 	ldw	r2,4(fp)
  802a7c:	10c00044 	addi	r3,r2,1
  802a80:	e0c00115 	stw	r3,4(fp)
  802a84:	e0fffe03 	ldbu	r3,-8(fp)
  802a88:	10c00005 	stb	r3,0(r2)
    *color = red;
  802a8c:	e0800117 	ldw	r2,4(fp)
  802a90:	e0fffd03 	ldbu	r3,-12(fp)
  802a94:	10c00005 	stb	r3,0(r2)
    return_value = 1;
  802a98:	00800044 	movi	r2,1
  802a9c:	e0bffa15 	stw	r2,-24(fp)
  802aa0:	00000b06 	br	802ad0 <merge_color_channels+0x11c>
  }
  else  // not a valid color depth for this function
  {
    *color++ = 0;
  802aa4:	e0800117 	ldw	r2,4(fp)
  802aa8:	10c00044 	addi	r3,r2,1
  802aac:	e0c00115 	stw	r3,4(fp)
  802ab0:	10000005 	stb	zero,0(r2)
    *color++ = 0;
  802ab4:	e0800117 	ldw	r2,4(fp)
  802ab8:	10c00044 	addi	r3,r2,1
  802abc:	e0c00115 	stw	r3,4(fp)
  802ac0:	10000005 	stb	zero,0(r2)
    *color = 0;
  802ac4:	e0800117 	ldw	r2,4(fp)
  802ac8:	10000005 	stb	zero,0(r2)
    return_value = 0;
  802acc:	e03ffa15 	stw	zero,-24(fp)
  }
  return return_value;
  802ad0:	e0bffa17 	ldw	r2,-24(fp)
}
  802ad4:	e037883a 	mov	sp,fp
  802ad8:	df000017 	ldw	fp,0(sp)
  802adc:	dec00104 	addi	sp,sp,4
  802ae0:	f800283a 	ret

00802ae4 <alpha_blending>:
*           the font color with the background color.
*
******************************************************************/

__inline__ int alpha_blending (int horiz_offset, int vert_offset, int background_color, unsigned char alpha, unsigned char *red, unsigned char *green, unsigned char *blue)
{
  802ae4:	defff304 	addi	sp,sp,-52
  802ae8:	dfc00c15 	stw	ra,48(sp)
  802aec:	df000b15 	stw	fp,44(sp)
  802af0:	df000b04 	addi	fp,sp,44
  802af4:	e13ffc15 	stw	r4,-16(fp)
  802af8:	e17ffd15 	stw	r5,-12(fp)
  802afc:	e1bffe15 	stw	r6,-8(fp)
  802b00:	3805883a 	mov	r2,r7
  802b04:	e0bfff05 	stb	r2,-4(fp)
  int return_value;
  unsigned char background_red, background_green, background_blue;
  unsigned int blended_red, blended_green, blended_blue;  // short since there may be overflow to be clipped

  // set red, green, and blue of the background color
  if(background_color == CLEAR_BACKGROUND)
  802b08:	e0bffe17 	ldw	r2,-8(fp)
  802b0c:	10bfffd8 	cmpnei	r2,r2,-1
  802b10:	1000141e 	bne	r2,zero,802b64 <alpha_blending+0x80>
  {
	alt_u16 color= LCD_GetPoint(horiz_offset ,vert_offset);
  802b14:	e0bffc17 	ldw	r2,-16(fp)
  802b18:	10ffffcc 	andi	r3,r2,65535
  802b1c:	e0bffd17 	ldw	r2,-12(fp)
  802b20:	10bfffcc 	andi	r2,r2,65535
  802b24:	1809883a 	mov	r4,r3
  802b28:	100b883a 	mov	r5,r2
  802b2c:	0800fec0 	call	800fec <LCD_GetPoint>
  802b30:	e0bff60d 	sth	r2,-40(fp)
	background_red=(color>>11) & 0x1F;
  802b34:	e0bff60b 	ldhu	r2,-40(fp)
  802b38:	1004d2fa 	srli	r2,r2,11
  802b3c:	108007cc 	andi	r2,r2,31
  802b40:	e0bffb05 	stb	r2,-20(fp)
	background_green=(color>>5) &0x3F;
  802b44:	e0bff60b 	ldhu	r2,-40(fp)
  802b48:	1004d17a 	srli	r2,r2,5
  802b4c:	10800fcc 	andi	r2,r2,63
  802b50:	e0bffb45 	stb	r2,-19(fp)
	background_blue=(color) &0x1F;
  802b54:	e0bff60b 	ldhu	r2,-40(fp)
  802b58:	108007cc 	andi	r2,r2,31
  802b5c:	e0bffb85 	stb	r2,-18(fp)
  802b60:	00000806 	br	802b84 <alpha_blending+0xa0>
  }
  else
  {
    seperate_color_channels(16, (unsigned char *)&background_color, &background_red, &background_green, &background_blue);
  802b64:	e17ffe04 	addi	r5,fp,-8
  802b68:	e1bffb04 	addi	r6,fp,-20
  802b6c:	e0fffb44 	addi	r3,fp,-19
  802b70:	e0bffb84 	addi	r2,fp,-18
  802b74:	d8800015 	stw	r2,0(sp)
  802b78:	01000404 	movi	r4,16
  802b7c:	180f883a 	mov	r7,r3
  802b80:	080286c0 	call	80286c <seperate_color_channels>
  }

  // these blended colors may need to be clipped to the maximum amounts the color depth supports
  blended_red = (((*red) * alpha) + (background_red * (255 - alpha)))/255;
  802b84:	e0800217 	ldw	r2,8(fp)
  802b88:	10800003 	ldbu	r2,0(r2)
  802b8c:	10c03fcc 	andi	r3,r2,255
  802b90:	e0bfff03 	ldbu	r2,-4(fp)
  802b94:	1887383a 	mul	r3,r3,r2
  802b98:	e0bffb03 	ldbu	r2,-20(fp)
  802b9c:	11003fcc 	andi	r4,r2,255
  802ba0:	e0bfff03 	ldbu	r2,-4(fp)
  802ba4:	01403fc4 	movi	r5,255
  802ba8:	2885c83a 	sub	r2,r5,r2
  802bac:	2085383a 	mul	r2,r4,r2
  802bb0:	1887883a 	add	r3,r3,r2
  802bb4:	00803fc4 	movi	r2,255
  802bb8:	1885283a 	div	r2,r3,r2
  802bbc:	e0bff715 	stw	r2,-36(fp)
  blended_green = (((*green) * alpha) + (background_green * (255 - alpha)))/255;
  802bc0:	e0800317 	ldw	r2,12(fp)
  802bc4:	10800003 	ldbu	r2,0(r2)
  802bc8:	10c03fcc 	andi	r3,r2,255
  802bcc:	e0bfff03 	ldbu	r2,-4(fp)
  802bd0:	1887383a 	mul	r3,r3,r2
  802bd4:	e0bffb43 	ldbu	r2,-19(fp)
  802bd8:	11003fcc 	andi	r4,r2,255
  802bdc:	e0bfff03 	ldbu	r2,-4(fp)
  802be0:	01403fc4 	movi	r5,255
  802be4:	2885c83a 	sub	r2,r5,r2
  802be8:	2085383a 	mul	r2,r4,r2
  802bec:	1887883a 	add	r3,r3,r2
  802bf0:	00803fc4 	movi	r2,255
  802bf4:	1885283a 	div	r2,r3,r2
  802bf8:	e0bff815 	stw	r2,-32(fp)
  blended_blue = (((*blue) * alpha) + (background_blue * (255 - alpha)))/255;
  802bfc:	e0800417 	ldw	r2,16(fp)
  802c00:	10800003 	ldbu	r2,0(r2)
  802c04:	10c03fcc 	andi	r3,r2,255
  802c08:	e0bfff03 	ldbu	r2,-4(fp)
  802c0c:	1887383a 	mul	r3,r3,r2
  802c10:	e0bffb83 	ldbu	r2,-18(fp)
  802c14:	11003fcc 	andi	r4,r2,255
  802c18:	e0bfff03 	ldbu	r2,-4(fp)
  802c1c:	01403fc4 	movi	r5,255
  802c20:	2885c83a 	sub	r2,r5,r2
  802c24:	2085383a 	mul	r2,r4,r2
  802c28:	1887883a 	add	r3,r3,r2
  802c2c:	00803fc4 	movi	r2,255
  802c30:	1885283a 	div	r2,r3,r2
  802c34:	e0bff915 	stw	r2,-28(fp)



    *red = (blended_red > 0x1F)? 0x1F: blended_red;
  802c38:	e0bff717 	ldw	r2,-36(fp)
  802c3c:	10c00830 	cmpltui	r3,r2,32
  802c40:	1800011e 	bne	r3,zero,802c48 <alpha_blending+0x164>
  802c44:	008007c4 	movi	r2,31
  802c48:	1007883a 	mov	r3,r2
  802c4c:	e0800217 	ldw	r2,8(fp)
  802c50:	10c00005 	stb	r3,0(r2)
    *green = (blended_green > 0x3F)? 0x3F: blended_green;
  802c54:	e0bff817 	ldw	r2,-32(fp)
  802c58:	10c01030 	cmpltui	r3,r2,64
  802c5c:	1800011e 	bne	r3,zero,802c64 <alpha_blending+0x180>
  802c60:	00800fc4 	movi	r2,63
  802c64:	1007883a 	mov	r3,r2
  802c68:	e0800317 	ldw	r2,12(fp)
  802c6c:	10c00005 	stb	r3,0(r2)
    *blue = (blended_blue > 0x1F)? 0x1F: blended_blue;
  802c70:	e0bff917 	ldw	r2,-28(fp)
  802c74:	10c00830 	cmpltui	r3,r2,32
  802c78:	1800011e 	bne	r3,zero,802c80 <alpha_blending+0x19c>
  802c7c:	008007c4 	movi	r2,31
  802c80:	1007883a 	mov	r3,r2
  802c84:	e0800417 	ldw	r2,16(fp)
  802c88:	10c00005 	stb	r3,0(r2)
    return_value = 1;
  802c8c:	00800044 	movi	r2,1
  802c90:	e0bffa15 	stw	r2,-24(fp)


  return return_value;
  802c94:	e0bffa17 	ldw	r2,-24(fp)
}
  802c98:	e037883a 	mov	sp,fp
  802c9c:	dfc00117 	ldw	ra,4(sp)
  802ca0:	df000017 	ldw	fp,0(sp)
  802ca4:	dec00204 	addi	sp,sp,8
  802ca8:	f800283a 	ret

00802cac <vid_print_char_alpha>:
*           screen using the specified font and color.
*
******************************************************************/

int vid_print_char_alpha (int horiz_offset, int vert_offset, int color, char character, int background_color, struct abc_font_struct font[])
{
  802cac:	defff104 	addi	sp,sp,-60
  802cb0:	dfc00e15 	stw	ra,56(sp)
  802cb4:	df000d15 	stw	fp,52(sp)
  802cb8:	df000d04 	addi	fp,sp,52
  802cbc:	e13ffc15 	stw	r4,-16(fp)
  802cc0:	e17ffd15 	stw	r5,-12(fp)
  802cc4:	e1bffe15 	stw	r6,-8(fp)
  802cc8:	3805883a 	mov	r2,r7
  802ccc:	e0bfff05 	stb	r2,-4(fp)
  unsigned char original_red, original_blue, original_green;
  unsigned char red, green, blue;
  int new_color;

  // Assign the pointer of the font bitmap
  alpha = font[character-33].char_alpha_map;
  802cd0:	e0bfff07 	ldb	r2,-4(fp)
  802cd4:	1004917a 	slli	r2,r2,5
  802cd8:	10bef804 	addi	r2,r2,-1056
  802cdc:	e0c00317 	ldw	r3,12(fp)
  802ce0:	1885883a 	add	r2,r3,r2
  802ce4:	10800617 	ldw	r2,24(r2)
  802ce8:	e0bff815 	stw	r2,-32(fp)

  // set red, green, and blue of the font color
  seperate_color_channels(16, (char *)&color, &original_red, &original_green, &original_blue);
  802cec:	e17ffe04 	addi	r5,fp,-8
  802cf0:	e1bff904 	addi	r6,fp,-28
  802cf4:	e0fff984 	addi	r3,fp,-26
  802cf8:	e0bff944 	addi	r2,fp,-27
  802cfc:	d8800015 	stw	r2,0(sp)
  802d00:	01000404 	movi	r4,16
  802d04:	180f883a 	mov	r7,r3
  802d08:	080286c0 	call	80286c <seperate_color_channels>

  for(i = 0; i < font[character-33].bounds_height; i++) {
  802d0c:	e03ff615 	stw	zero,-40(fp)
  802d10:	00004006 	br	802e14 <vid_print_char_alpha+0x168>
    for (j = 0; j < font[character-33].bounds_width; j++) {
  802d14:	e03ff715 	stw	zero,-36(fp)
  802d18:	00003306 	br	802de8 <vid_print_char_alpha+0x13c>
      red = original_red;
  802d1c:	e0bff903 	ldbu	r2,-28(fp)
  802d20:	e0bff9c5 	stb	r2,-25(fp)
      green = original_green;
  802d24:	e0bff983 	ldbu	r2,-26(fp)
  802d28:	e0bffa05 	stb	r2,-24(fp)
      blue = original_blue;
  802d2c:	e0bff943 	ldbu	r2,-27(fp)
  802d30:	e0bffa45 	stb	r2,-23(fp)

      // send in the font alpha channel and the colour channels for the blending to occur
      alpha_blending ((horiz_offset + j), (vert_offset + i), background_color, *alpha, &red, &green, &blue);
  802d34:	e0fffc17 	ldw	r3,-16(fp)
  802d38:	e0bff717 	ldw	r2,-36(fp)
  802d3c:	1889883a 	add	r4,r3,r2
  802d40:	e0fffd17 	ldw	r3,-12(fp)
  802d44:	e0bff617 	ldw	r2,-40(fp)
  802d48:	188b883a 	add	r5,r3,r2
  802d4c:	e0bff817 	ldw	r2,-32(fp)
  802d50:	10800003 	ldbu	r2,0(r2)
  802d54:	10c03fcc 	andi	r3,r2,255
  802d58:	e0bff9c4 	addi	r2,fp,-25
  802d5c:	d8800015 	stw	r2,0(sp)
  802d60:	e0bffa04 	addi	r2,fp,-24
  802d64:	d8800115 	stw	r2,4(sp)
  802d68:	e0bffa44 	addi	r2,fp,-23
  802d6c:	d8800215 	stw	r2,8(sp)
  802d70:	e1800217 	ldw	r6,8(fp)
  802d74:	180f883a 	mov	r7,r3
  802d78:	0802ae40 	call	802ae4 <alpha_blending>

      // take the blended pixel and merge the color channels back into a single pixel value
      merge_color_channels(16, red, green, blue, (char *)&new_color);
  802d7c:	e0bff9c3 	ldbu	r2,-25(fp)
  802d80:	11403fcc 	andi	r5,r2,255
  802d84:	e0bffa03 	ldbu	r2,-24(fp)
  802d88:	11803fcc 	andi	r6,r2,255
  802d8c:	e0bffa43 	ldbu	r2,-23(fp)
  802d90:	10c03fcc 	andi	r3,r2,255
  802d94:	e0bffb04 	addi	r2,fp,-20
  802d98:	d8800015 	stw	r2,0(sp)
  802d9c:	01000404 	movi	r4,16
  802da0:	180f883a 	mov	r7,r3
  802da4:	08029b40 	call	8029b4 <merge_color_channels>

      // write the new pixel value out to memory overwriting the current background
      vid_set_pixel((horiz_offset + j), (vert_offset + i), new_color);
  802da8:	e0fffc17 	ldw	r3,-16(fp)
  802dac:	e0bff717 	ldw	r2,-36(fp)
  802db0:	1889883a 	add	r4,r3,r2
  802db4:	e0fffd17 	ldw	r3,-12(fp)
  802db8:	e0bff617 	ldw	r2,-40(fp)
  802dbc:	1885883a 	add	r2,r3,r2
  802dc0:	e0fffb17 	ldw	r3,-20(fp)
  802dc4:	100b883a 	mov	r5,r2
  802dc8:	180d883a 	mov	r6,r3
  802dcc:	08017300 	call	801730 <vid_set_pixel>

      alpha++;
  802dd0:	e0bff817 	ldw	r2,-32(fp)
  802dd4:	10800044 	addi	r2,r2,1
  802dd8:	e0bff815 	stw	r2,-32(fp)

  // set red, green, and blue of the font color
  seperate_color_channels(16, (char *)&color, &original_red, &original_green, &original_blue);

  for(i = 0; i < font[character-33].bounds_height; i++) {
    for (j = 0; j < font[character-33].bounds_width; j++) {
  802ddc:	e0bff717 	ldw	r2,-36(fp)
  802de0:	10800044 	addi	r2,r2,1
  802de4:	e0bff715 	stw	r2,-36(fp)
  802de8:	e0fff717 	ldw	r3,-36(fp)
  802dec:	e0bfff07 	ldb	r2,-4(fp)
  802df0:	1004917a 	slli	r2,r2,5
  802df4:	10bef804 	addi	r2,r2,-1056
  802df8:	e1000317 	ldw	r4,12(fp)
  802dfc:	2085883a 	add	r2,r4,r2
  802e00:	10800417 	ldw	r2,16(r2)
  802e04:	18bfc536 	bltu	r3,r2,802d1c <__reset+0xff801d1c>
  alpha = font[character-33].char_alpha_map;

  // set red, green, and blue of the font color
  seperate_color_channels(16, (char *)&color, &original_red, &original_green, &original_blue);

  for(i = 0; i < font[character-33].bounds_height; i++) {
  802e08:	e0bff617 	ldw	r2,-40(fp)
  802e0c:	10800044 	addi	r2,r2,1
  802e10:	e0bff615 	stw	r2,-40(fp)
  802e14:	e0fff617 	ldw	r3,-40(fp)
  802e18:	e0bfff07 	ldb	r2,-4(fp)
  802e1c:	1004917a 	slli	r2,r2,5
  802e20:	10bef804 	addi	r2,r2,-1056
  802e24:	e1000317 	ldw	r4,12(fp)
  802e28:	2085883a 	add	r2,r4,r2
  802e2c:	10800517 	ldw	r2,20(r2)
  802e30:	18bfb836 	bltu	r3,r2,802d14 <__reset+0xff801d14>

      alpha++;
    }
  }

  return(0);
  802e34:	0005883a 	mov	r2,zero
}
  802e38:	e037883a 	mov	sp,fp
  802e3c:	dfc00117 	ldw	ra,4(sp)
  802e40:	df000017 	ldw	fp,0(sp)
  802e44:	dec00204 	addi	sp,sp,8
  802e48:	f800283a 	ret

00802e4c <vid_string_pixel_length_alpha>:
*           font.  Useful for centering text, and determining the
*           appropriate size of a text box or button.
*
******************************************************************/
int vid_string_pixel_length_alpha( struct abc_font_struct font[], char string[] )
{
  802e4c:	defffb04 	addi	sp,sp,-20
  802e50:	df000415 	stw	fp,16(sp)
  802e54:	df000404 	addi	fp,sp,16
  802e58:	e13ffe15 	stw	r4,-8(fp)
  802e5c:	e17fff15 	stw	r5,-4(fp)
  int i = 0;
  802e60:	e03ffc15 	stw	zero,-16(fp)
  int length = 0;
  802e64:	e03ffd15 	stw	zero,-12(fp)

  // Count the length of the string
  for( i = 0; string[i] != '\0'; i++ )
  802e68:	e03ffc15 	stw	zero,-16(fp)
  802e6c:	00002206 	br	802ef8 <vid_string_pixel_length_alpha+0xac>
  {
    if( string[i] == ' ' )
  802e70:	e0bffc17 	ldw	r2,-16(fp)
  802e74:	e0ffff17 	ldw	r3,-4(fp)
  802e78:	1885883a 	add	r2,r3,r2
  802e7c:	10800003 	ldbu	r2,0(r2)
  802e80:	10803fcc 	andi	r2,r2,255
  802e84:	1080201c 	xori	r2,r2,128
  802e88:	10bfe004 	addi	r2,r2,-128
  802e8c:	10800818 	cmpnei	r2,r2,32
  802e90:	1000071e 	bne	r2,zero,802eb0 <vid_string_pixel_length_alpha+0x64>
    {
      // Here we just add the length of the '-' character
      length += font[45 - 33].bounds_width;
  802e94:	e0bffe17 	ldw	r2,-8(fp)
  802e98:	10806004 	addi	r2,r2,384
  802e9c:	10c00417 	ldw	r3,16(r2)
  802ea0:	e0bffd17 	ldw	r2,-12(fp)
  802ea4:	1885883a 	add	r2,r3,r2
  802ea8:	e0bffd15 	stw	r2,-12(fp)
  802eac:	00000f06 	br	802eec <vid_string_pixel_length_alpha+0xa0>
    }
    else
    {
      length += font[string[i] - 33].bounds_width;
  802eb0:	e0bffc17 	ldw	r2,-16(fp)
  802eb4:	e0ffff17 	ldw	r3,-4(fp)
  802eb8:	1885883a 	add	r2,r3,r2
  802ebc:	10800003 	ldbu	r2,0(r2)
  802ec0:	10803fcc 	andi	r2,r2,255
  802ec4:	1080201c 	xori	r2,r2,128
  802ec8:	10bfe004 	addi	r2,r2,-128
  802ecc:	1004917a 	slli	r2,r2,5
  802ed0:	10bef804 	addi	r2,r2,-1056
  802ed4:	e0fffe17 	ldw	r3,-8(fp)
  802ed8:	1885883a 	add	r2,r3,r2
  802edc:	10c00417 	ldw	r3,16(r2)
  802ee0:	e0bffd17 	ldw	r2,-12(fp)
  802ee4:	1885883a 	add	r2,r3,r2
  802ee8:	e0bffd15 	stw	r2,-12(fp)
{
  int i = 0;
  int length = 0;

  // Count the length of the string
  for( i = 0; string[i] != '\0'; i++ )
  802eec:	e0bffc17 	ldw	r2,-16(fp)
  802ef0:	10800044 	addi	r2,r2,1
  802ef4:	e0bffc15 	stw	r2,-16(fp)
  802ef8:	e0bffc17 	ldw	r2,-16(fp)
  802efc:	e0ffff17 	ldw	r3,-4(fp)
  802f00:	1885883a 	add	r2,r3,r2
  802f04:	10800003 	ldbu	r2,0(r2)
  802f08:	10803fcc 	andi	r2,r2,255
  802f0c:	1080201c 	xori	r2,r2,128
  802f10:	10bfe004 	addi	r2,r2,-128
  802f14:	103fd61e 	bne	r2,zero,802e70 <__reset+0xff801e70>
    else
    {
      length += font[string[i] - 33].bounds_width;
    }
  }
  return( length );
  802f18:	e0bffd17 	ldw	r2,-12(fp)
}
  802f1c:	e037883a 	mov	sp,fp
  802f20:	df000017 	ldw	fp,0(sp)
  802f24:	dec00104 	addi	sp,sp,4
  802f28:	f800283a 	ret

00802f2c <main>:

void init_system_();


int main(void)
{     
  802f2c:	defff804 	addi	sp,sp,-32
  802f30:	dfc00715 	stw	ra,28(sp)
  802f34:	df000615 	stw	fp,24(sp)
  802f38:	dc800515 	stw	r18,20(sp)
  802f3c:	dc400415 	stw	r17,16(sp)
  802f40:	dc000315 	stw	r16,12(sp)
  802f44:	df000604 	addi	fp,sp,24
    char event_touch=-1;
  802f48:	00bfffc4 	movi	r2,-1
  802f4c:	e0bffa05 	stb	r2,-24(fp)
    int screen_x,screen_y;

    init_system_();
  802f50:	08030180 	call	803018 <init_system_>
    LCD_Clear(White);
  802f54:	013fffd4 	movui	r4,65535
  802f58:	0800d280 	call	800d28 <LCD_Clear>
    while (1)  
   {

    	event_touch=event_is_up(&screen_x, &screen_y);
  802f5c:	e0fffb04 	addi	r3,fp,-20
  802f60:	e0bffc04 	addi	r2,fp,-16
  802f64:	1809883a 	mov	r4,r3
  802f68:	100b883a 	mov	r5,r2
  802f6c:	08045440 	call	804544 <event_is_up>
  802f70:	e0bffa05 	stb	r2,-24(fp)
    	if(event_touch==0){// event down
  802f74:	e0bffa07 	ldb	r2,-24(fp)
  802f78:	10001f1e 	bne	r2,zero,802ff8 <main+0xcc>
    		TP_DrawPoint(screen_x,screen_y,RGB565CONVERT(rand()%255,rand()%255,rand()%255) );
  802f7c:	e0bffb17 	ldw	r2,-20(fp)
  802f80:	1025883a 	mov	r18,r2
  802f84:	e0bffc17 	ldw	r2,-16(fp)
  802f88:	1023883a 	mov	r17,r2
  802f8c:	0806db80 	call	806db8 <rand>
  802f90:	00c03fc4 	movi	r3,255
  802f94:	10c7283a 	div	r3,r2,r3
  802f98:	18c03fe4 	muli	r3,r3,255
  802f9c:	10c5c83a 	sub	r2,r2,r3
  802fa0:	1005d0fa 	srai	r2,r2,3
  802fa4:	102092fa 	slli	r16,r2,11
  802fa8:	0806db80 	call	806db8 <rand>
  802fac:	00c03fc4 	movi	r3,255
  802fb0:	10c7283a 	div	r3,r2,r3
  802fb4:	18c03fe4 	muli	r3,r3,255
  802fb8:	10c5c83a 	sub	r2,r2,r3
  802fbc:	1005d0ba 	srai	r2,r2,2
  802fc0:	1004917a 	slli	r2,r2,5
  802fc4:	80a0b03a 	or	r16,r16,r2
  802fc8:	0806db80 	call	806db8 <rand>
  802fcc:	00c03fc4 	movi	r3,255
  802fd0:	10c7283a 	div	r3,r2,r3
  802fd4:	18c03fe4 	muli	r3,r3,255
  802fd8:	10c5c83a 	sub	r2,r2,r3
  802fdc:	1005d0fa 	srai	r2,r2,3
  802fe0:	8084b03a 	or	r2,r16,r2
  802fe4:	9009883a 	mov	r4,r18
  802fe8:	880b883a 	mov	r5,r17
  802fec:	100d883a 	mov	r6,r2
  802ff0:	08033680 	call	803368 <TP_DrawPoint>
  802ff4:	00000506 	br	80300c <main+0xe0>
    	}
    	else if(event_touch==1){// event up
  802ff8:	e0bffa07 	ldb	r2,-24(fp)
  802ffc:	10800058 	cmpnei	r2,r2,1
  803000:	1000021e 	bne	r2,zero,80300c <main+0xe0>
    		LCD_Clear(White);
  803004:	013fffd4 	movui	r4,65535
  803008:	0800d280 	call	800d28 <LCD_Clear>
    	}
    	delay_ms(5);//XXXXXXXXXXXXXXXXXXXXXXXXXXXXXXXX
  80300c:	01000144 	movi	r4,5
  803010:	08025d00 	call	8025d0 <delay_ms>
    	//   vid_draw_box (0, 0, 100, 100, RED_16,DO_FILL);
    	//   vid_print_string(0, 0, WHITE_16, cour10_font, "Hola Peter");
    	//   vid_draw_circle(150, 100, 50, BLUE_16, DO_FILL);
    	//   vid_print_string_alpha(0, 100, YELLOW_16, CLEAR_BACKGROUND, &tahomabold_20, "Fabio Gay");

  }
  803014:	003fd106 	br	802f5c <__reset+0xff801f5c>

00803018 <init_system_>:
   

	return 0;
}

void init_system_(){
  803018:	defffe04 	addi	sp,sp,-8
  80301c:	dfc00115 	stw	ra,4(sp)
  803020:	df000015 	stw	fp,0(sp)
  803024:	d839883a 	mov	fp,sp
    IOWR_ALTERA_AVALON_PIO_DATA(BL_P_BASE, 1);
  803028:	00c00044 	movi	r3,1
  80302c:	00804034 	movhi	r2,256
  803030:	10883804 	addi	r2,r2,8416
  803034:	10c00035 	stwio	r3,0(r2)
    IOWR_ALTERA_AVALON_PIO_DATA(BL_N_BASE, 0);
  803038:	0007883a 	mov	r3,zero
  80303c:	00804034 	movhi	r2,256
  803040:	10883c04 	addi	r2,r2,8432
  803044:	10c00035 	stwio	r3,0(r2)

    TP_Init();
  803048:	08030b00 	call	8030b0 <TP_Init>
	LCD_Initializtion();
  80304c:	080069c0 	call	80069c <LCD_Initializtion>

    LCD_Clear(Blue);
  803050:	010007c4 	movi	r4,31
  803054:	0800d280 	call	800d28 <LCD_Clear>
    LCD_Clear(Yellow);
  803058:	013ff814 	movui	r4,65504
  80305c:	0800d280 	call	800d28 <LCD_Clear>
    LCD_Clear(White);
  803060:	013fffd4 	movui	r4,65535
  803064:	0800d280 	call	800d28 <LCD_Clear>
    LCD_Clear(Black);
  803068:	0009883a 	mov	r4,zero
  80306c:	0800d280 	call	800d28 <LCD_Clear>
    LCD_Clear(Magenta);
  803070:	013e07d4 	movui	r4,63519
  803074:	0800d280 	call	800d28 <LCD_Clear>
    LCD_Clear(Red);
  803078:	013e0014 	movui	r4,63488
  80307c:	0800d280 	call	800d28 <LCD_Clear>
    LCD_Clear(Green);
  803080:	0101f804 	movi	r4,2016
  803084:	0800d280 	call	800d28 <LCD_Clear>
    LCD_Clear(Cyan);
  803088:	011fffc4 	movi	r4,32767
  80308c:	0800d280 	call	800d28 <LCD_Clear>

    auto_calibration();
  803090:	08044a40 	call	8044a4 <auto_calibration>

    LCD_Clear(Black);
  803094:	0009883a 	mov	r4,zero
  803098:	0800d280 	call	800d28 <LCD_Clear>
}
  80309c:	e037883a 	mov	sp,fp
  8030a0:	dfc00117 	ldw	ra,4(sp)
  8030a4:	df000017 	ldw	fp,0(sp)
  8030a8:	dec00204 	addi	sp,sp,8
  8030ac:	f800283a 	ret

008030b0 <TP_Init>:
* Output         : None
* Return         : None
* Attention      : None
*******************************************************************************/
void TP_Init(void) 
{
  8030b0:	deffff04 	addi	sp,sp,-4
  8030b4:	df000015 	stw	fp,0(sp)
  8030b8:	d839883a 	mov	fp,sp
  TP_CS(1); 
  8030bc:	00c00044 	movi	r3,1
  8030c0:	00804034 	movhi	r2,256
  8030c4:	10881c04 	addi	r2,r2,8304
  8030c8:	10c00035 	stwio	r3,0(r2)
  TOUCH_SPI_INIT; 
  8030cc:	0007883a 	mov	r3,zero
  8030d0:	00804034 	movhi	r2,256
  8030d4:	10880b04 	addi	r2,r2,8236
  8030d8:	10c00035 	stwio	r3,0(r2)
} 
  8030dc:	e037883a 	mov	sp,fp
  8030e0:	df000017 	ldw	fp,0(sp)
  8030e4:	dec00104 	addi	sp,sp,4
  8030e8:	f800283a 	ret

008030ec <DelayUS>:
* Output         : None
* Return         : None
* Attention      : None
*******************************************************************************/
void DelayUS(alt_u32 cnt)
{
  8030ec:	defffd04 	addi	sp,sp,-12
  8030f0:	dfc00215 	stw	ra,8(sp)
  8030f4:	df000115 	stw	fp,4(sp)
  8030f8:	df000104 	addi	fp,sp,4
  8030fc:	e13fff15 	stw	r4,-4(fp)
   usleep(cnt);
  803100:	e13fff17 	ldw	r4,-4(fp)
  803104:	0806f500 	call	806f50 <usleep>
}
  803108:	e037883a 	mov	sp,fp
  80310c:	dfc00117 	ldw	ra,4(sp)
  803110:	df000017 	ldw	fp,0(sp)
  803114:	dec00204 	addi	sp,sp,8
  803118:	f800283a 	ret

0080311c <WR_CMD>:
* Output         : None
* Return         : None
* Attention      : None
*******************************************************************************/
void WR_CMD (alt_u8 cmd)  
{ 
  80311c:	defffa04 	addi	sp,sp,-24
  803120:	dfc00515 	stw	ra,20(sp)
  803124:	df000415 	stw	fp,16(sp)
  803128:	df000404 	addi	fp,sp,16
  80312c:	2005883a 	mov	r2,r4
  803130:	e0bfff05 	stb	r2,-4(fp)
 alt_avalon_spi_command(SPI_TOUCH_BASE,0,1,&cmd,0,NULL,ALT_AVALON_SPI_COMMAND_MERGE);
  803134:	d8000015 	stw	zero,0(sp)
  803138:	d8000115 	stw	zero,4(sp)
  80313c:	00800044 	movi	r2,1
  803140:	d8800215 	stw	r2,8(sp)
  803144:	01004034 	movhi	r4,256
  803148:	21080804 	addi	r4,r4,8224
  80314c:	000b883a 	mov	r5,zero
  803150:	01800044 	movi	r6,1
  803154:	e1ffff04 	addi	r7,fp,-4
  803158:	08107640 	call	810764 <alt_avalon_spi_command>
} 
  80315c:	e037883a 	mov	sp,fp
  803160:	dfc00117 	ldw	ra,4(sp)
  803164:	df000017 	ldw	fp,0(sp)
  803168:	dec00204 	addi	sp,sp,8
  80316c:	f800283a 	ret

00803170 <RD_AD>:
* Output         : None
* Return         : 
* Attention      : None
*******************************************************************************/
int RD_AD(void)  
{ 
  803170:	defffa04 	addi	sp,sp,-24
  803174:	dfc00515 	stw	ra,20(sp)
  803178:	df000415 	stw	fp,16(sp)
  80317c:	df000404 	addi	fp,sp,16
  unsigned short buf; 
  alt_u8 temp;
  alt_avalon_spi_command(SPI_TOUCH_BASE,0,0,NULL,1,&temp,ALT_AVALON_SPI_COMMAND_MERGE);
  803180:	00800044 	movi	r2,1
  803184:	d8800015 	stw	r2,0(sp)
  803188:	e0bfff84 	addi	r2,fp,-2
  80318c:	d8800115 	stw	r2,4(sp)
  803190:	00800044 	movi	r2,1
  803194:	d8800215 	stw	r2,8(sp)
  803198:	01004034 	movhi	r4,256
  80319c:	21080804 	addi	r4,r4,8224
  8031a0:	000b883a 	mov	r5,zero
  8031a4:	000d883a 	mov	r6,zero
  8031a8:	000f883a 	mov	r7,zero
  8031ac:	08107640 	call	810764 <alt_avalon_spi_command>
   
  buf=((alt_u16)temp)<<8; 
  8031b0:	e0bfff83 	ldbu	r2,-2(fp)
  8031b4:	10803fcc 	andi	r2,r2,255
  8031b8:	1004923a 	slli	r2,r2,8
  8031bc:	e0bfff0d 	sth	r2,-4(fp)
  DelayUS(1);
  8031c0:	01000044 	movi	r4,1
  8031c4:	08030ec0 	call	8030ec <DelayUS>
   
  alt_avalon_spi_command(SPI_TOUCH_BASE,0,0,NULL,1,&temp,ALT_AVALON_SPI_COMMAND_MERGE);
  8031c8:	00800044 	movi	r2,1
  8031cc:	d8800015 	stw	r2,0(sp)
  8031d0:	e0bfff84 	addi	r2,fp,-2
  8031d4:	d8800115 	stw	r2,4(sp)
  8031d8:	00800044 	movi	r2,1
  8031dc:	d8800215 	stw	r2,8(sp)
  8031e0:	01004034 	movhi	r4,256
  8031e4:	21080804 	addi	r4,r4,8224
  8031e8:	000b883a 	mov	r5,zero
  8031ec:	000d883a 	mov	r6,zero
  8031f0:	000f883a 	mov	r7,zero
  8031f4:	08107640 	call	810764 <alt_avalon_spi_command>
  
  buf |=(alt_u16)temp; 
  8031f8:	e0bfff83 	ldbu	r2,-2(fp)
  8031fc:	10c03fcc 	andi	r3,r2,255
  803200:	e0bfff0b 	ldhu	r2,-4(fp)
  803204:	1884b03a 	or	r2,r3,r2
  803208:	e0bfff0d 	sth	r2,-4(fp)
  
  buf>>=3; 
  80320c:	e0bfff0b 	ldhu	r2,-4(fp)
  803210:	1004d0fa 	srli	r2,r2,3
  803214:	e0bfff0d 	sth	r2,-4(fp)
  buf&=0xfff; 
  803218:	e0bfff0b 	ldhu	r2,-4(fp)
  80321c:	1083ffcc 	andi	r2,r2,4095
  803220:	e0bfff0d 	sth	r2,-4(fp)
  return buf; 
  803224:	e0bfff0b 	ldhu	r2,-4(fp)
} 
  803228:	e037883a 	mov	sp,fp
  80322c:	dfc00117 	ldw	ra,4(sp)
  803230:	df000017 	ldw	fp,0(sp)
  803234:	dec00204 	addi	sp,sp,8
  803238:	f800283a 	ret

0080323c <Read_X>:
* Output         : None
* Return         : 
* Attention      : None
*******************************************************************************/
int Read_X(void)  
{  
  80323c:	defffd04 	addi	sp,sp,-12
  803240:	dfc00215 	stw	ra,8(sp)
  803244:	df000115 	stw	fp,4(sp)
  803248:	df000104 	addi	fp,sp,4
  int i; 
  TP_CS(0); 
  80324c:	0007883a 	mov	r3,zero
  803250:	00804034 	movhi	r2,256
  803254:	10881c04 	addi	r2,r2,8304
  803258:	10c00035 	stwio	r3,0(r2)
  DelayUS(1); 
  80325c:	01000044 	movi	r4,1
  803260:	08030ec0 	call	8030ec <DelayUS>
  WR_CMD(CHX); 
  803264:	01002404 	movi	r4,144
  803268:	080311c0 	call	80311c <WR_CMD>
  DelayUS(1); 
  80326c:	01000044 	movi	r4,1
  803270:	08030ec0 	call	8030ec <DelayUS>
  i=RD_AD(); 
  803274:	08031700 	call	803170 <RD_AD>
  803278:	e0bfff15 	stw	r2,-4(fp)
  TP_CS(1); 
  80327c:	00c00044 	movi	r3,1
  803280:	00804034 	movhi	r2,256
  803284:	10881c04 	addi	r2,r2,8304
  803288:	10c00035 	stwio	r3,0(r2)
  return i;    
  80328c:	e0bfff17 	ldw	r2,-4(fp)
} 
  803290:	e037883a 	mov	sp,fp
  803294:	dfc00117 	ldw	ra,4(sp)
  803298:	df000017 	ldw	fp,0(sp)
  80329c:	dec00204 	addi	sp,sp,8
  8032a0:	f800283a 	ret

008032a4 <Read_Y>:
* Output         : None
* Return         : 
* Attention      : None
*******************************************************************************/
int Read_Y(void)  
{  
  8032a4:	defffd04 	addi	sp,sp,-12
  8032a8:	dfc00215 	stw	ra,8(sp)
  8032ac:	df000115 	stw	fp,4(sp)
  8032b0:	df000104 	addi	fp,sp,4
  int i; 
  TP_CS(0); 
  8032b4:	0007883a 	mov	r3,zero
  8032b8:	00804034 	movhi	r2,256
  8032bc:	10881c04 	addi	r2,r2,8304
  8032c0:	10c00035 	stwio	r3,0(r2)
  DelayUS(1); 
  8032c4:	01000044 	movi	r4,1
  8032c8:	08030ec0 	call	8030ec <DelayUS>
  WR_CMD(CHY); 
  8032cc:	01003404 	movi	r4,208
  8032d0:	080311c0 	call	80311c <WR_CMD>
  DelayUS(1); 
  8032d4:	01000044 	movi	r4,1
  8032d8:	08030ec0 	call	8030ec <DelayUS>
  i=RD_AD(); 
  8032dc:	08031700 	call	803170 <RD_AD>
  8032e0:	e0bfff15 	stw	r2,-4(fp)
  TP_CS(1); 
  8032e4:	00c00044 	movi	r3,1
  8032e8:	00804034 	movhi	r2,256
  8032ec:	10881c04 	addi	r2,r2,8304
  8032f0:	10c00035 	stwio	r3,0(r2)
  return i;     
  8032f4:	e0bfff17 	ldw	r2,-4(fp)
} 
  8032f8:	e037883a 	mov	sp,fp
  8032fc:	dfc00117 	ldw	ra,4(sp)
  803300:	df000017 	ldw	fp,0(sp)
  803304:	dec00204 	addi	sp,sp,8
  803308:	f800283a 	ret

0080330c <TP_GetAdXY>:
* Output         : None
* Return         : 
* Attention      : None
*******************************************************************************/
void TP_GetAdXY(int *x,int *y)  
{ 
  80330c:	defffa04 	addi	sp,sp,-24
  803310:	dfc00515 	stw	ra,20(sp)
  803314:	df000415 	stw	fp,16(sp)
  803318:	df000404 	addi	fp,sp,16
  80331c:	e13ffe15 	stw	r4,-8(fp)
  803320:	e17fff15 	stw	r5,-4(fp)
  int adx,ady; 
  adx=Read_X(); 
  803324:	080323c0 	call	80323c <Read_X>
  803328:	e0bffc15 	stw	r2,-16(fp)
  DelayUS(1); 
  80332c:	01000044 	movi	r4,1
  803330:	08030ec0 	call	8030ec <DelayUS>
  ady=Read_Y(); 
  803334:	08032a40 	call	8032a4 <Read_Y>
  803338:	e0bffd15 	stw	r2,-12(fp)
  *x=adx; 
  80333c:	e0bffe17 	ldw	r2,-8(fp)
  803340:	e0fffc17 	ldw	r3,-16(fp)
  803344:	10c00015 	stw	r3,0(r2)
  *y=ady; 
  803348:	e0bfff17 	ldw	r2,-4(fp)
  80334c:	e0fffd17 	ldw	r3,-12(fp)
  803350:	10c00015 	stw	r3,0(r2)
} 
  803354:	e037883a 	mov	sp,fp
  803358:	dfc00117 	ldw	ra,4(sp)
  80335c:	df000017 	ldw	fp,0(sp)
  803360:	dec00204 	addi	sp,sp,8
  803364:	f800283a 	ret

00803368 <TP_DrawPoint>:
* Output         : None
* Return         : None
* Attention      : None
*******************************************************************************/
void TP_DrawPoint(alt_u32 Xpos,alt_u32 Ypos, unsigned int color)
{
  803368:	defffa04 	addi	sp,sp,-24
  80336c:	dfc00515 	stw	ra,20(sp)
  803370:	df000415 	stw	fp,16(sp)
  803374:	df000404 	addi	fp,sp,16
  803378:	e13ffd15 	stw	r4,-12(fp)
  80337c:	e17ffe15 	stw	r5,-8(fp)
  803380:	e1bfff15 	stw	r6,-4(fp)
   vid_draw_circle(Xpos, Ypos, 2, color, DO_FILL);
  803384:	e13ffd17 	ldw	r4,-12(fp)
  803388:	e17ffe17 	ldw	r5,-8(fp)
  80338c:	e0ffff17 	ldw	r3,-4(fp)
  803390:	00800044 	movi	r2,1
  803394:	d8800015 	stw	r2,0(sp)
  803398:	01800084 	movi	r6,2
  80339c:	180f883a 	mov	r7,r3
  8033a0:	0801dfc0 	call	801dfc <vid_draw_circle>
//  LCD_SetPoint(Xpos,Ypos,color);     /* Center point */
//  LCD_SetPoint(Xpos+1,Ypos,color);
//  LCD_SetPoint(Xpos,Ypos+1,color);
//  LCD_SetPoint(Xpos+1,Ypos+1,color);
}   
  8033a4:	e037883a 	mov	sp,fp
  8033a8:	dfc00117 	ldw	ra,4(sp)
  8033ac:	df000017 	ldw	fp,0(sp)
  8033b0:	dec00204 	addi	sp,sp,8
  8033b4:	f800283a 	ret

008033b8 <DrawCross>:
* Output         : None
* Return         : None
* Attention      : None
*******************************************************************************/
void DrawCross(alt_u32 Xpos,alt_u32 Ypos)
{
  8033b8:	defffb04 	addi	sp,sp,-20
  8033bc:	dfc00415 	stw	ra,16(sp)
  8033c0:	df000315 	stw	fp,12(sp)
  8033c4:	df000304 	addi	fp,sp,12
  8033c8:	e13ffe15 	stw	r4,-8(fp)
  8033cc:	e17fff15 	stw	r5,-4(fp)
  LCD_DrawLine(Xpos-15,Ypos,Xpos-2,Ypos,Red);
  8033d0:	e0bffe17 	ldw	r2,-8(fp)
  8033d4:	10bffc44 	addi	r2,r2,-15
  8033d8:	113fffcc 	andi	r4,r2,65535
  8033dc:	e0bfff17 	ldw	r2,-4(fp)
  8033e0:	117fffcc 	andi	r5,r2,65535
  8033e4:	e0bffe17 	ldw	r2,-8(fp)
  8033e8:	10bfff84 	addi	r2,r2,-2
  8033ec:	11bfffcc 	andi	r6,r2,65535
  8033f0:	e0bfff17 	ldw	r2,-4(fp)
  8033f4:	10ffffcc 	andi	r3,r2,65535
  8033f8:	00be0014 	movui	r2,63488
  8033fc:	d8800015 	stw	r2,0(sp)
  803400:	180f883a 	mov	r7,r3
  803404:	08011d80 	call	8011d8 <LCD_DrawLine>
  LCD_DrawLine(Xpos+2,Ypos,Xpos+15,Ypos,Red);
  803408:	e0bffe17 	ldw	r2,-8(fp)
  80340c:	10800084 	addi	r2,r2,2
  803410:	113fffcc 	andi	r4,r2,65535
  803414:	e0bfff17 	ldw	r2,-4(fp)
  803418:	117fffcc 	andi	r5,r2,65535
  80341c:	e0bffe17 	ldw	r2,-8(fp)
  803420:	108003c4 	addi	r2,r2,15
  803424:	11bfffcc 	andi	r6,r2,65535
  803428:	e0bfff17 	ldw	r2,-4(fp)
  80342c:	10ffffcc 	andi	r3,r2,65535
  803430:	00be0014 	movui	r2,63488
  803434:	d8800015 	stw	r2,0(sp)
  803438:	180f883a 	mov	r7,r3
  80343c:	08011d80 	call	8011d8 <LCD_DrawLine>
  LCD_DrawLine(Xpos,Ypos-15,Xpos,Ypos-2,Red);
  803440:	e0bffe17 	ldw	r2,-8(fp)
  803444:	113fffcc 	andi	r4,r2,65535
  803448:	e0bfff17 	ldw	r2,-4(fp)
  80344c:	10bffc44 	addi	r2,r2,-15
  803450:	117fffcc 	andi	r5,r2,65535
  803454:	e0bffe17 	ldw	r2,-8(fp)
  803458:	11bfffcc 	andi	r6,r2,65535
  80345c:	e0bfff17 	ldw	r2,-4(fp)
  803460:	10bfff84 	addi	r2,r2,-2
  803464:	10ffffcc 	andi	r3,r2,65535
  803468:	00be0014 	movui	r2,63488
  80346c:	d8800015 	stw	r2,0(sp)
  803470:	180f883a 	mov	r7,r3
  803474:	08011d80 	call	8011d8 <LCD_DrawLine>
  LCD_DrawLine(Xpos,Ypos+2,Xpos,Ypos+15,Red);
  803478:	e0bffe17 	ldw	r2,-8(fp)
  80347c:	113fffcc 	andi	r4,r2,65535
  803480:	e0bfff17 	ldw	r2,-4(fp)
  803484:	10800084 	addi	r2,r2,2
  803488:	117fffcc 	andi	r5,r2,65535
  80348c:	e0bffe17 	ldw	r2,-8(fp)
  803490:	11bfffcc 	andi	r6,r2,65535
  803494:	e0bfff17 	ldw	r2,-4(fp)
  803498:	108003c4 	addi	r2,r2,15
  80349c:	10ffffcc 	andi	r3,r2,65535
  8034a0:	00be0014 	movui	r2,63488
  8034a4:	d8800015 	stw	r2,0(sp)
  8034a8:	180f883a 	mov	r7,r3
  8034ac:	08011d80 	call	8011d8 <LCD_DrawLine>
  
  LCD_DrawLine(Xpos-15,Ypos+15,Xpos-7,Ypos+15,RGB565CONVERT(184,158,131));
  8034b0:	e0bffe17 	ldw	r2,-8(fp)
  8034b4:	10bffc44 	addi	r2,r2,-15
  8034b8:	113fffcc 	andi	r4,r2,65535
  8034bc:	e0bfff17 	ldw	r2,-4(fp)
  8034c0:	108003c4 	addi	r2,r2,15
  8034c4:	117fffcc 	andi	r5,r2,65535
  8034c8:	e0bffe17 	ldw	r2,-8(fp)
  8034cc:	10bffe44 	addi	r2,r2,-7
  8034d0:	11bfffcc 	andi	r6,r2,65535
  8034d4:	e0bfff17 	ldw	r2,-4(fp)
  8034d8:	108003c4 	addi	r2,r2,15
  8034dc:	10ffffcc 	andi	r3,r2,65535
  8034e0:	00af3c14 	movui	r2,48368
  8034e4:	d8800015 	stw	r2,0(sp)
  8034e8:	180f883a 	mov	r7,r3
  8034ec:	08011d80 	call	8011d8 <LCD_DrawLine>
  LCD_DrawLine(Xpos-15,Ypos+7,Xpos-15,Ypos+15,RGB565CONVERT(184,158,131));
  8034f0:	e0bffe17 	ldw	r2,-8(fp)
  8034f4:	10bffc44 	addi	r2,r2,-15
  8034f8:	113fffcc 	andi	r4,r2,65535
  8034fc:	e0bfff17 	ldw	r2,-4(fp)
  803500:	108001c4 	addi	r2,r2,7
  803504:	117fffcc 	andi	r5,r2,65535
  803508:	e0bffe17 	ldw	r2,-8(fp)
  80350c:	10bffc44 	addi	r2,r2,-15
  803510:	11bfffcc 	andi	r6,r2,65535
  803514:	e0bfff17 	ldw	r2,-4(fp)
  803518:	108003c4 	addi	r2,r2,15
  80351c:	10ffffcc 	andi	r3,r2,65535
  803520:	00af3c14 	movui	r2,48368
  803524:	d8800015 	stw	r2,0(sp)
  803528:	180f883a 	mov	r7,r3
  80352c:	08011d80 	call	8011d8 <LCD_DrawLine>

  LCD_DrawLine(Xpos-15,Ypos-15,Xpos-7,Ypos-15,RGB565CONVERT(184,158,131));
  803530:	e0bffe17 	ldw	r2,-8(fp)
  803534:	10bffc44 	addi	r2,r2,-15
  803538:	113fffcc 	andi	r4,r2,65535
  80353c:	e0bfff17 	ldw	r2,-4(fp)
  803540:	10bffc44 	addi	r2,r2,-15
  803544:	117fffcc 	andi	r5,r2,65535
  803548:	e0bffe17 	ldw	r2,-8(fp)
  80354c:	10bffe44 	addi	r2,r2,-7
  803550:	11bfffcc 	andi	r6,r2,65535
  803554:	e0bfff17 	ldw	r2,-4(fp)
  803558:	10bffc44 	addi	r2,r2,-15
  80355c:	10ffffcc 	andi	r3,r2,65535
  803560:	00af3c14 	movui	r2,48368
  803564:	d8800015 	stw	r2,0(sp)
  803568:	180f883a 	mov	r7,r3
  80356c:	08011d80 	call	8011d8 <LCD_DrawLine>
  LCD_DrawLine(Xpos-15,Ypos-7,Xpos-15,Ypos-15,RGB565CONVERT(184,158,131));
  803570:	e0bffe17 	ldw	r2,-8(fp)
  803574:	10bffc44 	addi	r2,r2,-15
  803578:	113fffcc 	andi	r4,r2,65535
  80357c:	e0bfff17 	ldw	r2,-4(fp)
  803580:	10bffe44 	addi	r2,r2,-7
  803584:	117fffcc 	andi	r5,r2,65535
  803588:	e0bffe17 	ldw	r2,-8(fp)
  80358c:	10bffc44 	addi	r2,r2,-15
  803590:	11bfffcc 	andi	r6,r2,65535
  803594:	e0bfff17 	ldw	r2,-4(fp)
  803598:	10bffc44 	addi	r2,r2,-15
  80359c:	10ffffcc 	andi	r3,r2,65535
  8035a0:	00af3c14 	movui	r2,48368
  8035a4:	d8800015 	stw	r2,0(sp)
  8035a8:	180f883a 	mov	r7,r3
  8035ac:	08011d80 	call	8011d8 <LCD_DrawLine>

  LCD_DrawLine(Xpos+7,Ypos+15,Xpos+15,Ypos+15,RGB565CONVERT(184,158,131));
  8035b0:	e0bffe17 	ldw	r2,-8(fp)
  8035b4:	108001c4 	addi	r2,r2,7
  8035b8:	113fffcc 	andi	r4,r2,65535
  8035bc:	e0bfff17 	ldw	r2,-4(fp)
  8035c0:	108003c4 	addi	r2,r2,15
  8035c4:	117fffcc 	andi	r5,r2,65535
  8035c8:	e0bffe17 	ldw	r2,-8(fp)
  8035cc:	108003c4 	addi	r2,r2,15
  8035d0:	11bfffcc 	andi	r6,r2,65535
  8035d4:	e0bfff17 	ldw	r2,-4(fp)
  8035d8:	108003c4 	addi	r2,r2,15
  8035dc:	10ffffcc 	andi	r3,r2,65535
  8035e0:	00af3c14 	movui	r2,48368
  8035e4:	d8800015 	stw	r2,0(sp)
  8035e8:	180f883a 	mov	r7,r3
  8035ec:	08011d80 	call	8011d8 <LCD_DrawLine>
  LCD_DrawLine(Xpos+15,Ypos+7,Xpos+15,Ypos+15,RGB565CONVERT(184,158,131));
  8035f0:	e0bffe17 	ldw	r2,-8(fp)
  8035f4:	108003c4 	addi	r2,r2,15
  8035f8:	113fffcc 	andi	r4,r2,65535
  8035fc:	e0bfff17 	ldw	r2,-4(fp)
  803600:	108001c4 	addi	r2,r2,7
  803604:	117fffcc 	andi	r5,r2,65535
  803608:	e0bffe17 	ldw	r2,-8(fp)
  80360c:	108003c4 	addi	r2,r2,15
  803610:	11bfffcc 	andi	r6,r2,65535
  803614:	e0bfff17 	ldw	r2,-4(fp)
  803618:	108003c4 	addi	r2,r2,15
  80361c:	10ffffcc 	andi	r3,r2,65535
  803620:	00af3c14 	movui	r2,48368
  803624:	d8800015 	stw	r2,0(sp)
  803628:	180f883a 	mov	r7,r3
  80362c:	08011d80 	call	8011d8 <LCD_DrawLine>

  LCD_DrawLine(Xpos+7,Ypos-15,Xpos+15,Ypos-15,RGB565CONVERT(184,158,131));
  803630:	e0bffe17 	ldw	r2,-8(fp)
  803634:	108001c4 	addi	r2,r2,7
  803638:	113fffcc 	andi	r4,r2,65535
  80363c:	e0bfff17 	ldw	r2,-4(fp)
  803640:	10bffc44 	addi	r2,r2,-15
  803644:	117fffcc 	andi	r5,r2,65535
  803648:	e0bffe17 	ldw	r2,-8(fp)
  80364c:	108003c4 	addi	r2,r2,15
  803650:	11bfffcc 	andi	r6,r2,65535
  803654:	e0bfff17 	ldw	r2,-4(fp)
  803658:	10bffc44 	addi	r2,r2,-15
  80365c:	10ffffcc 	andi	r3,r2,65535
  803660:	00af3c14 	movui	r2,48368
  803664:	d8800015 	stw	r2,0(sp)
  803668:	180f883a 	mov	r7,r3
  80366c:	08011d80 	call	8011d8 <LCD_DrawLine>
  LCD_DrawLine(Xpos+15,Ypos-15,Xpos+15,Ypos-7,RGB565CONVERT(184,158,131));      
  803670:	e0bffe17 	ldw	r2,-8(fp)
  803674:	108003c4 	addi	r2,r2,15
  803678:	113fffcc 	andi	r4,r2,65535
  80367c:	e0bfff17 	ldw	r2,-4(fp)
  803680:	10bffc44 	addi	r2,r2,-15
  803684:	117fffcc 	andi	r5,r2,65535
  803688:	e0bffe17 	ldw	r2,-8(fp)
  80368c:	108003c4 	addi	r2,r2,15
  803690:	11bfffcc 	andi	r6,r2,65535
  803694:	e0bfff17 	ldw	r2,-4(fp)
  803698:	10bffe44 	addi	r2,r2,-7
  80369c:	10ffffcc 	andi	r3,r2,65535
  8036a0:	00af3c14 	movui	r2,48368
  8036a4:	d8800015 	stw	r2,0(sp)
  8036a8:	180f883a 	mov	r7,r3
  8036ac:	08011d80 	call	8011d8 <LCD_DrawLine>
}   
  8036b0:	e037883a 	mov	sp,fp
  8036b4:	dfc00117 	ldw	ra,4(sp)
  8036b8:	df000017 	ldw	fp,0(sp)
  8036bc:	dec00204 	addi	sp,sp,8
  8036c0:	f800283a 	ret

008036c4 <Read_Ads7846>:
* Output         : None
* Return         : Coordinate *
* Attention      : None
*******************************************************************************/
Coordinate *Read_Ads7846(void)
{
  8036c4:	deffef04 	addi	sp,sp,-68
  8036c8:	dfc01015 	stw	ra,64(sp)
  8036cc:	df000f15 	stw	fp,60(sp)
  8036d0:	df000f04 	addi	fp,sp,60
  static Coordinate  screen;
  int m0,m1,m2,TP_X[1],TP_Y[1],temp[3];
  alt_u8 count=0;
  8036d4:	e03ff105 	stb	zero,-60(fp)
  int buffer[2][3]={{0},{0}};
  8036d8:	e03ffa15 	stw	zero,-24(fp)
  8036dc:	e03ffb15 	stw	zero,-20(fp)
  8036e0:	e03ffc15 	stw	zero,-16(fp)
  8036e4:	e03ffd15 	stw	zero,-12(fp)
  8036e8:	e03ffe15 	stw	zero,-8(fp)
  8036ec:	e03fff15 	stw	zero,-4(fp)
  
  do
  {        

    TP_GetAdXY(TP_X,TP_Y);  
  8036f0:	e0fff504 	addi	r3,fp,-44
  8036f4:	e0bff604 	addi	r2,fp,-40
  8036f8:	1809883a 	mov	r4,r3
  8036fc:	100b883a 	mov	r5,r2
  803700:	080330c0 	call	80330c <TP_GetAdXY>
    buffer[0][count]=TP_X[0];  
  803704:	e0bff103 	ldbu	r2,-60(fp)
  803708:	e0fff517 	ldw	r3,-44(fp)
  80370c:	1085883a 	add	r2,r2,r2
  803710:	1085883a 	add	r2,r2,r2
  803714:	e13ff104 	addi	r4,fp,-60
  803718:	2085883a 	add	r2,r4,r2
  80371c:	10800904 	addi	r2,r2,36
  803720:	10c00015 	stw	r3,0(r2)
    buffer[1][count]=TP_Y[0];
  803724:	e0bff103 	ldbu	r2,-60(fp)
  803728:	e0fff617 	ldw	r3,-40(fp)
  80372c:	108000c4 	addi	r2,r2,3
  803730:	1085883a 	add	r2,r2,r2
  803734:	1085883a 	add	r2,r2,r2
  803738:	e13ff104 	addi	r4,fp,-60
  80373c:	2085883a 	add	r2,r4,r2
  803740:	10800904 	addi	r2,r2,36
  803744:	10c00015 	stw	r3,0(r2)
    count++;  
  803748:	e0bff103 	ldbu	r2,-60(fp)
  80374c:	10800044 	addi	r2,r2,1
  803750:	e0bff105 	stb	r2,-60(fp)
  }
  while(!TP_INT_IN&& count<3);  /* TP_INT_IN  */
  803754:	00804034 	movhi	r2,256
  803758:	10882404 	addi	r2,r2,8336
  80375c:	10800037 	ldwio	r2,0(r2)
  803760:	1000031e 	bne	r2,zero,803770 <Read_Ads7846+0xac>
  803764:	e0bff103 	ldbu	r2,-60(fp)
  803768:	108000f0 	cmpltui	r2,r2,3
  80376c:	103fe01e 	bne	r2,zero,8036f0 <__reset+0xff8026f0>
  if(count==3)   /* Average X Y  */ 
  803770:	e0bff103 	ldbu	r2,-60(fp)
  803774:	108000d8 	cmpnei	r2,r2,3
  803778:	1000ac1e 	bne	r2,zero,803a2c <Read_Ads7846+0x368>
  {
    /* Average X  */
  temp[0]=buffer[0][0];
  80377c:	e0bffa17 	ldw	r2,-24(fp)
  803780:	e0bff715 	stw	r2,-36(fp)
    temp[1]=buffer[0][1];
  803784:	e0bffb17 	ldw	r2,-20(fp)
  803788:	e0bff815 	stw	r2,-32(fp)
    temp[2]=buffer[0][2];
  80378c:	e0bffc17 	ldw	r2,-16(fp)
  803790:	e0bff915 	stw	r2,-28(fp)

    m0=temp[0]-temp[1];
  803794:	e0fff717 	ldw	r3,-36(fp)
  803798:	e0bff817 	ldw	r2,-32(fp)
  80379c:	1885c83a 	sub	r2,r3,r2
  8037a0:	e0bff215 	stw	r2,-56(fp)
    m1=temp[1]-temp[2];
  8037a4:	e0fff817 	ldw	r3,-32(fp)
  8037a8:	e0bff917 	ldw	r2,-28(fp)
  8037ac:	1885c83a 	sub	r2,r3,r2
  8037b0:	e0bff315 	stw	r2,-52(fp)
    m2=temp[2]-temp[0];
  8037b4:	e0fff917 	ldw	r3,-28(fp)
  8037b8:	e0bff717 	ldw	r2,-36(fp)
  8037bc:	1885c83a 	sub	r2,r3,r2
  8037c0:	e0bff415 	stw	r2,-48(fp)

    m0=m0>0?m0:(-m0);
  8037c4:	e0bff217 	ldw	r2,-56(fp)
  8037c8:	1000010e 	bge	r2,zero,8037d0 <Read_Ads7846+0x10c>
  8037cc:	0085c83a 	sub	r2,zero,r2
  8037d0:	e0bff215 	stw	r2,-56(fp)
  m1=m1>0?m1:(-m1);
  8037d4:	e0bff317 	ldw	r2,-52(fp)
  8037d8:	1000010e 	bge	r2,zero,8037e0 <Read_Ads7846+0x11c>
  8037dc:	0085c83a 	sub	r2,zero,r2
  8037e0:	e0bff315 	stw	r2,-52(fp)
    m2=m2>0?m2:(-m2);
  8037e4:	e0bff417 	ldw	r2,-48(fp)
  8037e8:	1000010e 	bge	r2,zero,8037f0 <Read_Ads7846+0x12c>
  8037ec:	0085c83a 	sub	r2,zero,r2
  8037f0:	e0bff415 	stw	r2,-48(fp)

    if( m0>THRESHOLD  &&  m1>THRESHOLD  &&  m2>THRESHOLD ) return 0;
  8037f4:	e0bff217 	ldw	r2,-56(fp)
  8037f8:	108000d0 	cmplti	r2,r2,3
  8037fc:	1000081e 	bne	r2,zero,803820 <Read_Ads7846+0x15c>
  803800:	e0bff317 	ldw	r2,-52(fp)
  803804:	108000d0 	cmplti	r2,r2,3
  803808:	1000051e 	bne	r2,zero,803820 <Read_Ads7846+0x15c>
  80380c:	e0bff417 	ldw	r2,-48(fp)
  803810:	108000d0 	cmplti	r2,r2,3
  803814:	1000021e 	bne	r2,zero,803820 <Read_Ads7846+0x15c>
  803818:	0005883a 	mov	r2,zero
  80381c:	00008406 	br	803a30 <Read_Ads7846+0x36c>

    if(m0<m1)
  803820:	e0fff217 	ldw	r3,-56(fp)
  803824:	e0bff317 	ldw	r2,-52(fp)
  803828:	1880130e 	bge	r3,r2,803878 <Read_Ads7846+0x1b4>
    {
      if(m2<m0) 
  80382c:	e0fff417 	ldw	r3,-48(fp)
  803830:	e0bff217 	ldw	r2,-56(fp)
  803834:	1880080e 	bge	r3,r2,803858 <Read_Ads7846+0x194>
        screen.x=(temp[0]+temp[2])/2;
  803838:	e0fff717 	ldw	r3,-36(fp)
  80383c:	e0bff917 	ldw	r2,-28(fp)
  803840:	1885883a 	add	r2,r3,r2
  803844:	1006d7fa 	srli	r3,r2,31
  803848:	1885883a 	add	r2,r3,r2
  80384c:	1005d07a 	srai	r2,r2,1
  803850:	d0a0310d 	sth	r2,-32572(gp)
  803854:	00001a06 	br	8038c0 <Read_Ads7846+0x1fc>
      else 
        screen.x=(temp[0]+temp[1])/2;   
  803858:	e0fff717 	ldw	r3,-36(fp)
  80385c:	e0bff817 	ldw	r2,-32(fp)
  803860:	1885883a 	add	r2,r3,r2
  803864:	1006d7fa 	srli	r3,r2,31
  803868:	1885883a 	add	r2,r3,r2
  80386c:	1005d07a 	srai	r2,r2,1
  803870:	d0a0310d 	sth	r2,-32572(gp)
  803874:	00001206 	br	8038c0 <Read_Ads7846+0x1fc>
    }
    else if(m2<m1) 
  803878:	e0fff417 	ldw	r3,-48(fp)
  80387c:	e0bff317 	ldw	r2,-52(fp)
  803880:	1880080e 	bge	r3,r2,8038a4 <Read_Ads7846+0x1e0>
      screen.x=(temp[0]+temp[2])/2;
  803884:	e0fff717 	ldw	r3,-36(fp)
  803888:	e0bff917 	ldw	r2,-28(fp)
  80388c:	1885883a 	add	r2,r3,r2
  803890:	1006d7fa 	srli	r3,r2,31
  803894:	1885883a 	add	r2,r3,r2
  803898:	1005d07a 	srai	r2,r2,1
  80389c:	d0a0310d 	sth	r2,-32572(gp)
  8038a0:	00000706 	br	8038c0 <Read_Ads7846+0x1fc>
    else 
      screen.x=(temp[1]+temp[2])/2;
  8038a4:	e0fff817 	ldw	r3,-32(fp)
  8038a8:	e0bff917 	ldw	r2,-28(fp)
  8038ac:	1885883a 	add	r2,r3,r2
  8038b0:	1006d7fa 	srli	r3,r2,31
  8038b4:	1885883a 	add	r2,r3,r2
  8038b8:	1005d07a 	srai	r2,r2,1
  8038bc:	d0a0310d 	sth	r2,-32572(gp)

    /* Average Y  */
  temp[0]=buffer[1][0];
  8038c0:	e0bffd17 	ldw	r2,-12(fp)
  8038c4:	e0bff715 	stw	r2,-36(fp)
    temp[1]=buffer[1][1];
  8038c8:	e0bffe17 	ldw	r2,-8(fp)
  8038cc:	e0bff815 	stw	r2,-32(fp)
    temp[2]=buffer[1][2];
  8038d0:	e0bfff17 	ldw	r2,-4(fp)
  8038d4:	e0bff915 	stw	r2,-28(fp)
    m0=temp[0]-temp[1];
  8038d8:	e0fff717 	ldw	r3,-36(fp)
  8038dc:	e0bff817 	ldw	r2,-32(fp)
  8038e0:	1885c83a 	sub	r2,r3,r2
  8038e4:	e0bff215 	stw	r2,-56(fp)
    m1=temp[1]-temp[2];
  8038e8:	e0fff817 	ldw	r3,-32(fp)
  8038ec:	e0bff917 	ldw	r2,-28(fp)
  8038f0:	1885c83a 	sub	r2,r3,r2
  8038f4:	e0bff315 	stw	r2,-52(fp)
    m2=temp[2]-temp[0];
  8038f8:	e0fff917 	ldw	r3,-28(fp)
  8038fc:	e0bff717 	ldw	r2,-36(fp)
  803900:	1885c83a 	sub	r2,r3,r2
  803904:	e0bff415 	stw	r2,-48(fp)
    m0=m0>0?m0:(-m0);
  803908:	e0bff217 	ldw	r2,-56(fp)
  80390c:	1000010e 	bge	r2,zero,803914 <Read_Ads7846+0x250>
  803910:	0085c83a 	sub	r2,zero,r2
  803914:	e0bff215 	stw	r2,-56(fp)
    m1=m1>0?m1:(-m1);
  803918:	e0bff317 	ldw	r2,-52(fp)
  80391c:	1000010e 	bge	r2,zero,803924 <Read_Ads7846+0x260>
  803920:	0085c83a 	sub	r2,zero,r2
  803924:	e0bff315 	stw	r2,-52(fp)
    m2=m2>0?m2:(-m2);
  803928:	e0bff417 	ldw	r2,-48(fp)
  80392c:	1000010e 	bge	r2,zero,803934 <Read_Ads7846+0x270>
  803930:	0085c83a 	sub	r2,zero,r2
  803934:	e0bff415 	stw	r2,-48(fp)

    if(m0>THRESHOLD&&m1>THRESHOLD&&m2>THRESHOLD) return 0;
  803938:	e0bff217 	ldw	r2,-56(fp)
  80393c:	108000d0 	cmplti	r2,r2,3
  803940:	1000081e 	bne	r2,zero,803964 <Read_Ads7846+0x2a0>
  803944:	e0bff317 	ldw	r2,-52(fp)
  803948:	108000d0 	cmplti	r2,r2,3
  80394c:	1000051e 	bne	r2,zero,803964 <Read_Ads7846+0x2a0>
  803950:	e0bff417 	ldw	r2,-48(fp)
  803954:	108000d0 	cmplti	r2,r2,3
  803958:	1000021e 	bne	r2,zero,803964 <Read_Ads7846+0x2a0>
  80395c:	0005883a 	mov	r2,zero
  803960:	00003306 	br	803a30 <Read_Ads7846+0x36c>

    if(m0<m1)
  803964:	e0fff217 	ldw	r3,-56(fp)
  803968:	e0bff317 	ldw	r2,-52(fp)
  80396c:	1880170e 	bge	r3,r2,8039cc <Read_Ads7846+0x308>
    {
      if(m2<m0) 
  803970:	e0fff417 	ldw	r3,-48(fp)
  803974:	e0bff217 	ldw	r2,-56(fp)
  803978:	18800a0e 	bge	r3,r2,8039a4 <Read_Ads7846+0x2e0>
        screen.y=(temp[0]+temp[2])/2;
  80397c:	e0fff717 	ldw	r3,-36(fp)
  803980:	e0bff917 	ldw	r2,-28(fp)
  803984:	1885883a 	add	r2,r3,r2
  803988:	1006d7fa 	srli	r3,r2,31
  80398c:	1885883a 	add	r2,r3,r2
  803990:	1005d07a 	srai	r2,r2,1
  803994:	1007883a 	mov	r3,r2
  803998:	d0a03184 	addi	r2,gp,-32570
  80399c:	10c0000d 	sth	r3,0(r2)
  8039a0:	00002006 	br	803a24 <Read_Ads7846+0x360>
      else 
        screen.y=(temp[0]+temp[1])/2;   
  8039a4:	e0fff717 	ldw	r3,-36(fp)
  8039a8:	e0bff817 	ldw	r2,-32(fp)
  8039ac:	1885883a 	add	r2,r3,r2
  8039b0:	1006d7fa 	srli	r3,r2,31
  8039b4:	1885883a 	add	r2,r3,r2
  8039b8:	1005d07a 	srai	r2,r2,1
  8039bc:	1007883a 	mov	r3,r2
  8039c0:	d0a03184 	addi	r2,gp,-32570
  8039c4:	10c0000d 	sth	r3,0(r2)
  8039c8:	00001606 	br	803a24 <Read_Ads7846+0x360>
    }
    else if(m2<m1) 
  8039cc:	e0fff417 	ldw	r3,-48(fp)
  8039d0:	e0bff317 	ldw	r2,-52(fp)
  8039d4:	18800a0e 	bge	r3,r2,803a00 <Read_Ads7846+0x33c>
       screen.y=(temp[0]+temp[2])/2;
  8039d8:	e0fff717 	ldw	r3,-36(fp)
  8039dc:	e0bff917 	ldw	r2,-28(fp)
  8039e0:	1885883a 	add	r2,r3,r2
  8039e4:	1006d7fa 	srli	r3,r2,31
  8039e8:	1885883a 	add	r2,r3,r2
  8039ec:	1005d07a 	srai	r2,r2,1
  8039f0:	1007883a 	mov	r3,r2
  8039f4:	d0a03184 	addi	r2,gp,-32570
  8039f8:	10c0000d 	sth	r3,0(r2)
  8039fc:	00000906 	br	803a24 <Read_Ads7846+0x360>
    else
       screen.y=(temp[1]+temp[2])/2;
  803a00:	e0fff817 	ldw	r3,-32(fp)
  803a04:	e0bff917 	ldw	r2,-28(fp)
  803a08:	1885883a 	add	r2,r3,r2
  803a0c:	1006d7fa 	srli	r3,r2,31
  803a10:	1885883a 	add	r2,r3,r2
  803a14:	1005d07a 	srai	r2,r2,1
  803a18:	1007883a 	mov	r3,r2
  803a1c:	d0a03184 	addi	r2,gp,-32570
  803a20:	10c0000d 	sth	r3,0(r2)

    return &screen;
  803a24:	d0a03104 	addi	r2,gp,-32572
  803a28:	00000106 	br	803a30 <Read_Ads7846+0x36c>
  }  
  return 0; 
  803a2c:	0005883a 	mov	r2,zero
}
  803a30:	e037883a 	mov	sp,fp
  803a34:	dfc00117 	ldw	ra,4(sp)
  803a38:	df000017 	ldw	fp,0(sp)
  803a3c:	dec00204 	addi	sp,sp,8
  803a40:	f800283a 	ret

00803a44 <setCalibrationMatrix>:
* Attention      : None
*******************************************************************************/
alt_u8 setCalibrationMatrix( Coordinate * displayPtr,
                          Coordinate * screenPtr,
                          Matrix * matrixPtr)
{
  803a44:	defffa04 	addi	sp,sp,-24
  803a48:	dfc00515 	stw	ra,20(sp)
  803a4c:	df000415 	stw	fp,16(sp)
  803a50:	df000404 	addi	fp,sp,16
  803a54:	e13ffd15 	stw	r4,-12(fp)
  803a58:	e17ffe15 	stw	r5,-8(fp)
  803a5c:	e1bfff15 	stw	r6,-4(fp)

  alt_u8 retTHRESHOLD = 1 ;
  803a60:	00800044 	movi	r2,1
  803a64:	e0bffc05 	stb	r2,-16(fp)
  /* K(X0X2) (Y1Y2)(X1X2) (Y0Y2) */
  matrixPtr->Divider = ((screenPtr[0].x - screenPtr[2].x) * (screenPtr[1].y - screenPtr[2].y)) - 
  803a68:	e0bffe17 	ldw	r2,-8(fp)
  803a6c:	1080000b 	ldhu	r2,0(r2)
  803a70:	10ffffcc 	andi	r3,r2,65535
  803a74:	e0bffe17 	ldw	r2,-8(fp)
  803a78:	10800204 	addi	r2,r2,8
  803a7c:	1080000b 	ldhu	r2,0(r2)
  803a80:	10bfffcc 	andi	r2,r2,65535
  803a84:	1887c83a 	sub	r3,r3,r2
  803a88:	e0bffe17 	ldw	r2,-8(fp)
  803a8c:	10800104 	addi	r2,r2,4
  803a90:	1080008b 	ldhu	r2,2(r2)
  803a94:	113fffcc 	andi	r4,r2,65535
  803a98:	e0bffe17 	ldw	r2,-8(fp)
  803a9c:	10800204 	addi	r2,r2,8
  803aa0:	1080008b 	ldhu	r2,2(r2)
  803aa4:	10bfffcc 	andi	r2,r2,65535
  803aa8:	2085c83a 	sub	r2,r4,r2
  803aac:	1887383a 	mul	r3,r3,r2
                       ((screenPtr[1].x - screenPtr[2].x) * (screenPtr[0].y - screenPtr[2].y)) ;
  803ab0:	e0bffe17 	ldw	r2,-8(fp)
  803ab4:	10800104 	addi	r2,r2,4
  803ab8:	1080000b 	ldhu	r2,0(r2)
  803abc:	113fffcc 	andi	r4,r2,65535
  803ac0:	e0bffe17 	ldw	r2,-8(fp)
  803ac4:	10800204 	addi	r2,r2,8
  803ac8:	1080000b 	ldhu	r2,0(r2)
  803acc:	10bfffcc 	andi	r2,r2,65535
  803ad0:	2089c83a 	sub	r4,r4,r2
  803ad4:	e0bffe17 	ldw	r2,-8(fp)
  803ad8:	10800204 	addi	r2,r2,8
  803adc:	1080008b 	ldhu	r2,2(r2)
  803ae0:	117fffcc 	andi	r5,r2,65535
  803ae4:	e0bffe17 	ldw	r2,-8(fp)
  803ae8:	1080008b 	ldhu	r2,2(r2)
  803aec:	10bfffcc 	andi	r2,r2,65535
  803af0:	2885c83a 	sub	r2,r5,r2
  803af4:	2085383a 	mul	r2,r4,r2
                          Matrix * matrixPtr)
{

  alt_u8 retTHRESHOLD = 1 ;
  /* K(X0X2) (Y1Y2)(X1X2) (Y0Y2) */
  matrixPtr->Divider = ((screenPtr[0].x - screenPtr[2].x) * (screenPtr[1].y - screenPtr[2].y)) - 
  803af8:	1885883a 	add	r2,r3,r2
  803afc:	1009883a 	mov	r4,r2
  803b00:	0806a080 	call	806a08 <__floatsidf>
  803b04:	1009883a 	mov	r4,r2
  803b08:	180b883a 	mov	r5,r3
  803b0c:	e0bfff17 	ldw	r2,-4(fp)
  803b10:	11000c15 	stw	r4,48(r2)
  803b14:	11400d15 	stw	r5,52(r2)
                       ((screenPtr[1].x - screenPtr[2].x) * (screenPtr[0].y - screenPtr[2].y)) ;
  if( matrixPtr->Divider == 0 )
  803b18:	e13fff17 	ldw	r4,-4(fp)
  803b1c:	20800c17 	ldw	r2,48(r4)
  803b20:	20c00d17 	ldw	r3,52(r4)
  803b24:	1009883a 	mov	r4,r2
  803b28:	180b883a 	mov	r5,r3
  803b2c:	000d883a 	mov	r6,zero
  803b30:	000f883a 	mov	r7,zero
  803b34:	08058280 	call	805828 <__eqdf2>
  803b38:	1000021e 	bne	r2,zero,803b44 <setCalibrationMatrix+0x100>
  {
    retTHRESHOLD = 0;
  803b3c:	e03ffc05 	stb	zero,-16(fp)
  803b40:	00014806 	br	804064 <setCalibrationMatrix+0x620>
  }
  else
  {
    /* A((XD0XD2) (Y1Y2)(XD1XD2) (Y0Y2))K    */
    matrixPtr->An = ((displayPtr[0].x - displayPtr[2].x) * (screenPtr[1].y - screenPtr[2].y)) - 
  803b44:	e0bffd17 	ldw	r2,-12(fp)
  803b48:	1080000b 	ldhu	r2,0(r2)
  803b4c:	10ffffcc 	andi	r3,r2,65535
  803b50:	e0bffd17 	ldw	r2,-12(fp)
  803b54:	10800204 	addi	r2,r2,8
  803b58:	1080000b 	ldhu	r2,0(r2)
  803b5c:	10bfffcc 	andi	r2,r2,65535
  803b60:	1887c83a 	sub	r3,r3,r2
  803b64:	e0bffe17 	ldw	r2,-8(fp)
  803b68:	10800104 	addi	r2,r2,4
  803b6c:	1080008b 	ldhu	r2,2(r2)
  803b70:	113fffcc 	andi	r4,r2,65535
  803b74:	e0bffe17 	ldw	r2,-8(fp)
  803b78:	10800204 	addi	r2,r2,8
  803b7c:	1080008b 	ldhu	r2,2(r2)
  803b80:	10bfffcc 	andi	r2,r2,65535
  803b84:	2085c83a 	sub	r2,r4,r2
  803b88:	1887383a 	mul	r3,r3,r2
                    ((displayPtr[1].x - displayPtr[2].x) * (screenPtr[0].y - screenPtr[2].y)) ;
  803b8c:	e0bffd17 	ldw	r2,-12(fp)
  803b90:	10800104 	addi	r2,r2,4
  803b94:	1080000b 	ldhu	r2,0(r2)
  803b98:	113fffcc 	andi	r4,r2,65535
  803b9c:	e0bffd17 	ldw	r2,-12(fp)
  803ba0:	10800204 	addi	r2,r2,8
  803ba4:	1080000b 	ldhu	r2,0(r2)
  803ba8:	10bfffcc 	andi	r2,r2,65535
  803bac:	2089c83a 	sub	r4,r4,r2
  803bb0:	e0bffe17 	ldw	r2,-8(fp)
  803bb4:	10800204 	addi	r2,r2,8
  803bb8:	1080008b 	ldhu	r2,2(r2)
  803bbc:	117fffcc 	andi	r5,r2,65535
  803bc0:	e0bffe17 	ldw	r2,-8(fp)
  803bc4:	1080008b 	ldhu	r2,2(r2)
  803bc8:	10bfffcc 	andi	r2,r2,65535
  803bcc:	2885c83a 	sub	r2,r5,r2
  803bd0:	2085383a 	mul	r2,r4,r2
    retTHRESHOLD = 0;
  }
  else
  {
    /* A((XD0XD2) (Y1Y2)(XD1XD2) (Y0Y2))K    */
    matrixPtr->An = ((displayPtr[0].x - displayPtr[2].x) * (screenPtr[1].y - screenPtr[2].y)) - 
  803bd4:	1885883a 	add	r2,r3,r2
  803bd8:	1009883a 	mov	r4,r2
  803bdc:	0806a080 	call	806a08 <__floatsidf>
  803be0:	1009883a 	mov	r4,r2
  803be4:	180b883a 	mov	r5,r3
  803be8:	e0bfff17 	ldw	r2,-4(fp)
  803bec:	11000015 	stw	r4,0(r2)
  803bf0:	11400115 	stw	r5,4(r2)
                    ((displayPtr[1].x - displayPtr[2].x) * (screenPtr[0].y - screenPtr[2].y)) ;
    /* B((X0X2) (XD1XD2)(XD0XD2) (X1X2))K    */
    matrixPtr->Bn = ((screenPtr[0].x - screenPtr[2].x) * (displayPtr[1].x - displayPtr[2].x)) - 
  803bf4:	e0bffe17 	ldw	r2,-8(fp)
  803bf8:	1080000b 	ldhu	r2,0(r2)
  803bfc:	10ffffcc 	andi	r3,r2,65535
  803c00:	e0bffe17 	ldw	r2,-8(fp)
  803c04:	10800204 	addi	r2,r2,8
  803c08:	1080000b 	ldhu	r2,0(r2)
  803c0c:	10bfffcc 	andi	r2,r2,65535
  803c10:	1887c83a 	sub	r3,r3,r2
  803c14:	e0bffd17 	ldw	r2,-12(fp)
  803c18:	10800104 	addi	r2,r2,4
  803c1c:	1080000b 	ldhu	r2,0(r2)
  803c20:	113fffcc 	andi	r4,r2,65535
  803c24:	e0bffd17 	ldw	r2,-12(fp)
  803c28:	10800204 	addi	r2,r2,8
  803c2c:	1080000b 	ldhu	r2,0(r2)
  803c30:	10bfffcc 	andi	r2,r2,65535
  803c34:	2085c83a 	sub	r2,r4,r2
  803c38:	1887383a 	mul	r3,r3,r2
                    ((displayPtr[0].x - displayPtr[2].x) * (screenPtr[1].x - screenPtr[2].x)) ;
  803c3c:	e0bffd17 	ldw	r2,-12(fp)
  803c40:	1080000b 	ldhu	r2,0(r2)
  803c44:	113fffcc 	andi	r4,r2,65535
  803c48:	e0bffd17 	ldw	r2,-12(fp)
  803c4c:	10800204 	addi	r2,r2,8
  803c50:	1080000b 	ldhu	r2,0(r2)
  803c54:	10bfffcc 	andi	r2,r2,65535
  803c58:	2089c83a 	sub	r4,r4,r2
  803c5c:	e0bffe17 	ldw	r2,-8(fp)
  803c60:	10800204 	addi	r2,r2,8
  803c64:	1080000b 	ldhu	r2,0(r2)
  803c68:	117fffcc 	andi	r5,r2,65535
  803c6c:	e0bffe17 	ldw	r2,-8(fp)
  803c70:	10800104 	addi	r2,r2,4
  803c74:	1080000b 	ldhu	r2,0(r2)
  803c78:	10bfffcc 	andi	r2,r2,65535
  803c7c:	2885c83a 	sub	r2,r5,r2
  803c80:	2085383a 	mul	r2,r4,r2
  {
    /* A((XD0XD2) (Y1Y2)(XD1XD2) (Y0Y2))K    */
    matrixPtr->An = ((displayPtr[0].x - displayPtr[2].x) * (screenPtr[1].y - screenPtr[2].y)) - 
                    ((displayPtr[1].x - displayPtr[2].x) * (screenPtr[0].y - screenPtr[2].y)) ;
    /* B((X0X2) (XD1XD2)(XD0XD2) (X1X2))K    */
    matrixPtr->Bn = ((screenPtr[0].x - screenPtr[2].x) * (displayPtr[1].x - displayPtr[2].x)) - 
  803c84:	1885883a 	add	r2,r3,r2
  803c88:	1009883a 	mov	r4,r2
  803c8c:	0806a080 	call	806a08 <__floatsidf>
  803c90:	1009883a 	mov	r4,r2
  803c94:	180b883a 	mov	r5,r3
  803c98:	e0bfff17 	ldw	r2,-4(fp)
  803c9c:	11000215 	stw	r4,8(r2)
  803ca0:	11400315 	stw	r5,12(r2)
                    ((displayPtr[0].x - displayPtr[2].x) * (screenPtr[1].x - screenPtr[2].x)) ;
    /* C(Y0(X2XD1X1XD2)+Y1(X0XD2X2XD0)+Y2(X1XD0X0XD1))K */
    matrixPtr->Cn = (screenPtr[2].x * displayPtr[1].x - screenPtr[1].x * displayPtr[2].x) * screenPtr[0].y +
  803ca4:	e0bffe17 	ldw	r2,-8(fp)
  803ca8:	10800204 	addi	r2,r2,8
  803cac:	1080000b 	ldhu	r2,0(r2)
  803cb0:	10ffffcc 	andi	r3,r2,65535
  803cb4:	e0bffd17 	ldw	r2,-12(fp)
  803cb8:	10800104 	addi	r2,r2,4
  803cbc:	1080000b 	ldhu	r2,0(r2)
  803cc0:	10bfffcc 	andi	r2,r2,65535
  803cc4:	1887383a 	mul	r3,r3,r2
  803cc8:	e0bffe17 	ldw	r2,-8(fp)
  803ccc:	10800104 	addi	r2,r2,4
  803cd0:	1080000b 	ldhu	r2,0(r2)
  803cd4:	113fffcc 	andi	r4,r2,65535
  803cd8:	e0bffd17 	ldw	r2,-12(fp)
  803cdc:	10800204 	addi	r2,r2,8
  803ce0:	1080000b 	ldhu	r2,0(r2)
  803ce4:	10bfffcc 	andi	r2,r2,65535
  803ce8:	2085383a 	mul	r2,r4,r2
  803cec:	1887c83a 	sub	r3,r3,r2
  803cf0:	e0bffe17 	ldw	r2,-8(fp)
  803cf4:	1080008b 	ldhu	r2,2(r2)
  803cf8:	10bfffcc 	andi	r2,r2,65535
  803cfc:	1887383a 	mul	r3,r3,r2
                    (screenPtr[0].x * displayPtr[2].x - screenPtr[2].x * displayPtr[0].x) * screenPtr[1].y +
  803d00:	e0bffe17 	ldw	r2,-8(fp)
  803d04:	1080000b 	ldhu	r2,0(r2)
  803d08:	113fffcc 	andi	r4,r2,65535
  803d0c:	e0bffd17 	ldw	r2,-12(fp)
  803d10:	10800204 	addi	r2,r2,8
  803d14:	1080000b 	ldhu	r2,0(r2)
  803d18:	10bfffcc 	andi	r2,r2,65535
  803d1c:	2089383a 	mul	r4,r4,r2
  803d20:	e0bffe17 	ldw	r2,-8(fp)
  803d24:	10800204 	addi	r2,r2,8
  803d28:	1080000b 	ldhu	r2,0(r2)
  803d2c:	117fffcc 	andi	r5,r2,65535
  803d30:	e0bffd17 	ldw	r2,-12(fp)
  803d34:	1080000b 	ldhu	r2,0(r2)
  803d38:	10bfffcc 	andi	r2,r2,65535
  803d3c:	2885383a 	mul	r2,r5,r2
  803d40:	2089c83a 	sub	r4,r4,r2
  803d44:	e0bffe17 	ldw	r2,-8(fp)
  803d48:	10800104 	addi	r2,r2,4
  803d4c:	1080008b 	ldhu	r2,2(r2)
  803d50:	10bfffcc 	andi	r2,r2,65535
  803d54:	2085383a 	mul	r2,r4,r2
                    ((displayPtr[1].x - displayPtr[2].x) * (screenPtr[0].y - screenPtr[2].y)) ;
    /* B((X0X2) (XD1XD2)(XD0XD2) (X1X2))K    */
    matrixPtr->Bn = ((screenPtr[0].x - screenPtr[2].x) * (displayPtr[1].x - displayPtr[2].x)) - 
                    ((displayPtr[0].x - displayPtr[2].x) * (screenPtr[1].x - screenPtr[2].x)) ;
    /* C(Y0(X2XD1X1XD2)+Y1(X0XD2X2XD0)+Y2(X1XD0X0XD1))K */
    matrixPtr->Cn = (screenPtr[2].x * displayPtr[1].x - screenPtr[1].x * displayPtr[2].x) * screenPtr[0].y +
  803d58:	1887883a 	add	r3,r3,r2
                    (screenPtr[0].x * displayPtr[2].x - screenPtr[2].x * displayPtr[0].x) * screenPtr[1].y +
                    (screenPtr[1].x * displayPtr[0].x - screenPtr[0].x * displayPtr[1].x) * screenPtr[2].y ;
  803d5c:	e0bffe17 	ldw	r2,-8(fp)
  803d60:	10800104 	addi	r2,r2,4
  803d64:	1080000b 	ldhu	r2,0(r2)
  803d68:	113fffcc 	andi	r4,r2,65535
  803d6c:	e0bffd17 	ldw	r2,-12(fp)
  803d70:	1080000b 	ldhu	r2,0(r2)
  803d74:	10bfffcc 	andi	r2,r2,65535
  803d78:	2089383a 	mul	r4,r4,r2
  803d7c:	e0bffe17 	ldw	r2,-8(fp)
  803d80:	1080000b 	ldhu	r2,0(r2)
  803d84:	117fffcc 	andi	r5,r2,65535
  803d88:	e0bffd17 	ldw	r2,-12(fp)
  803d8c:	10800104 	addi	r2,r2,4
  803d90:	1080000b 	ldhu	r2,0(r2)
  803d94:	10bfffcc 	andi	r2,r2,65535
  803d98:	2885383a 	mul	r2,r5,r2
  803d9c:	2089c83a 	sub	r4,r4,r2
  803da0:	e0bffe17 	ldw	r2,-8(fp)
  803da4:	10800204 	addi	r2,r2,8
  803da8:	1080008b 	ldhu	r2,2(r2)
  803dac:	10bfffcc 	andi	r2,r2,65535
  803db0:	2085383a 	mul	r2,r4,r2
    /* B((X0X2) (XD1XD2)(XD0XD2) (X1X2))K    */
    matrixPtr->Bn = ((screenPtr[0].x - screenPtr[2].x) * (displayPtr[1].x - displayPtr[2].x)) - 
                    ((displayPtr[0].x - displayPtr[2].x) * (screenPtr[1].x - screenPtr[2].x)) ;
    /* C(Y0(X2XD1X1XD2)+Y1(X0XD2X2XD0)+Y2(X1XD0X0XD1))K */
    matrixPtr->Cn = (screenPtr[2].x * displayPtr[1].x - screenPtr[1].x * displayPtr[2].x) * screenPtr[0].y +
                    (screenPtr[0].x * displayPtr[2].x - screenPtr[2].x * displayPtr[0].x) * screenPtr[1].y +
  803db4:	1885883a 	add	r2,r3,r2
                    ((displayPtr[1].x - displayPtr[2].x) * (screenPtr[0].y - screenPtr[2].y)) ;
    /* B((X0X2) (XD1XD2)(XD0XD2) (X1X2))K    */
    matrixPtr->Bn = ((screenPtr[0].x - screenPtr[2].x) * (displayPtr[1].x - displayPtr[2].x)) - 
                    ((displayPtr[0].x - displayPtr[2].x) * (screenPtr[1].x - screenPtr[2].x)) ;
    /* C(Y0(X2XD1X1XD2)+Y1(X0XD2X2XD0)+Y2(X1XD0X0XD1))K */
    matrixPtr->Cn = (screenPtr[2].x * displayPtr[1].x - screenPtr[1].x * displayPtr[2].x) * screenPtr[0].y +
  803db8:	1009883a 	mov	r4,r2
  803dbc:	0806a080 	call	806a08 <__floatsidf>
  803dc0:	1009883a 	mov	r4,r2
  803dc4:	180b883a 	mov	r5,r3
  803dc8:	e0bfff17 	ldw	r2,-4(fp)
  803dcc:	11000415 	stw	r4,16(r2)
  803dd0:	11400515 	stw	r5,20(r2)
                    (screenPtr[0].x * displayPtr[2].x - screenPtr[2].x * displayPtr[0].x) * screenPtr[1].y +
                    (screenPtr[1].x * displayPtr[0].x - screenPtr[0].x * displayPtr[1].x) * screenPtr[2].y ;
    /* D((YD0YD2) (Y1Y2)(YD1YD2) (Y0Y2))K    */
    matrixPtr->Dn = ((displayPtr[0].y - displayPtr[2].y) * (screenPtr[1].y - screenPtr[2].y)) - 
  803dd4:	e0bffd17 	ldw	r2,-12(fp)
  803dd8:	1080008b 	ldhu	r2,2(r2)
  803ddc:	10ffffcc 	andi	r3,r2,65535
  803de0:	e0bffd17 	ldw	r2,-12(fp)
  803de4:	10800204 	addi	r2,r2,8
  803de8:	1080008b 	ldhu	r2,2(r2)
  803dec:	10bfffcc 	andi	r2,r2,65535
  803df0:	1887c83a 	sub	r3,r3,r2
  803df4:	e0bffe17 	ldw	r2,-8(fp)
  803df8:	10800104 	addi	r2,r2,4
  803dfc:	1080008b 	ldhu	r2,2(r2)
  803e00:	113fffcc 	andi	r4,r2,65535
  803e04:	e0bffe17 	ldw	r2,-8(fp)
  803e08:	10800204 	addi	r2,r2,8
  803e0c:	1080008b 	ldhu	r2,2(r2)
  803e10:	10bfffcc 	andi	r2,r2,65535
  803e14:	2085c83a 	sub	r2,r4,r2
  803e18:	1887383a 	mul	r3,r3,r2
                    ((displayPtr[1].y - displayPtr[2].y) * (screenPtr[0].y - screenPtr[2].y)) ;
  803e1c:	e0bffd17 	ldw	r2,-12(fp)
  803e20:	10800104 	addi	r2,r2,4
  803e24:	1080008b 	ldhu	r2,2(r2)
  803e28:	113fffcc 	andi	r4,r2,65535
  803e2c:	e0bffd17 	ldw	r2,-12(fp)
  803e30:	10800204 	addi	r2,r2,8
  803e34:	1080008b 	ldhu	r2,2(r2)
  803e38:	10bfffcc 	andi	r2,r2,65535
  803e3c:	2089c83a 	sub	r4,r4,r2
  803e40:	e0bffe17 	ldw	r2,-8(fp)
  803e44:	10800204 	addi	r2,r2,8
  803e48:	1080008b 	ldhu	r2,2(r2)
  803e4c:	117fffcc 	andi	r5,r2,65535
  803e50:	e0bffe17 	ldw	r2,-8(fp)
  803e54:	1080008b 	ldhu	r2,2(r2)
  803e58:	10bfffcc 	andi	r2,r2,65535
  803e5c:	2885c83a 	sub	r2,r5,r2
  803e60:	2085383a 	mul	r2,r4,r2
    /* C(Y0(X2XD1X1XD2)+Y1(X0XD2X2XD0)+Y2(X1XD0X0XD1))K */
    matrixPtr->Cn = (screenPtr[2].x * displayPtr[1].x - screenPtr[1].x * displayPtr[2].x) * screenPtr[0].y +
                    (screenPtr[0].x * displayPtr[2].x - screenPtr[2].x * displayPtr[0].x) * screenPtr[1].y +
                    (screenPtr[1].x * displayPtr[0].x - screenPtr[0].x * displayPtr[1].x) * screenPtr[2].y ;
    /* D((YD0YD2) (Y1Y2)(YD1YD2) (Y0Y2))K    */
    matrixPtr->Dn = ((displayPtr[0].y - displayPtr[2].y) * (screenPtr[1].y - screenPtr[2].y)) - 
  803e64:	1885883a 	add	r2,r3,r2
  803e68:	1009883a 	mov	r4,r2
  803e6c:	0806a080 	call	806a08 <__floatsidf>
  803e70:	1009883a 	mov	r4,r2
  803e74:	180b883a 	mov	r5,r3
  803e78:	e0bfff17 	ldw	r2,-4(fp)
  803e7c:	11000615 	stw	r4,24(r2)
  803e80:	11400715 	stw	r5,28(r2)
                    ((displayPtr[1].y - displayPtr[2].y) * (screenPtr[0].y - screenPtr[2].y)) ;
    /* E((X0X2) (YD1YD2)(YD0YD2) (X1X2))K    */
    matrixPtr->En = ((screenPtr[0].x - screenPtr[2].x) * (displayPtr[1].y - displayPtr[2].y)) - 
  803e84:	e0bffe17 	ldw	r2,-8(fp)
  803e88:	1080000b 	ldhu	r2,0(r2)
  803e8c:	10ffffcc 	andi	r3,r2,65535
  803e90:	e0bffe17 	ldw	r2,-8(fp)
  803e94:	10800204 	addi	r2,r2,8
  803e98:	1080000b 	ldhu	r2,0(r2)
  803e9c:	10bfffcc 	andi	r2,r2,65535
  803ea0:	1887c83a 	sub	r3,r3,r2
  803ea4:	e0bffd17 	ldw	r2,-12(fp)
  803ea8:	10800104 	addi	r2,r2,4
  803eac:	1080008b 	ldhu	r2,2(r2)
  803eb0:	113fffcc 	andi	r4,r2,65535
  803eb4:	e0bffd17 	ldw	r2,-12(fp)
  803eb8:	10800204 	addi	r2,r2,8
  803ebc:	1080008b 	ldhu	r2,2(r2)
  803ec0:	10bfffcc 	andi	r2,r2,65535
  803ec4:	2085c83a 	sub	r2,r4,r2
  803ec8:	1887383a 	mul	r3,r3,r2
                    ((displayPtr[0].y - displayPtr[2].y) * (screenPtr[1].x - screenPtr[2].x)) ;
  803ecc:	e0bffd17 	ldw	r2,-12(fp)
  803ed0:	1080008b 	ldhu	r2,2(r2)
  803ed4:	113fffcc 	andi	r4,r2,65535
  803ed8:	e0bffd17 	ldw	r2,-12(fp)
  803edc:	10800204 	addi	r2,r2,8
  803ee0:	1080008b 	ldhu	r2,2(r2)
  803ee4:	10bfffcc 	andi	r2,r2,65535
  803ee8:	2089c83a 	sub	r4,r4,r2
  803eec:	e0bffe17 	ldw	r2,-8(fp)
  803ef0:	10800204 	addi	r2,r2,8
  803ef4:	1080000b 	ldhu	r2,0(r2)
  803ef8:	117fffcc 	andi	r5,r2,65535
  803efc:	e0bffe17 	ldw	r2,-8(fp)
  803f00:	10800104 	addi	r2,r2,4
  803f04:	1080000b 	ldhu	r2,0(r2)
  803f08:	10bfffcc 	andi	r2,r2,65535
  803f0c:	2885c83a 	sub	r2,r5,r2
  803f10:	2085383a 	mul	r2,r4,r2
                    (screenPtr[1].x * displayPtr[0].x - screenPtr[0].x * displayPtr[1].x) * screenPtr[2].y ;
    /* D((YD0YD2) (Y1Y2)(YD1YD2) (Y0Y2))K    */
    matrixPtr->Dn = ((displayPtr[0].y - displayPtr[2].y) * (screenPtr[1].y - screenPtr[2].y)) - 
                    ((displayPtr[1].y - displayPtr[2].y) * (screenPtr[0].y - screenPtr[2].y)) ;
    /* E((X0X2) (YD1YD2)(YD0YD2) (X1X2))K    */
    matrixPtr->En = ((screenPtr[0].x - screenPtr[2].x) * (displayPtr[1].y - displayPtr[2].y)) - 
  803f14:	1885883a 	add	r2,r3,r2
  803f18:	1009883a 	mov	r4,r2
  803f1c:	0806a080 	call	806a08 <__floatsidf>
  803f20:	1009883a 	mov	r4,r2
  803f24:	180b883a 	mov	r5,r3
  803f28:	e0bfff17 	ldw	r2,-4(fp)
  803f2c:	11000815 	stw	r4,32(r2)
  803f30:	11400915 	stw	r5,36(r2)
                    ((displayPtr[0].y - displayPtr[2].y) * (screenPtr[1].x - screenPtr[2].x)) ;
    /* F(Y0(X2YD1X1YD2)+Y1(X0YD2X2YD0)+Y2(X1YD0X0YD1))K */
    matrixPtr->Fn = (screenPtr[2].x * displayPtr[1].y - screenPtr[1].x * displayPtr[2].y) * screenPtr[0].y +
  803f34:	e0bffe17 	ldw	r2,-8(fp)
  803f38:	10800204 	addi	r2,r2,8
  803f3c:	1080000b 	ldhu	r2,0(r2)
  803f40:	10ffffcc 	andi	r3,r2,65535
  803f44:	e0bffd17 	ldw	r2,-12(fp)
  803f48:	10800104 	addi	r2,r2,4
  803f4c:	1080008b 	ldhu	r2,2(r2)
  803f50:	10bfffcc 	andi	r2,r2,65535
  803f54:	1887383a 	mul	r3,r3,r2
  803f58:	e0bffe17 	ldw	r2,-8(fp)
  803f5c:	10800104 	addi	r2,r2,4
  803f60:	1080000b 	ldhu	r2,0(r2)
  803f64:	113fffcc 	andi	r4,r2,65535
  803f68:	e0bffd17 	ldw	r2,-12(fp)
  803f6c:	10800204 	addi	r2,r2,8
  803f70:	1080008b 	ldhu	r2,2(r2)
  803f74:	10bfffcc 	andi	r2,r2,65535
  803f78:	2085383a 	mul	r2,r4,r2
  803f7c:	1887c83a 	sub	r3,r3,r2
  803f80:	e0bffe17 	ldw	r2,-8(fp)
  803f84:	1080008b 	ldhu	r2,2(r2)
  803f88:	10bfffcc 	andi	r2,r2,65535
  803f8c:	1887383a 	mul	r3,r3,r2
                    (screenPtr[0].x * displayPtr[2].y - screenPtr[2].x * displayPtr[0].y) * screenPtr[1].y +
  803f90:	e0bffe17 	ldw	r2,-8(fp)
  803f94:	1080000b 	ldhu	r2,0(r2)
  803f98:	113fffcc 	andi	r4,r2,65535
  803f9c:	e0bffd17 	ldw	r2,-12(fp)
  803fa0:	10800204 	addi	r2,r2,8
  803fa4:	1080008b 	ldhu	r2,2(r2)
  803fa8:	10bfffcc 	andi	r2,r2,65535
  803fac:	2089383a 	mul	r4,r4,r2
  803fb0:	e0bffe17 	ldw	r2,-8(fp)
  803fb4:	10800204 	addi	r2,r2,8
  803fb8:	1080000b 	ldhu	r2,0(r2)
  803fbc:	117fffcc 	andi	r5,r2,65535
  803fc0:	e0bffd17 	ldw	r2,-12(fp)
  803fc4:	1080008b 	ldhu	r2,2(r2)
  803fc8:	10bfffcc 	andi	r2,r2,65535
  803fcc:	2885383a 	mul	r2,r5,r2
  803fd0:	2089c83a 	sub	r4,r4,r2
  803fd4:	e0bffe17 	ldw	r2,-8(fp)
  803fd8:	10800104 	addi	r2,r2,4
  803fdc:	1080008b 	ldhu	r2,2(r2)
  803fe0:	10bfffcc 	andi	r2,r2,65535
  803fe4:	2085383a 	mul	r2,r4,r2
                    ((displayPtr[1].y - displayPtr[2].y) * (screenPtr[0].y - screenPtr[2].y)) ;
    /* E((X0X2) (YD1YD2)(YD0YD2) (X1X2))K    */
    matrixPtr->En = ((screenPtr[0].x - screenPtr[2].x) * (displayPtr[1].y - displayPtr[2].y)) - 
                    ((displayPtr[0].y - displayPtr[2].y) * (screenPtr[1].x - screenPtr[2].x)) ;
    /* F(Y0(X2YD1X1YD2)+Y1(X0YD2X2YD0)+Y2(X1YD0X0YD1))K */
    matrixPtr->Fn = (screenPtr[2].x * displayPtr[1].y - screenPtr[1].x * displayPtr[2].y) * screenPtr[0].y +
  803fe8:	1887883a 	add	r3,r3,r2
                    (screenPtr[0].x * displayPtr[2].y - screenPtr[2].x * displayPtr[0].y) * screenPtr[1].y +
                    (screenPtr[1].x * displayPtr[0].y - screenPtr[0].x * displayPtr[1].y) * screenPtr[2].y ;
  803fec:	e0bffe17 	ldw	r2,-8(fp)
  803ff0:	10800104 	addi	r2,r2,4
  803ff4:	1080000b 	ldhu	r2,0(r2)
  803ff8:	113fffcc 	andi	r4,r2,65535
  803ffc:	e0bffd17 	ldw	r2,-12(fp)
  804000:	1080008b 	ldhu	r2,2(r2)
  804004:	10bfffcc 	andi	r2,r2,65535
  804008:	2089383a 	mul	r4,r4,r2
  80400c:	e0bffe17 	ldw	r2,-8(fp)
  804010:	1080000b 	ldhu	r2,0(r2)
  804014:	117fffcc 	andi	r5,r2,65535
  804018:	e0bffd17 	ldw	r2,-12(fp)
  80401c:	10800104 	addi	r2,r2,4
  804020:	1080008b 	ldhu	r2,2(r2)
  804024:	10bfffcc 	andi	r2,r2,65535
  804028:	2885383a 	mul	r2,r5,r2
  80402c:	2089c83a 	sub	r4,r4,r2
  804030:	e0bffe17 	ldw	r2,-8(fp)
  804034:	10800204 	addi	r2,r2,8
  804038:	1080008b 	ldhu	r2,2(r2)
  80403c:	10bfffcc 	andi	r2,r2,65535
  804040:	2085383a 	mul	r2,r4,r2
    /* E((X0X2) (YD1YD2)(YD0YD2) (X1X2))K    */
    matrixPtr->En = ((screenPtr[0].x - screenPtr[2].x) * (displayPtr[1].y - displayPtr[2].y)) - 
                    ((displayPtr[0].y - displayPtr[2].y) * (screenPtr[1].x - screenPtr[2].x)) ;
    /* F(Y0(X2YD1X1YD2)+Y1(X0YD2X2YD0)+Y2(X1YD0X0YD1))K */
    matrixPtr->Fn = (screenPtr[2].x * displayPtr[1].y - screenPtr[1].x * displayPtr[2].y) * screenPtr[0].y +
                    (screenPtr[0].x * displayPtr[2].y - screenPtr[2].x * displayPtr[0].y) * screenPtr[1].y +
  804044:	1885883a 	add	r2,r3,r2
                    ((displayPtr[1].y - displayPtr[2].y) * (screenPtr[0].y - screenPtr[2].y)) ;
    /* E((X0X2) (YD1YD2)(YD0YD2) (X1X2))K    */
    matrixPtr->En = ((screenPtr[0].x - screenPtr[2].x) * (displayPtr[1].y - displayPtr[2].y)) - 
                    ((displayPtr[0].y - displayPtr[2].y) * (screenPtr[1].x - screenPtr[2].x)) ;
    /* F(Y0(X2YD1X1YD2)+Y1(X0YD2X2YD0)+Y2(X1YD0X0YD1))K */
    matrixPtr->Fn = (screenPtr[2].x * displayPtr[1].y - screenPtr[1].x * displayPtr[2].y) * screenPtr[0].y +
  804048:	1009883a 	mov	r4,r2
  80404c:	0806a080 	call	806a08 <__floatsidf>
  804050:	1009883a 	mov	r4,r2
  804054:	180b883a 	mov	r5,r3
  804058:	e0bfff17 	ldw	r2,-4(fp)
  80405c:	11000a15 	stw	r4,40(r2)
  804060:	11400b15 	stw	r5,44(r2)
                    (screenPtr[0].x * displayPtr[2].y - screenPtr[2].x * displayPtr[0].y) * screenPtr[1].y +
                    (screenPtr[1].x * displayPtr[0].y - screenPtr[0].x * displayPtr[1].y) * screenPtr[2].y ;
  }
  return( retTHRESHOLD ) ;
  804064:	e0bffc03 	ldbu	r2,-16(fp)
}
  804068:	e037883a 	mov	sp,fp
  80406c:	dfc00117 	ldw	ra,4(sp)
  804070:	df000017 	ldw	fp,0(sp)
  804074:	dec00204 	addi	sp,sp,8
  804078:	f800283a 	ret

0080407c <getDisplayPoint>:
* Attention      : None
*******************************************************************************/
alt_u8 getDisplayPoint(Coordinate * displayPtr,
                     Coordinate * screenPtr,
                     Matrix * matrixPtr )
{
  80407c:	defff604 	addi	sp,sp,-40
  804080:	dfc00915 	stw	ra,36(sp)
  804084:	df000815 	stw	fp,32(sp)
  804088:	dcc00715 	stw	r19,28(sp)
  80408c:	dc800615 	stw	r18,24(sp)
  804090:	dc400515 	stw	r17,20(sp)
  804094:	dc000415 	stw	r16,16(sp)
  804098:	df000804 	addi	fp,sp,32
  80409c:	e13ff915 	stw	r4,-28(fp)
  8040a0:	e17ffa15 	stw	r5,-24(fp)
  8040a4:	e1bffb15 	stw	r6,-20(fp)
  alt_u8 retTHRESHOLD =1 ;
  8040a8:	00800044 	movi	r2,1
  8040ac:	e0bff805 	stb	r2,-32(fp)

  if( matrixPtr->Divider != 0 )
  8040b0:	e13ffb17 	ldw	r4,-20(fp)
  8040b4:	20800c17 	ldw	r2,48(r4)
  8040b8:	20c00d17 	ldw	r3,52(r4)
  8040bc:	1009883a 	mov	r4,r2
  8040c0:	180b883a 	mov	r5,r3
  8040c4:	000d883a 	mov	r6,zero
  8040c8:	000f883a 	mov	r7,zero
  8040cc:	08058280 	call	805828 <__eqdf2>
  8040d0:	10009b26 	beq	r2,zero,804340 <getDisplayPoint+0x2c4>
  {
    /* XD = AX+BY+C */        
    displayPtr->x = ( (matrixPtr->An * screenPtr->x) + 
  8040d4:	e0bffb17 	ldw	r2,-20(fp)
  8040d8:	14000017 	ldw	r16,0(r2)
  8040dc:	14400117 	ldw	r17,4(r2)
  8040e0:	e0bffa17 	ldw	r2,-24(fp)
  8040e4:	1080000b 	ldhu	r2,0(r2)
  8040e8:	10bfffcc 	andi	r2,r2,65535
  8040ec:	1009883a 	mov	r4,r2
  8040f0:	0806a080 	call	806a08 <__floatsidf>
  8040f4:	100f883a 	mov	r7,r2
  8040f8:	1811883a 	mov	r8,r3
  8040fc:	8009883a 	mov	r4,r16
  804100:	880b883a 	mov	r5,r17
  804104:	380d883a 	mov	r6,r7
  804108:	400f883a 	mov	r7,r8
  80410c:	080598c0 	call	80598c <__muldf3>
  804110:	1009883a 	mov	r4,r2
  804114:	180b883a 	mov	r5,r3
  804118:	2025883a 	mov	r18,r4
  80411c:	2827883a 	mov	r19,r5
                      (matrixPtr->Bn * screenPtr->y) + 
  804120:	e0bffb17 	ldw	r2,-20(fp)
  804124:	14000217 	ldw	r16,8(r2)
  804128:	14400317 	ldw	r17,12(r2)
  80412c:	e0bffa17 	ldw	r2,-24(fp)
  804130:	1080008b 	ldhu	r2,2(r2)
  804134:	10bfffcc 	andi	r2,r2,65535
  804138:	1009883a 	mov	r4,r2
  80413c:	0806a080 	call	806a08 <__floatsidf>
  804140:	100f883a 	mov	r7,r2
  804144:	1811883a 	mov	r8,r3
  804148:	8009883a 	mov	r4,r16
  80414c:	880b883a 	mov	r5,r17
  804150:	380d883a 	mov	r6,r7
  804154:	400f883a 	mov	r7,r8
  804158:	080598c0 	call	80598c <__muldf3>
  80415c:	1009883a 	mov	r4,r2
  804160:	180b883a 	mov	r5,r3
  804164:	2005883a 	mov	r2,r4
  804168:	2807883a 	mov	r3,r5
  alt_u8 retTHRESHOLD =1 ;

  if( matrixPtr->Divider != 0 )
  {
    /* XD = AX+BY+C */        
    displayPtr->x = ( (matrixPtr->An * screenPtr->x) + 
  80416c:	9009883a 	mov	r4,r18
  804170:	980b883a 	mov	r5,r19
  804174:	100d883a 	mov	r6,r2
  804178:	180f883a 	mov	r7,r3
  80417c:	08046c00 	call	8046c0 <__adddf3>
  804180:	100f883a 	mov	r7,r2
  804184:	1811883a 	mov	r8,r3
  804188:	380b883a 	mov	r5,r7
  80418c:	400d883a 	mov	r6,r8
                      (matrixPtr->Bn * screenPtr->y) + 
                       matrixPtr->Cn 
  804190:	e13ffb17 	ldw	r4,-20(fp)
  804194:	20800417 	ldw	r2,16(r4)
  804198:	20c00517 	ldw	r3,20(r4)

  if( matrixPtr->Divider != 0 )
  {
    /* XD = AX+BY+C */        
    displayPtr->x = ( (matrixPtr->An * screenPtr->x) + 
                      (matrixPtr->Bn * screenPtr->y) + 
  80419c:	2809883a 	mov	r4,r5
  8041a0:	300b883a 	mov	r5,r6
  8041a4:	100d883a 	mov	r6,r2
  8041a8:	180f883a 	mov	r7,r3
  8041ac:	08046c00 	call	8046c0 <__adddf3>
  8041b0:	100f883a 	mov	r7,r2
  8041b4:	1811883a 	mov	r8,r3
  8041b8:	380b883a 	mov	r5,r7
  8041bc:	400d883a 	mov	r6,r8
                       matrixPtr->Cn 
                    ) / matrixPtr->Divider ;
  8041c0:	e13ffb17 	ldw	r4,-20(fp)
  8041c4:	20800c17 	ldw	r2,48(r4)
  8041c8:	20c00d17 	ldw	r3,52(r4)
  8041cc:	2809883a 	mov	r4,r5
  8041d0:	300b883a 	mov	r5,r6
  8041d4:	100d883a 	mov	r6,r2
  8041d8:	180f883a 	mov	r7,r3
  8041dc:	0804f5c0 	call	804f5c <__divdf3>
  8041e0:	1009883a 	mov	r4,r2
  8041e4:	180b883a 	mov	r5,r3
  8041e8:	2005883a 	mov	r2,r4
  8041ec:	2807883a 	mov	r3,r5
  alt_u8 retTHRESHOLD =1 ;

  if( matrixPtr->Divider != 0 )
  {
    /* XD = AX+BY+C */        
    displayPtr->x = ( (matrixPtr->An * screenPtr->x) + 
  8041f0:	1009883a 	mov	r4,r2
  8041f4:	180b883a 	mov	r5,r3
  8041f8:	080464c0 	call	80464c <__fixunsdfsi>
  8041fc:	1007883a 	mov	r3,r2
  804200:	e0bff917 	ldw	r2,-28(fp)
  804204:	10c0000d 	sth	r3,0(r2)
                      (matrixPtr->Bn * screenPtr->y) + 
                       matrixPtr->Cn 
                    ) / matrixPtr->Divider ;
    /* YD = DX+EY+F */        
    displayPtr->y = ( (matrixPtr->Dn * screenPtr->x) + 
  804208:	e0bffb17 	ldw	r2,-20(fp)
  80420c:	14000617 	ldw	r16,24(r2)
  804210:	14400717 	ldw	r17,28(r2)
  804214:	e0bffa17 	ldw	r2,-24(fp)
  804218:	1080000b 	ldhu	r2,0(r2)
  80421c:	10bfffcc 	andi	r2,r2,65535
  804220:	1009883a 	mov	r4,r2
  804224:	0806a080 	call	806a08 <__floatsidf>
  804228:	100f883a 	mov	r7,r2
  80422c:	1811883a 	mov	r8,r3
  804230:	8009883a 	mov	r4,r16
  804234:	880b883a 	mov	r5,r17
  804238:	380d883a 	mov	r6,r7
  80423c:	400f883a 	mov	r7,r8
  804240:	080598c0 	call	80598c <__muldf3>
  804244:	1009883a 	mov	r4,r2
  804248:	180b883a 	mov	r5,r3
  80424c:	2025883a 	mov	r18,r4
  804250:	2827883a 	mov	r19,r5
                      (matrixPtr->En * screenPtr->y) + 
  804254:	e0bffb17 	ldw	r2,-20(fp)
  804258:	14000817 	ldw	r16,32(r2)
  80425c:	14400917 	ldw	r17,36(r2)
  804260:	e0bffa17 	ldw	r2,-24(fp)
  804264:	1080008b 	ldhu	r2,2(r2)
  804268:	10bfffcc 	andi	r2,r2,65535
  80426c:	1009883a 	mov	r4,r2
  804270:	0806a080 	call	806a08 <__floatsidf>
  804274:	100f883a 	mov	r7,r2
  804278:	1811883a 	mov	r8,r3
  80427c:	8009883a 	mov	r4,r16
  804280:	880b883a 	mov	r5,r17
  804284:	380d883a 	mov	r6,r7
  804288:	400f883a 	mov	r7,r8
  80428c:	080598c0 	call	80598c <__muldf3>
  804290:	1009883a 	mov	r4,r2
  804294:	180b883a 	mov	r5,r3
  804298:	2005883a 	mov	r2,r4
  80429c:	2807883a 	mov	r3,r5
    displayPtr->x = ( (matrixPtr->An * screenPtr->x) + 
                      (matrixPtr->Bn * screenPtr->y) + 
                       matrixPtr->Cn 
